; Listing generated by Microsoft (R) Optimizing Compiler Version 12.00.8943.0 

	TITLE	C:\duke4\xcore\dll.cpp
	.386P
include listing.inc
if @Version gt 510
.model FLAT
else
_TEXT	SEGMENT PARA USE32 PUBLIC 'CODE'
_TEXT	ENDS
_DATA	SEGMENT DWORD USE32 PUBLIC 'DATA'
_DATA	ENDS
CONST	SEGMENT DWORD USE32 PUBLIC 'CONST'
CONST	ENDS
_BSS	SEGMENT DWORD USE32 PUBLIC 'BSS'
_BSS	ENDS
$$SYMBOLS	SEGMENT BYTE USE32 'DEBSYM'
$$SYMBOLS	ENDS
_TLS	SEGMENT DWORD USE32 PUBLIC 'TLS'
_TLS	ENDS
;	COMDAT ??_C@_0BF@MBIJ@Cannot?5init?5CPrintfT?$AA@
_DATA	SEGMENT DWORD USE32 PUBLIC 'DATA'
_DATA	ENDS
drectve	SEGMENT DWORD USE32 PUBLIC ''
drectve	ENDS
;	COMDAT ??0?$XChain@VXStatistic@@@@QAE@XZ
_TEXT	SEGMENT PARA USE32 PUBLIC 'CODE'
_TEXT	ENDS
;	COMDAT ?get_head@?$XList@VXStatistic@@@@QAEPAVXStatistic@@XZ
_TEXT	SEGMENT PARA USE32 PUBLIC 'CODE'
_TEXT	ENDS
;	COMDAT ??0?$XChain@VCSysObj@@@@QAE@XZ
_TEXT	SEGMENT PARA USE32 PUBLIC 'CODE'
_TEXT	ENDS
;	COMDAT ??0?$XChain@VCSysObj@@@@QAE@K@Z
_TEXT	SEGMENT PARA USE32 PUBLIC 'CODE'
_TEXT	ENDS
;	COMDAT ?get_next@?$XChain@VCSysObj@@@@QAEPAVCSysObj@@PAV2@@Z
_TEXT	SEGMENT PARA USE32 PUBLIC 'CODE'
_TEXT	ENDS
;	COMDAT ?get_prev@?$XChain@VCSysObj@@@@QAEPAVCSysObj@@PAV2@@Z
_TEXT	SEGMENT PARA USE32 PUBLIC 'CODE'
_TEXT	ENDS
;	COMDAT ?get_head@?$XChain@VCSysObj@@@@QAEPAVCSysObj@@XZ
_TEXT	SEGMENT PARA USE32 PUBLIC 'CODE'
_TEXT	ENDS
;	COMDAT ?get_tail@?$XChain@VCSysObj@@@@QAEPAVCSysObj@@XZ
_TEXT	SEGMENT PARA USE32 PUBLIC 'CODE'
_TEXT	ENDS
;	COMDAT ??1?$XChain@VXStatistic@@@@QAE@XZ
_TEXT	SEGMENT PARA USE32 PUBLIC 'CODE'
_TEXT	ENDS
;	COMDAT ?free_list@?$XChain@VXStatistic@@@@QAEXXZ
_TEXT	SEGMENT PARA USE32 PUBLIC 'CODE'
_TEXT	ENDS
;	COMDAT ??0?$XList@VXStatistic@@@@QAE@XZ
_TEXT	SEGMENT PARA USE32 PUBLIC 'CODE'
_TEXT	ENDS
;	COMDAT ??1?$XList@VXStatistic@@@@QAE@XZ
_TEXT	SEGMENT PARA USE32 PUBLIC 'CODE'
_TEXT	ENDS
;	COMDAT ?free_list@?$XList@VXStatistic@@@@QAEXXZ
_TEXT	SEGMENT PARA USE32 PUBLIC 'CODE'
_TEXT	ENDS
;	COMDAT ?add_head@?$XList@VXStatistic@@@@QAEPAU_XPos@@PAVXStatistic@@@Z
_TEXT	SEGMENT PARA USE32 PUBLIC 'CODE'
_TEXT	ENDS
;	COMDAT ?remove_head@?$XList@VXStatistic@@@@QAEPAVXStatistic@@XZ
_TEXT	SEGMENT PARA USE32 PUBLIC 'CODE'
_TEXT	ENDS
;	COMDAT ??1?$XChain@VCSysObj@@@@QAE@XZ
_TEXT	SEGMENT PARA USE32 PUBLIC 'CODE'
_TEXT	ENDS
;	COMDAT ?lose_list@?$XChain@VCSysObj@@@@QAEXXZ
_TEXT	SEGMENT PARA USE32 PUBLIC 'CODE'
_TEXT	ENDS
;	COMDAT ?free_list@?$XChain@VCSysObj@@@@QAEXXZ
_TEXT	SEGMENT PARA USE32 PUBLIC 'CODE'
_TEXT	ENDS
;	COMDAT ?add_head@?$XChain@VCSysObj@@@@QAEPAVCSysObj@@PAV2@@Z
_TEXT	SEGMENT PARA USE32 PUBLIC 'CODE'
_TEXT	ENDS
;	COMDAT ?add_tail@?$XChain@VCSysObj@@@@QAEPAVCSysObj@@PAV2@@Z
_TEXT	SEGMENT PARA USE32 PUBLIC 'CODE'
_TEXT	ENDS
;	COMDAT ?remove_head@?$XChain@VCSysObj@@@@QAEPAVCSysObj@@XZ
_TEXT	SEGMENT PARA USE32 PUBLIC 'CODE'
_TEXT	ENDS
;	COMDAT ?remove_tail@?$XChain@VCSysObj@@@@QAEPAVCSysObj@@XZ
_TEXT	SEGMENT PARA USE32 PUBLIC 'CODE'
_TEXT	ENDS
;	COMDAT ?remove@?$XChain@VCSysObj@@@@QAEPAVCSysObj@@PAV2@@Z
_TEXT	SEGMENT PARA USE32 PUBLIC 'CODE'
_TEXT	ENDS
;	COMDAT ??1?$XList@PAX@@QAE@XZ
_TEXT	SEGMENT PARA USE32 PUBLIC 'CODE'
_TEXT	ENDS
;	COMDAT ??0?$XRcBase@VCStrObj@@@@QAE@ABV0@@Z
_TEXT	SEGMENT PARA USE32 PUBLIC 'CODE'
_TEXT	ENDS
;	COMDAT ??0?$XRcBase@VCStrObj@@@@QAE@XZ
_TEXT	SEGMENT PARA USE32 PUBLIC 'CODE'
_TEXT	ENDS
;	COMDAT ??1?$XRcBase@VCStrObj@@@@QAE@XZ
_TEXT	SEGMENT PARA USE32 PUBLIC 'CODE'
_TEXT	ENDS
;	COMDAT ??4?$XRcBase@VCStrObj@@@@QAEAAV0@ABV0@@Z
_TEXT	SEGMENT PARA USE32 PUBLIC 'CODE'
_TEXT	ENDS
;	COMDAT ??0?$XRcPtr@VCPathObj@@@@QAE@ABV0@@Z
_TEXT	SEGMENT PARA USE32 PUBLIC 'CODE'
_TEXT	ENDS
;	COMDAT ??0?$XRcPtr@VCPathObj@@@@QAE@XZ
_TEXT	SEGMENT PARA USE32 PUBLIC 'CODE'
_TEXT	ENDS
;	COMDAT ??1?$XRcPtr@VCPathObj@@@@QAE@XZ
_TEXT	SEGMENT PARA USE32 PUBLIC 'CODE'
_TEXT	ENDS
;	COMDAT ??4?$XRcPtr@VCPathObj@@@@QAEAAV0@ABV0@@Z
_TEXT	SEGMENT PARA USE32 PUBLIC 'CODE'
_TEXT	ENDS
;	COMDAT ??0?$XList@VXFindLevel@@@@QAE@XZ
_TEXT	SEGMENT PARA USE32 PUBLIC 'CODE'
_TEXT	ENDS
;	COMDAT ??1?$XList@VXFindLevel@@@@QAE@XZ
_TEXT	SEGMENT PARA USE32 PUBLIC 'CODE'
_TEXT	ENDS
;	COMDAT ??_GCSysObj@@QAEPAXI@Z
_TEXT	SEGMENT PARA USE32 PUBLIC 'CODE'
_TEXT	ENDS
;	COMDAT ??_GXFindLevel@@QAEPAXI@Z
_TEXT	SEGMENT PARA USE32 PUBLIC 'CODE'
_TEXT	ENDS
;	COMDAT ?new_node@?$XList@VXStatistic@@@@IAEPAUXNode@1@XZ
_TEXT	SEGMENT PARA USE32 PUBLIC 'CODE'
_TEXT	ENDS
;	COMDAT ?free_nodes@?$XList@VXStatistic@@@@IAEXXZ
_TEXT	SEGMENT PARA USE32 PUBLIC 'CODE'
_TEXT	ENDS
;	COMDAT ?free_nodes@?$XList@PAX@@IAEXXZ
_TEXT	SEGMENT PARA USE32 PUBLIC 'CODE'
_TEXT	ENDS
;	COMDAT ?free_nodes@?$XList@VXFindLevel@@@@IAEXXZ
_TEXT	SEGMENT PARA USE32 PUBLIC 'CODE'
_TEXT	ENDS
;	COMDAT ?AddRef@?$XRcBase@VCStrObj@@@@QAEXXZ
_TEXT	SEGMENT PARA USE32 PUBLIC 'CODE'
_TEXT	ENDS
;	COMDAT ?DelRef@?$XRcBase@VCStrObj@@@@QAEXXZ
_TEXT	SEGMENT PARA USE32 PUBLIC 'CODE'
_TEXT	ENDS
;	COMDAT ?AddRef@?$XRcPtr@VCPathObj@@@@QAEXXZ
_TEXT	SEGMENT PARA USE32 PUBLIC 'CODE'
_TEXT	ENDS
;	COMDAT ?DelRef@?$XRcPtr@VCPathObj@@@@QAEXXZ
_TEXT	SEGMENT PARA USE32 PUBLIC 'CODE'
_TEXT	ENDS
;	COMDAT ??_GCStrObj@@QAEPAXI@Z
_TEXT	SEGMENT PARA USE32 PUBLIC 'CODE'
_TEXT	ENDS
;	COMDAT ??_GCPathObj@@QAEPAXI@Z
_TEXT	SEGMENT PARA USE32 PUBLIC 'CODE'
_TEXT	ENDS
;	COMDAT ??_GXStreamWrDirect@@UAEPAXI@Z
_TEXT	SEGMENT PARA USE32 PUBLIC 'CODE'
_TEXT	ENDS
;	COMDAT ??1XStreamWrDirect@@UAE@XZ
_TEXT	SEGMENT PARA USE32 PUBLIC 'CODE'
_TEXT	ENDS
;	COMDAT ??_7XStreamWrDirect@@6B@
CONST	SEGMENT DWORD USE32 PUBLIC 'CONST'
CONST	ENDS
;	COMDAT ??1XBufferWriteInt@@UAE@XZ
_TEXT	SEGMENT PARA USE32 PUBLIC 'CODE'
_TEXT	ENDS
;	COMDAT ??_7XBufferWriteInt@@6B@
CONST	SEGMENT DWORD USE32 PUBLIC 'CONST'
CONST	ENDS
;	COMDAT ??3XStreamWrDirect@@SAXPAX@Z
_TEXT	SEGMENT PARA USE32 PUBLIC 'CODE'
_TEXT	ENDS
;	COMDAT ??_EXStreamWrDirect@@UAEPAXI@Z
_TEXT	SEGMENT PARA USE32 PUBLIC 'CODE'
_TEXT	ENDS
;	COMDAT ?flush@XStreamWrDirect@@UAEKXZ
_TEXT	SEGMENT PARA USE32 PUBLIC 'CODE'
_TEXT	ENDS
;	COMDAT ?seek@XStreamWrDirect@@UAEKJ@Z
_TEXT	SEGMENT PARA USE32 PUBLIC 'CODE'
_TEXT	ENDS
;	COMDAT ??_GXStreamRdDirect@@UAEPAXI@Z
_TEXT	SEGMENT PARA USE32 PUBLIC 'CODE'
_TEXT	ENDS
;	COMDAT ??1XStreamRdDirect@@UAE@XZ
_TEXT	SEGMENT PARA USE32 PUBLIC 'CODE'
_TEXT	ENDS
;	COMDAT ??_7XStreamRdDirect@@6B@
CONST	SEGMENT DWORD USE32 PUBLIC 'CONST'
CONST	ENDS
;	COMDAT ??1XBufferReadInt@@UAE@XZ
_TEXT	SEGMENT PARA USE32 PUBLIC 'CODE'
_TEXT	ENDS
;	COMDAT ??_7XBufferReadInt@@6B@
CONST	SEGMENT DWORD USE32 PUBLIC 'CONST'
CONST	ENDS
;	COMDAT ??3XStreamRdDirect@@SAXPAX@Z
_TEXT	SEGMENT PARA USE32 PUBLIC 'CODE'
_TEXT	ENDS
;	COMDAT ??_EXStreamRdDirect@@UAEPAXI@Z
_TEXT	SEGMENT PARA USE32 PUBLIC 'CODE'
_TEXT	ENDS
;	COMDAT ?seek@XStreamRdDirect@@UAEKJ@Z
_TEXT	SEGMENT PARA USE32 PUBLIC 'CODE'
_TEXT	ENDS
;	COMDAT ?base_init@XFile@@EAEXXZ
_TEXT	SEGMENT PARA USE32 PUBLIC 'CODE'
_TEXT	ENDS
;	COMDAT ??4autochar@@QAEAAV0@PAD@Z
_TEXT	SEGMENT PARA USE32 PUBLIC 'CODE'
_TEXT	ENDS
;	COMDAT ??_GXBufferWriteInt@@UAEPAXI@Z
_TEXT	SEGMENT PARA USE32 PUBLIC 'CODE'
_TEXT	ENDS
;	COMDAT ??_EXBufferWriteInt@@UAEPAXI@Z
_TEXT	SEGMENT PARA USE32 PUBLIC 'CODE'
_TEXT	ENDS
;	COMDAT ??_GXBufferReadInt@@UAEPAXI@Z
_TEXT	SEGMENT PARA USE32 PUBLIC 'CODE'
_TEXT	ENDS
;	COMDAT ??_EXBufferReadInt@@UAEPAXI@Z
_TEXT	SEGMENT PARA USE32 PUBLIC 'CODE'
_TEXT	ENDS
;	COMDAT ?pos_wr@CBaseStream@@UAEXKK@Z
_TEXT	SEGMENT PARA USE32 PUBLIC 'CODE'
_TEXT	ENDS
;	COMDAT ?pos_rd@CBaseStream@@UAEXKK@Z
_TEXT	SEGMENT PARA USE32 PUBLIC 'CODE'
_TEXT	ENDS
;	COMDAT ?put@CBaseStream@@UAEKD@Z
_TEXT	SEGMENT PARA USE32 PUBLIC 'CODE'
_TEXT	ENDS
;	COMDAT ?ioctl_write@CBaseStream@@UAEKKK@Z
_TEXT	SEGMENT PARA USE32 PUBLIC 'CODE'
_TEXT	ENDS
;	COMDAT ?ioctl_read@CBaseStream@@UAEKKK@Z
_TEXT	SEGMENT PARA USE32 PUBLIC 'CODE'
_TEXT	ENDS
;	COMDAT ?seek_int@CBaseStream@@MAEJXZ
_TEXT	SEGMENT PARA USE32 PUBLIC 'CODE'
_TEXT	ENDS
;	COMDAT ??_GXMemRdBuffer@@UAEPAXI@Z
_TEXT	SEGMENT PARA USE32 PUBLIC 'CODE'
_TEXT	ENDS
;	COMDAT ??1XMemRdBuffer@@UAE@XZ
_TEXT	SEGMENT PARA USE32 PUBLIC 'CODE'
_TEXT	ENDS
;	COMDAT ??_7XMemRdBuffer@@6B@
CONST	SEGMENT DWORD USE32 PUBLIC 'CONST'
CONST	ENDS
;	COMDAT ??1autochar@@QAE@XZ
_TEXT	SEGMENT PARA USE32 PUBLIC 'CODE'
_TEXT	ENDS
;	COMDAT ??3XMemRdBuffer@@SAXPAX@Z
_TEXT	SEGMENT PARA USE32 PUBLIC 'CODE'
_TEXT	ENDS
;	COMDAT ??_EXMemRdBuffer@@UAEPAXI@Z
_TEXT	SEGMENT PARA USE32 PUBLIC 'CODE'
_TEXT	ENDS
;	COMDAT ??3CStrObj@@SAXPAX@Z
_TEXT	SEGMENT PARA USE32 PUBLIC 'CODE'
_TEXT	ENDS
;	COMDAT ??1CStrObj@@QAE@XZ
_TEXT	SEGMENT PARA USE32 PUBLIC 'CODE'
_TEXT	ENDS
;	COMDAT ??1XFindLevel@@QAE@XZ
_TEXT	SEGMENT PARA USE32 PUBLIC 'CODE'
_TEXT	ENDS
;	COMDAT ??1CSysObj@@QAE@XZ
_TEXT	SEGMENT PARA USE32 PUBLIC 'CODE'
_TEXT	ENDS
;	COMDAT ??_7CSysObj@@6B@
CONST	SEGMENT DWORD USE32 PUBLIC 'CONST'
CONST	ENDS
;	COMDAT ??3@YAXPAX@Z
_TEXT	SEGMENT PARA USE32 PUBLIC 'CODE'
_TEXT	ENDS
;	COMDAT ??0XListState@@QAE@XZ
_TEXT	SEGMENT PARA USE32 PUBLIC 'CODE'
_TEXT	ENDS
;	COMDAT ??3XStatistic@@SAXPAX@Z
_TEXT	SEGMENT PARA USE32 PUBLIC 'CODE'
_TEXT	ENDS
;	COMDAT ??0XChainState@@QAE@K@Z
_TEXT	SEGMENT PARA USE32 PUBLIC 'CODE'
_TEXT	ENDS
;	COMDAT ??0XChainState@@QAE@XZ
_TEXT	SEGMENT PARA USE32 PUBLIC 'CODE'
_TEXT	ENDS
FLAT	GROUP _DATA, CONST, _BSS, drectve
	ASSUME	CS: FLAT, DS: FLAT, SS: FLAT
endif

INCLUDELIB MSVCRT
INCLUDELIB OLDNAMES

drectve	SEGMENT
$SG56785 DB	'-INCLUDE:___@@_PchSym_@00@UwfpvEUcxlivUlyqUhgwxlivOlyq@', 00H
drectve	ENDS
PUBLIC	?attach_thread@XDll@@QAEKPAX@Z			; XDll::attach_thread
PUBLIC	?detach_thread@XDll@@QAEKPAX@Z			; XDll::detach_thread
PUBLIC	_DllMain@12
EXTRN	?_xcore_dll@@3PAVXDll@@A:DWORD			; _xcore_dll
; Function compile flags: /Ogty
; File C:\duke4\xcore\dll.cpp
_TEXT	SEGMENT
_hmodule$ = 8
_reason$ = 12
_DllMain@12 PROC NEAR

; 7    : 	switch(reason)
; 8    : 	{

	mov	eax, DWORD PTR _reason$[esp-4]
	cmp	eax, 3
	ja	SHORT $L56794
	jmp	DWORD PTR $L57166[eax*4]
$L56797:

; 9    : 		case DLL_PROCESS_ATTACH:
; 10   : 			return _xcore_dll->attach_process(hmodule);

	mov	ecx, DWORD PTR ?_xcore_dll@@3PAVXDll@@A	; _xcore_dll
	mov	edx, DWORD PTR _hmodule$[esp-4]
	push	edx
	mov	eax, DWORD PTR [ecx]
	call	DWORD PTR [eax]

; 19   : }

	ret	12					; 0000000cH
$L56798:

; 11   : 		case DLL_THREAD_ATTACH:
; 12   : 			return _xcore_dll->attach_thread(hmodule);

	mov	eax, DWORD PTR _hmodule$[esp-4]
	mov	ecx, DWORD PTR ?_xcore_dll@@3PAVXDll@@A	; _xcore_dll
	push	eax
	call	?attach_thread@XDll@@QAEKPAX@Z		; XDll::attach_thread

; 19   : }

	ret	12					; 0000000cH
$L56799:

; 13   : 		case DLL_PROCESS_DETACH:
; 14   : 			return _xcore_dll->detach_process(hmodule);

	mov	ecx, DWORD PTR ?_xcore_dll@@3PAVXDll@@A	; _xcore_dll
	mov	eax, DWORD PTR _hmodule$[esp-4]
	push	eax
	mov	edx, DWORD PTR [ecx]
	call	DWORD PTR [edx+4]

; 19   : }

	ret	12					; 0000000cH
$L56800:

; 15   : 		case DLL_THREAD_DETACH:
; 16   : 			return _xcore_dll->detach_thread(hmodule);

	mov	ecx, DWORD PTR _hmodule$[esp-4]
	push	ecx
	mov	ecx, DWORD PTR ?_xcore_dll@@3PAVXDll@@A	; _xcore_dll
	call	?detach_thread@XDll@@QAEKPAX@Z		; XDll::detach_thread

; 19   : }

	ret	12					; 0000000cH
$L56794:

; 17   : 	}
; 18   : 	return TRUE;

	mov	eax, 1

; 19   : }

	ret	12					; 0000000cH
	npad	1
$L57166:
	DD	$L56799
	DD	$L56797
	DD	$L56798
	DD	$L56800
_DllMain@12 ENDP
_TEXT	ENDS
PUBLIC	?attach_process@XDll@@UAEKPAX@Z			; XDll::attach_process
; Function compile flags: /Ogty
_TEXT	SEGMENT
?attach_process@XDll@@UAEKPAX@Z PROC NEAR		; XDll::attach_process
; _this$ = ecx

; 23   : 	return TRUE;

	mov	eax, 1

; 24   : }

	ret	4
?attach_process@XDll@@UAEKPAX@Z ENDP			; XDll::attach_process
_TEXT	ENDS
PUBLIC	?detach_process@XDll@@UAEKPAX@Z			; XDll::detach_process
; Function compile flags: /Ogty
_TEXT	SEGMENT
?detach_process@XDll@@UAEKPAX@Z PROC NEAR		; XDll::detach_process
; _this$ = ecx

; 28   : 	return TRUE;

	mov	eax, 1

; 29   : }

	ret	4
?detach_process@XDll@@UAEKPAX@Z ENDP			; XDll::detach_process
; Function compile flags: /Ogty
?attach_thread@XDll@@QAEKPAX@Z PROC NEAR		; XDll::attach_thread
; _this$ = ecx

; 33   : 	return TRUE;

	mov	eax, 1

; 34   : }

	ret	4
?attach_thread@XDll@@QAEKPAX@Z ENDP			; XDll::attach_thread
; Function compile flags: /Ogty
?detach_thread@XDll@@QAEKPAX@Z PROC NEAR		; XDll::detach_thread
; _this$ = ecx

; 38   : 	return TRUE;

	mov	eax, 1

; 39   : }

	ret	4
?detach_thread@XDll@@QAEKPAX@Z ENDP			; XDll::detach_thread
_TEXT	ENDS
PUBLIC	??0?$XChain@VCSysObj@@@@QAE@XZ			; XChain<CSysObj>::XChain<CSysObj>
; Function compile flags: /Ogty
; File C:\duke4\xcore\xclass.h
;	COMDAT ??0?$XChain@VCSysObj@@@@QAE@XZ
_TEXT	SEGMENT
??0?$XChain@VCSysObj@@@@QAE@XZ PROC NEAR		; XChain<CSysObj>::XChain<CSysObj>, COMDAT
; _this$ = ecx

; 830  : 	XChain(void) : head(null),tail(null) {}

	mov	eax, ecx
	xor	ecx, ecx
	mov	DWORD PTR [eax], ecx
	mov	DWORD PTR [eax+4], ecx
	mov	DWORD PTR [eax+8], ecx
	ret	0
??0?$XChain@VCSysObj@@@@QAE@XZ ENDP			; XChain<CSysObj>::XChain<CSysObj>
_TEXT	ENDS
PUBLIC	??0?$XChain@VCSysObj@@@@QAE@K@Z			; XChain<CSysObj>::XChain<CSysObj>
; Function compile flags: /Ogty
;	COMDAT ??0?$XChain@VCSysObj@@@@QAE@K@Z
_TEXT	SEGMENT
_owned$ = 8
??0?$XChain@VCSysObj@@@@QAE@K@Z PROC NEAR		; XChain<CSysObj>::XChain<CSysObj>, COMDAT
; _this$ = ecx

; 831  : 	XChain(U32 owned) : head(null),tail(null),xchain_state(owned) {}

	mov	eax, ecx
	mov	ecx, DWORD PTR _owned$[esp-4]
	shl	ecx, 31					; 0000001fH
	and	ecx, -2147483648			; 80000000H
	mov	DWORD PTR [eax], 0
	mov	DWORD PTR [eax+4], 0
	mov	DWORD PTR [eax+8], ecx
	ret	4
??0?$XChain@VCSysObj@@@@QAE@K@Z ENDP			; XChain<CSysObj>::XChain<CSysObj>
_TEXT	ENDS
PUBLIC	?get_next@?$XChain@VCSysObj@@@@QAEPAVCSysObj@@PAV2@@Z ; XChain<CSysObj>::get_next
; Function compile flags: /Ogty
;	COMDAT ?get_next@?$XChain@VCSysObj@@@@QAEPAVCSysObj@@PAV2@@Z
_TEXT	SEGMENT
_ptr$ = 8
?get_next@?$XChain@VCSysObj@@@@QAEPAVCSysObj@@PAV2@@Z PROC NEAR ; XChain<CSysObj>::get_next, COMDAT
; _this$ = ecx

; 840  : 	TYPE *get_next(TYPE *ptr){return ptr->next;}

	mov	eax, DWORD PTR _ptr$[esp-4]
	mov	eax, DWORD PTR [eax+4]
	ret	4
?get_next@?$XChain@VCSysObj@@@@QAEPAVCSysObj@@PAV2@@Z ENDP ; XChain<CSysObj>::get_next
_TEXT	ENDS
PUBLIC	?get_prev@?$XChain@VCSysObj@@@@QAEPAVCSysObj@@PAV2@@Z ; XChain<CSysObj>::get_prev
; Function compile flags: /Ogty
;	COMDAT ?get_prev@?$XChain@VCSysObj@@@@QAEPAVCSysObj@@PAV2@@Z
_TEXT	SEGMENT
_ptr$ = 8
?get_prev@?$XChain@VCSysObj@@@@QAEPAVCSysObj@@PAV2@@Z PROC NEAR ; XChain<CSysObj>::get_prev, COMDAT
; _this$ = ecx

; 841  : 	TYPE *get_prev(TYPE *ptr){return ptr->prev;}

	mov	eax, DWORD PTR _ptr$[esp-4]
	mov	eax, DWORD PTR [eax+8]
	ret	4
?get_prev@?$XChain@VCSysObj@@@@QAEPAVCSysObj@@PAV2@@Z ENDP ; XChain<CSysObj>::get_prev
_TEXT	ENDS
PUBLIC	?get_head@?$XChain@VCSysObj@@@@QAEPAVCSysObj@@XZ ; XChain<CSysObj>::get_head
; Function compile flags: /Ogty
;	COMDAT ?get_head@?$XChain@VCSysObj@@@@QAEPAVCSysObj@@XZ
_TEXT	SEGMENT
?get_head@?$XChain@VCSysObj@@@@QAEPAVCSysObj@@XZ PROC NEAR ; XChain<CSysObj>::get_head, COMDAT
; _this$ = ecx

; 847  : 	inline TYPE *get_head(void){return head;}

	mov	eax, DWORD PTR [ecx]
	ret	0
?get_head@?$XChain@VCSysObj@@@@QAEPAVCSysObj@@XZ ENDP	; XChain<CSysObj>::get_head
_TEXT	ENDS
PUBLIC	?get_tail@?$XChain@VCSysObj@@@@QAEPAVCSysObj@@XZ ; XChain<CSysObj>::get_tail
; Function compile flags: /Ogty
;	COMDAT ?get_tail@?$XChain@VCSysObj@@@@QAEPAVCSysObj@@XZ
_TEXT	SEGMENT
?get_tail@?$XChain@VCSysObj@@@@QAEPAVCSysObj@@XZ PROC NEAR ; XChain<CSysObj>::get_tail, COMDAT
; _this$ = ecx

; 848  : 	inline TYPE *get_tail(void){return tail;}

	mov	eax, DWORD PTR [ecx+4]
	ret	0
?get_tail@?$XChain@VCSysObj@@@@QAEPAVCSysObj@@XZ ENDP	; XChain<CSysObj>::get_tail
_TEXT	ENDS
PUBLIC	??3@YAXPAX@Z					; operator delete
EXTRN	@xfree@4:NEAR
; Function compile flags: /Ogty
; File C:\duke4\xcore\xcore.h
;	COMDAT ??3@YAXPAX@Z
_TEXT	SEGMENT
_ptr$ = 8
??3@YAXPAX@Z PROC NEAR					; operator delete, COMDAT

; 130  : __inline void operator delete(void *ptr){xfree(ptr);}

	mov	ecx, DWORD PTR _ptr$[esp-4]
	jmp	@xfree@4
??3@YAXPAX@Z ENDP					; operator delete
_TEXT	ENDS
PUBLIC	??1?$XChain@VCSysObj@@@@QAE@XZ			; XChain<CSysObj>::~XChain<CSysObj>
PUBLIC	??_7CSysObj@@6B@				; CSysObj::`vftable'
EXTRN	__purecall:NEAR
EXTRN	?_global@@3PAVXGlobal@@A:DWORD			; _global
EXTRN	?unreg_global_object@XGlobal@@QAEXPAVCSysObj@@@Z:NEAR ; XGlobal::unreg_global_object
;	COMDAT ??_7CSysObj@@6B@
CONST	SEGMENT
??_7CSysObj@@6B@ DD FLAT:__purecall			; CSysObj::`vftable'
; Function compile flags: /Ogty
; File C:\duke4\xcore\xclass.h
CONST	ENDS
;	COMDAT ??1?$XChain@VCSysObj@@@@QAE@XZ
_TEXT	SEGMENT
??1?$XChain@VCSysObj@@@@QAE@XZ PROC NEAR		; XChain<CSysObj>::~XChain<CSysObj>, COMDAT
; _this$ = ecx

; 853  : {

	push	esi
	mov	esi, ecx

; 854  : 	if (xchain_state.owned)

	mov	eax, DWORD PTR [esi+8]
	test	eax, eax
	jns	SHORT $L57215

; 855  : 	{
; 856  : 		while(head)

	cmp	DWORD PTR [esi], 0
	je	SHORT $L57215
	push	ebx
	push	edi
$L56902:

; 857  : 		{
; 858  : 			TYPE *tmp=(TYPE *)head->next;

	mov	eax, DWORD PTR [esi]

; 859  : 			delete head;

	mov	edi, eax
	mov	ebx, DWORD PTR [eax+4]
	test	edi, edi
	je	SHORT $L57196
	mov	DWORD PTR [edi], OFFSET FLAT:??_7CSysObj@@6B@ ; CSysObj::`vftable'
	mov	ecx, DWORD PTR ?_global@@3PAVXGlobal@@A	; _global
	push	edi
	call	?unreg_global_object@XGlobal@@QAEXPAVCSysObj@@@Z ; XGlobal::unreg_global_object
	mov	ecx, edi
	call	@xfree@4
$L57196:
	test	ebx, ebx

; 860  : 			head=tmp;

	mov	DWORD PTR [esi], ebx
	jne	SHORT $L56902
	pop	edi
	pop	ebx
$L57215:

; 861  : 		}
; 862  : 	}
; 863  : 	head=null;

	mov	DWORD PTR [esi], 0

; 864  : 	tail=null;

	mov	DWORD PTR [esi+4], 0
	pop	esi

; 865  : }

	ret	0
??1?$XChain@VCSysObj@@@@QAE@XZ ENDP			; XChain<CSysObj>::~XChain<CSysObj>
_TEXT	ENDS
PUBLIC	?lose_list@?$XChain@VCSysObj@@@@QAEXXZ		; XChain<CSysObj>::lose_list
; Function compile flags: /Ogty
;	COMDAT ?lose_list@?$XChain@VCSysObj@@@@QAEXXZ
_TEXT	SEGMENT
?lose_list@?$XChain@VCSysObj@@@@QAEXXZ PROC NEAR	; XChain<CSysObj>::lose_list, COMDAT
; _this$ = ecx

; 870  : 	head=null;tail=null;xchain_state.count=0;

	mov	eax, DWORD PTR [ecx+8]
	mov	DWORD PTR [ecx], 0
	and	eax, -2147483648			; 80000000H
	mov	DWORD PTR [ecx+4], 0
	mov	DWORD PTR [ecx+8], eax

; 871  : }

	ret	0
?lose_list@?$XChain@VCSysObj@@@@QAEXXZ ENDP		; XChain<CSysObj>::lose_list
_TEXT	ENDS
PUBLIC	?free_list@?$XChain@VCSysObj@@@@QAEXXZ		; XChain<CSysObj>::free_list
; Function compile flags: /Ogty
;	COMDAT ?free_list@?$XChain@VCSysObj@@@@QAEXXZ
_TEXT	SEGMENT
?free_list@?$XChain@VCSysObj@@@@QAEXXZ PROC NEAR	; XChain<CSysObj>::free_list, COMDAT
; _this$ = ecx

; 875  : {

	push	esi
	mov	esi, ecx

; 876  : 	if (xchain_state.owned)

	mov	eax, DWORD PTR [esi+8]
	test	eax, eax
	jns	SHORT $L57241

; 877  : 	{
; 878  : 		while(head)

	cmp	DWORD PTR [esi], 0
	je	SHORT $L57241
	push	ebx
	push	edi
$L56918:

; 879  : 		{
; 880  : 			TYPE *tmp=(TYPE *)head->next;

	mov	eax, DWORD PTR [esi]

; 881  : 			delete head;

	mov	edi, eax
	mov	ebx, DWORD PTR [eax+4]
	test	edi, edi
	je	SHORT $L57222
	mov	DWORD PTR [edi], OFFSET FLAT:??_7CSysObj@@6B@ ; CSysObj::`vftable'
	mov	ecx, DWORD PTR ?_global@@3PAVXGlobal@@A	; _global
	push	edi
	call	?unreg_global_object@XGlobal@@QAEXPAVCSysObj@@@Z ; XGlobal::unreg_global_object
	mov	ecx, edi
	call	@xfree@4
$L57222:
	test	ebx, ebx

; 882  : 			head=tmp;

	mov	DWORD PTR [esi], ebx
	jne	SHORT $L56918
	pop	edi
	pop	ebx
$L57241:

; 883  : 		}
; 884  : 	}
; 885  : 	head=null;tail=null;

	mov	DWORD PTR [esi], 0
	mov	DWORD PTR [esi+4], 0
	pop	esi

; 886  : }

	ret	0
?free_list@?$XChain@VCSysObj@@@@QAEXXZ ENDP		; XChain<CSysObj>::free_list
_TEXT	ENDS
PUBLIC	?add_head@?$XChain@VCSysObj@@@@QAEPAVCSysObj@@PAV2@@Z ; XChain<CSysObj>::add_head
; Function compile flags: /Ogty
;	COMDAT ?add_head@?$XChain@VCSysObj@@@@QAEPAVCSysObj@@PAV2@@Z
_TEXT	SEGMENT
_ptr$ = 8
?add_head@?$XChain@VCSysObj@@@@QAEPAVCSysObj@@PAV2@@Z PROC NEAR ; XChain<CSysObj>::add_head, COMDAT
; _this$ = ecx

; 891  : 	ptr->next=head;

	mov	eax, DWORD PTR _ptr$[esp-4]
	mov	edx, DWORD PTR [ecx]
	mov	DWORD PTR [eax+4], edx

; 892  : 	ptr->prev=null;

	mov	DWORD PTR [eax+8], 0

; 893  : 	if (head)

	mov	edx, DWORD PTR [ecx]
	test	edx, edx
	je	SHORT $L56928

; 894  : 		head->prev=ptr;

	mov	DWORD PTR [edx+8], eax

; 897  : 	
; 898  : 	head=ptr;

	mov	DWORD PTR [ecx], eax

; 899  : 
; 900  : 	return head;
; 901  : }

	ret	4
$L56928:

; 895  : 	else
; 896  : 		tail=ptr;

	mov	DWORD PTR [ecx+4], eax

; 897  : 	
; 898  : 	head=ptr;

	mov	DWORD PTR [ecx], eax

; 899  : 
; 900  : 	return head;
; 901  : }

	ret	4
?add_head@?$XChain@VCSysObj@@@@QAEPAVCSysObj@@PAV2@@Z ENDP ; XChain<CSysObj>::add_head
_TEXT	ENDS
PUBLIC	?add_tail@?$XChain@VCSysObj@@@@QAEPAVCSysObj@@PAV2@@Z ; XChain<CSysObj>::add_tail
; Function compile flags: /Ogty
;	COMDAT ?add_tail@?$XChain@VCSysObj@@@@QAEPAVCSysObj@@PAV2@@Z
_TEXT	SEGMENT
_ptr$ = 8
?add_tail@?$XChain@VCSysObj@@@@QAEPAVCSysObj@@PAV2@@Z PROC NEAR ; XChain<CSysObj>::add_tail, COMDAT
; _this$ = ecx

; 906  : 	ptr->prev=tail;

	mov	eax, DWORD PTR _ptr$[esp-4]
	mov	edx, DWORD PTR [ecx+4]
	mov	DWORD PTR [eax+8], edx

; 907  : 	ptr->next=null;

	mov	DWORD PTR [eax+4], 0

; 908  : 	if (tail)

	mov	edx, DWORD PTR [ecx+4]
	test	edx, edx
	je	SHORT $L56934

; 909  : 		tail->next=ptr;

	mov	DWORD PTR [edx+4], eax

; 912  : 	
; 913  : 	tail=ptr;

	mov	DWORD PTR [ecx+4], eax

; 914  : 
; 915  : 	return tail;
; 916  : }

	ret	4
$L56934:

; 910  : 	else
; 911  : 		head=ptr;

	mov	DWORD PTR [ecx], eax

; 912  : 	
; 913  : 	tail=ptr;

	mov	DWORD PTR [ecx+4], eax

; 914  : 
; 915  : 	return tail;
; 916  : }

	ret	4
?add_tail@?$XChain@VCSysObj@@@@QAEPAVCSysObj@@PAV2@@Z ENDP ; XChain<CSysObj>::add_tail
_TEXT	ENDS
PUBLIC	?remove_head@?$XChain@VCSysObj@@@@QAEPAVCSysObj@@XZ ; XChain<CSysObj>::remove_head
; Function compile flags: /Ogty
;	COMDAT ?remove_head@?$XChain@VCSysObj@@@@QAEPAVCSysObj@@XZ
_TEXT	SEGMENT
?remove_head@?$XChain@VCSysObj@@@@QAEPAVCSysObj@@XZ PROC NEAR ; XChain<CSysObj>::remove_head, COMDAT
; _this$ = ecx

; 937  : 	if (!head)

	mov	eax, DWORD PTR [ecx]
	test	eax, eax
	jne	SHORT $L56940

; 947  : 
; 948  : 	return ret;
; 949  : }

	ret	0
$L56940:

; 938  : 		return null;
; 939  : 
; 940  : 	TYPE *ret=head;
; 941  : 
; 942  : 	head=head->next;

	mov	edx, DWORD PTR [eax+4]

; 943  : 	if (!head)

	test	edx, edx
	mov	DWORD PTR [ecx], edx
	jne	SHORT $L56942

; 944  : 		tail=null;

	mov	DWORD PTR [ecx+4], edx

; 947  : 
; 948  : 	return ret;
; 949  : }

	ret	0
$L56942:

; 945  : 	else
; 946  : 		head->prev=null;

	mov	DWORD PTR [edx+8], 0

; 947  : 
; 948  : 	return ret;
; 949  : }

	ret	0
?remove_head@?$XChain@VCSysObj@@@@QAEPAVCSysObj@@XZ ENDP ; XChain<CSysObj>::remove_head
_TEXT	ENDS
PUBLIC	?remove_tail@?$XChain@VCSysObj@@@@QAEPAVCSysObj@@XZ ; XChain<CSysObj>::remove_tail
; Function compile flags: /Ogty
;	COMDAT ?remove_tail@?$XChain@VCSysObj@@@@QAEPAVCSysObj@@XZ
_TEXT	SEGMENT
?remove_tail@?$XChain@VCSysObj@@@@QAEPAVCSysObj@@XZ PROC NEAR ; XChain<CSysObj>::remove_tail, COMDAT
; _this$ = ecx

; 954  : 	if (!tail)

	mov	eax, DWORD PTR [ecx+4]
	test	eax, eax
	jne	SHORT $L56948

; 964  : 
; 965  : 	return ret;
; 966  : }

	ret	0
$L56948:

; 955  : 		return null;
; 956  : 
; 957  : 	TYPE *ret=tail;
; 958  : 
; 959  : 	tail=tail->prev;

	mov	edx, DWORD PTR [eax+8]

; 960  : 	if (!tail)

	test	edx, edx
	mov	DWORD PTR [ecx+4], edx
	jne	SHORT $L56950

; 961  : 		head=null;

	mov	DWORD PTR [ecx], edx

; 964  : 
; 965  : 	return ret;
; 966  : }

	ret	0
$L56950:

; 962  : 	else
; 963  : 		tail->next=null;

	mov	DWORD PTR [edx+4], 0

; 964  : 
; 965  : 	return ret;
; 966  : }

	ret	0
?remove_tail@?$XChain@VCSysObj@@@@QAEPAVCSysObj@@XZ ENDP ; XChain<CSysObj>::remove_tail
_TEXT	ENDS
PUBLIC	?remove@?$XChain@VCSysObj@@@@QAEPAVCSysObj@@PAV2@@Z ; XChain<CSysObj>::remove
; Function compile flags: /Ogty
;	COMDAT ?remove@?$XChain@VCSysObj@@@@QAEPAVCSysObj@@PAV2@@Z
_TEXT	SEGMENT
_ptr$ = 8
?remove@?$XChain@VCSysObj@@@@QAEPAVCSysObj@@PAV2@@Z PROC NEAR ; XChain<CSysObj>::remove, COMDAT
; _this$ = ecx

; 921  : 	if (ptr->prev)

	mov	eax, DWORD PTR _ptr$[esp-4]
	mov	edx, DWORD PTR [eax+8]
	test	edx, edx
	je	SHORT $L56956
	push	esi

; 922  : 		ptr->prev->next=ptr->next;

	mov	esi, DWORD PTR [eax+4]
	mov	DWORD PTR [edx+4], esi
	pop	esi

; 923  : 	else

	jmp	SHORT $L56957
$L56956:

; 924  : 		head=ptr->next;

	mov	edx, DWORD PTR [eax+4]
	mov	DWORD PTR [ecx], edx
$L56957:

; 925  : 
; 926  : 	if (ptr->next)

	mov	edx, DWORD PTR [eax+4]
	test	edx, edx
	je	SHORT $L56958

; 927  : 		ptr->next->prev=ptr->prev;

	mov	ecx, DWORD PTR [eax+8]
	mov	DWORD PTR [edx+8], ecx

; 930  : 
; 931  : 	return ptr;
; 932  : }

	ret	4
$L56958:

; 928  : 	else
; 929  : 		tail=ptr->prev;

	mov	edx, DWORD PTR [eax+8]
	mov	DWORD PTR [ecx+4], edx

; 930  : 
; 931  : 	return ptr;
; 932  : }

	ret	4
?remove@?$XChain@VCSysObj@@@@QAEPAVCSysObj@@PAV2@@Z ENDP ; XChain<CSysObj>::remove
_TEXT	ENDS
PUBLIC	??_7XBufferReadInt@@6B@				; XBufferReadInt::`vftable'
PUBLIC	??_GXBufferReadInt@@UAEPAXI@Z			; XBufferReadInt::`scalar deleting destructor'
PUBLIC	??_EXBufferReadInt@@UAEPAXI@Z			; XBufferReadInt::`vector deleting destructor'
EXTRN	?read_direct@XBufferReadInt@@MAEKPAXKAAK@Z:NEAR	; XBufferReadInt::read_direct
;	COMDAT ??_7XBufferReadInt@@6B@
; File C:\duke4\xcore\xcore.h
CONST	SEGMENT
??_7XBufferReadInt@@6B@ DD FLAT:?read_direct@XBufferReadInt@@MAEKPAXKAAK@Z ; XBufferReadInt::`vftable'
	DD	FLAT:__purecall
	DD	FLAT:__purecall
	DD	FLAT:??_EXBufferReadInt@@UAEPAXI@Z
; Function compile flags: /Ogty
CONST	ENDS
;	COMDAT ??_GXBufferReadInt@@UAEPAXI@Z
_TEXT	SEGMENT
___flags$ = 8
??_GXBufferReadInt@@UAEPAXI@Z PROC NEAR			; XBufferReadInt::`scalar deleting destructor', COMDAT
; _this$ = ecx
	mov	al, BYTE PTR ___flags$[esp-4]
	push	esi
	mov	esi, ecx
	test	al, 1
	mov	DWORD PTR [esi], OFFSET FLAT:??_7XBufferReadInt@@6B@ ; XBufferReadInt::`vftable'
	je	SHORT $L57262
	call	@xfree@4
$L57262:
	mov	eax, esi
	pop	esi
	ret	4
??_GXBufferReadInt@@UAEPAXI@Z ENDP			; XBufferReadInt::`scalar deleting destructor'
_TEXT	ENDS
PUBLIC	??1XBufferReadInt@@UAE@XZ			; XBufferReadInt::~XBufferReadInt
EXTRN	??_M@YGXPAXIHP6EX0@Z@Z:NEAR			; `eh vector destructor iterator'
; Function compile flags: /Ogty
;	COMDAT ??_EXBufferReadInt@@UAEPAXI@Z
_TEXT	SEGMENT
___flags$ = 8
??_EXBufferReadInt@@UAEPAXI@Z PROC NEAR			; XBufferReadInt::`vector deleting destructor', COMDAT
; _this$ = ecx
	push	ebx
	mov	bl, BYTE PTR ___flags$[esp]
	push	esi
	mov	esi, ecx
	test	bl, 2
	je	SHORT $L56059
	mov	eax, DWORD PTR [esi-4]
	push	edi
	lea	edi, DWORD PTR [esi-4]
	push	OFFSET FLAT:??1XBufferReadInt@@UAE@XZ	; XBufferReadInt::~XBufferReadInt
	push	eax
	push	8
	push	esi
	call	??_M@YGXPAXIHP6EX0@Z@Z			; `eh vector destructor iterator'
	test	bl, 1
	je	SHORT $L57267
	mov	ecx, edi
	call	@xfree@4
$L57267:
	mov	eax, edi
	pop	edi
	pop	esi
	pop	ebx
	ret	4
$L56059:
	test	bl, 1
	mov	DWORD PTR [esi], OFFSET FLAT:??_7XBufferReadInt@@6B@ ; XBufferReadInt::`vftable'
	je	SHORT $L57273
	mov	ecx, esi
	call	@xfree@4
$L57273:
	mov	eax, esi
	pop	esi
	pop	ebx
	ret	4
??_EXBufferReadInt@@UAEPAXI@Z ENDP			; XBufferReadInt::`vector deleting destructor'
; Function compile flags: /Ogty
; File C:\duke4\xcore\xstream.h
_TEXT	ENDS
;	COMDAT ??1XBufferReadInt@@UAE@XZ
_TEXT	SEGMENT
??1XBufferReadInt@@UAE@XZ PROC NEAR			; XBufferReadInt::~XBufferReadInt, COMDAT
; _this$ = ecx

; 37   : 	virtual ~XBufferReadInt(void){}

	mov	DWORD PTR [ecx], OFFSET FLAT:??_7XBufferReadInt@@6B@ ; XBufferReadInt::`vftable'
	ret	0
??1XBufferReadInt@@UAE@XZ ENDP				; XBufferReadInt::~XBufferReadInt
_TEXT	ENDS
PUBLIC	??_7XBufferWriteInt@@6B@			; XBufferWriteInt::`vftable'
PUBLIC	??_GXBufferWriteInt@@UAEPAXI@Z			; XBufferWriteInt::`scalar deleting destructor'
PUBLIC	??_EXBufferWriteInt@@UAEPAXI@Z			; XBufferWriteInt::`vector deleting destructor'
EXTRN	?write_direct@XBufferWriteInt@@MAEKPBXKAAK@Z:NEAR ; XBufferWriteInt::write_direct
;	COMDAT ??_7XBufferWriteInt@@6B@
; File C:\duke4\xcore\xcore.h
CONST	SEGMENT
??_7XBufferWriteInt@@6B@ DD FLAT:?write_direct@XBufferWriteInt@@MAEKPBXKAAK@Z ; XBufferWriteInt::`vftable'
	DD	FLAT:__purecall
	DD	FLAT:__purecall
	DD	FLAT:__purecall
	DD	FLAT:??_EXBufferWriteInt@@UAEPAXI@Z
; Function compile flags: /Ogty
CONST	ENDS
;	COMDAT ??_GXBufferWriteInt@@UAEPAXI@Z
_TEXT	SEGMENT
___flags$ = 8
??_GXBufferWriteInt@@UAEPAXI@Z PROC NEAR		; XBufferWriteInt::`scalar deleting destructor', COMDAT
; _this$ = ecx
	mov	al, BYTE PTR ___flags$[esp-4]
	push	esi
	mov	esi, ecx
	test	al, 1
	mov	DWORD PTR [esi], OFFSET FLAT:??_7XBufferWriteInt@@6B@ ; XBufferWriteInt::`vftable'
	je	SHORT $L57284
	call	@xfree@4
$L57284:
	mov	eax, esi
	pop	esi
	ret	4
??_GXBufferWriteInt@@UAEPAXI@Z ENDP			; XBufferWriteInt::`scalar deleting destructor'
_TEXT	ENDS
PUBLIC	??1XBufferWriteInt@@UAE@XZ			; XBufferWriteInt::~XBufferWriteInt
; Function compile flags: /Ogty
;	COMDAT ??_EXBufferWriteInt@@UAEPAXI@Z
_TEXT	SEGMENT
___flags$ = 8
??_EXBufferWriteInt@@UAEPAXI@Z PROC NEAR		; XBufferWriteInt::`vector deleting destructor', COMDAT
; _this$ = ecx
	push	ebx
	mov	bl, BYTE PTR ___flags$[esp]
	push	esi
	mov	esi, ecx
	test	bl, 2
	je	SHORT $L56111
	mov	eax, DWORD PTR [esi-4]
	push	edi
	lea	edi, DWORD PTR [esi-4]
	push	OFFSET FLAT:??1XBufferWriteInt@@UAE@XZ	; XBufferWriteInt::~XBufferWriteInt
	push	eax
	push	8
	push	esi
	call	??_M@YGXPAXIHP6EX0@Z@Z			; `eh vector destructor iterator'
	test	bl, 1
	je	SHORT $L57289
	mov	ecx, edi
	call	@xfree@4
$L57289:
	mov	eax, edi
	pop	edi
	pop	esi
	pop	ebx
	ret	4
$L56111:
	test	bl, 1
	mov	DWORD PTR [esi], OFFSET FLAT:??_7XBufferWriteInt@@6B@ ; XBufferWriteInt::`vftable'
	je	SHORT $L57295
	mov	ecx, esi
	call	@xfree@4
$L57295:
	mov	eax, esi
	pop	esi
	pop	ebx
	ret	4
??_EXBufferWriteInt@@UAEPAXI@Z ENDP			; XBufferWriteInt::`vector deleting destructor'
; Function compile flags: /Ogty
; File C:\duke4\xcore\xstream.h
_TEXT	ENDS
;	COMDAT ??1XBufferWriteInt@@UAE@XZ
_TEXT	SEGMENT
??1XBufferWriteInt@@UAE@XZ PROC NEAR			; XBufferWriteInt::~XBufferWriteInt, COMDAT
; _this$ = ecx

; 56   : 	virtual ~XBufferWriteInt(void){}

	mov	DWORD PTR [ecx], OFFSET FLAT:??_7XBufferWriteInt@@6B@ ; XBufferWriteInt::`vftable'
	ret	0
??1XBufferWriteInt@@UAE@XZ ENDP				; XBufferWriteInt::~XBufferWriteInt
_TEXT	ENDS
PUBLIC	??1XStreamRdDirect@@UAE@XZ			; XStreamRdDirect::~XStreamRdDirect
PUBLIC	??_GXStreamRdDirect@@UAEPAXI@Z			; XStreamRdDirect::`scalar deleting destructor'
; Function compile flags: /Ogty
;	COMDAT ??_GXStreamRdDirect@@UAEPAXI@Z
_TEXT	SEGMENT
___flags$ = 8
??_GXStreamRdDirect@@UAEPAXI@Z PROC NEAR		; XStreamRdDirect::`scalar deleting destructor', COMDAT
; _this$ = ecx
	push	esi
	mov	esi, ecx
	call	??1XStreamRdDirect@@UAE@XZ		; XStreamRdDirect::~XStreamRdDirect
	test	BYTE PTR ___flags$[esp], 1
	je	SHORT $L57303
	mov	ecx, esi
	call	@xfree@4
$L57303:
	mov	eax, esi
	pop	esi
	ret	4
??_GXStreamRdDirect@@UAEPAXI@Z ENDP			; XStreamRdDirect::`scalar deleting destructor'
; Function compile flags: /Ogty
_TEXT	ENDS
;	COMDAT ??1XStreamRdDirect@@UAE@XZ
_TEXT	SEGMENT
??1XStreamRdDirect@@UAE@XZ PROC NEAR			; XStreamRdDirect::~XStreamRdDirect, COMDAT
; _this$ = ecx

; 71   : 	~XStreamRdDirect(void){}

	mov	DWORD PTR [ecx], OFFSET FLAT:??_7XBufferReadInt@@6B@ ; XBufferReadInt::`vftable'
	ret	0
??1XStreamRdDirect@@UAE@XZ ENDP				; XStreamRdDirect::~XStreamRdDirect
_TEXT	ENDS
PUBLIC	??_EXStreamRdDirect@@UAEPAXI@Z			; XStreamRdDirect::`vector deleting destructor'
; Function compile flags: /Ogty
;	COMDAT ??_EXStreamRdDirect@@UAEPAXI@Z
_TEXT	SEGMENT
___flags$ = 8
??_EXStreamRdDirect@@UAEPAXI@Z PROC NEAR		; XStreamRdDirect::`vector deleting destructor', COMDAT
; _this$ = ecx
	push	ebx
	mov	bl, BYTE PTR ___flags$[esp]
	push	esi
	mov	esi, ecx
	test	bl, 2
	je	SHORT $L56163
	mov	eax, DWORD PTR [esi-4]
	push	edi
	lea	edi, DWORD PTR [esi-4]
	push	OFFSET FLAT:??1XStreamRdDirect@@UAE@XZ	; XStreamRdDirect::~XStreamRdDirect
	push	eax
	push	8
	push	esi
	call	??_M@YGXPAXIHP6EX0@Z@Z			; `eh vector destructor iterator'
	test	bl, 1
	je	SHORT $L57314
	mov	ecx, edi
	call	@xfree@4
$L57314:
	mov	eax, edi
	pop	edi
	pop	esi
	pop	ebx
	ret	4
$L56163:
	mov	ecx, esi
	call	??1XStreamRdDirect@@UAE@XZ		; XStreamRdDirect::~XStreamRdDirect
	test	bl, 1
	je	SHORT $L57316
	mov	ecx, esi
	call	@xfree@4
$L57316:
	mov	eax, esi
	pop	esi
	pop	ebx
	ret	4
??_EXStreamRdDirect@@UAEPAXI@Z ENDP			; XStreamRdDirect::`vector deleting destructor'
_TEXT	ENDS
PUBLIC	??1XStreamWrDirect@@UAE@XZ			; XStreamWrDirect::~XStreamWrDirect
PUBLIC	??_GXStreamWrDirect@@UAEPAXI@Z			; XStreamWrDirect::`scalar deleting destructor'
; Function compile flags: /Ogty
;	COMDAT ??_GXStreamWrDirect@@UAEPAXI@Z
_TEXT	SEGMENT
___flags$ = 8
??_GXStreamWrDirect@@UAEPAXI@Z PROC NEAR		; XStreamWrDirect::`scalar deleting destructor', COMDAT
; _this$ = ecx
	push	esi
	mov	esi, ecx
	call	??1XStreamWrDirect@@UAE@XZ		; XStreamWrDirect::~XStreamWrDirect
	test	BYTE PTR ___flags$[esp], 1
	je	SHORT $L57323
	mov	ecx, esi
	call	@xfree@4
$L57323:
	mov	eax, esi
	pop	esi
	ret	4
??_GXStreamWrDirect@@UAEPAXI@Z ENDP			; XStreamWrDirect::`scalar deleting destructor'
; Function compile flags: /Ogty
_TEXT	ENDS
;	COMDAT ??1XStreamWrDirect@@UAE@XZ
_TEXT	SEGMENT
??1XStreamWrDirect@@UAE@XZ PROC NEAR			; XStreamWrDirect::~XStreamWrDirect, COMDAT
; _this$ = ecx

; 88   : 	~XStreamWrDirect(void){}

	mov	DWORD PTR [ecx], OFFSET FLAT:??_7XBufferWriteInt@@6B@ ; XBufferWriteInt::`vftable'
	ret	0
??1XStreamWrDirect@@UAE@XZ ENDP				; XStreamWrDirect::~XStreamWrDirect
_TEXT	ENDS
PUBLIC	??_EXStreamWrDirect@@UAEPAXI@Z			; XStreamWrDirect::`vector deleting destructor'
; Function compile flags: /Ogty
;	COMDAT ??_EXStreamWrDirect@@UAEPAXI@Z
_TEXT	SEGMENT
___flags$ = 8
??_EXStreamWrDirect@@UAEPAXI@Z PROC NEAR		; XStreamWrDirect::`vector deleting destructor', COMDAT
; _this$ = ecx
	push	ebx
	mov	bl, BYTE PTR ___flags$[esp]
	push	esi
	mov	esi, ecx
	test	bl, 2
	je	SHORT $L56219
	mov	eax, DWORD PTR [esi-4]
	push	edi
	lea	edi, DWORD PTR [esi-4]
	push	OFFSET FLAT:??1XStreamWrDirect@@UAE@XZ	; XStreamWrDirect::~XStreamWrDirect
	push	eax
	push	8
	push	esi
	call	??_M@YGXPAXIHP6EX0@Z@Z			; `eh vector destructor iterator'
	test	bl, 1
	je	SHORT $L57334
	mov	ecx, edi
	call	@xfree@4
$L57334:
	mov	eax, edi
	pop	edi
	pop	esi
	pop	ebx
	ret	4
$L56219:
	mov	ecx, esi
	call	??1XStreamWrDirect@@UAE@XZ		; XStreamWrDirect::~XStreamWrDirect
	test	bl, 1
	je	SHORT $L57336
	mov	ecx, esi
	call	@xfree@4
$L57336:
	mov	eax, esi
	pop	esi
	pop	ebx
	ret	4
??_EXStreamWrDirect@@UAEPAXI@Z ENDP			; XStreamWrDirect::`vector deleting destructor'
_TEXT	ENDS
PUBLIC	??1XMemRdBuffer@@UAE@XZ				; XMemRdBuffer::~XMemRdBuffer
PUBLIC	??_GXMemRdBuffer@@UAEPAXI@Z			; XMemRdBuffer::`scalar deleting destructor'
; Function compile flags: /Ogty
;	COMDAT ??_GXMemRdBuffer@@UAEPAXI@Z
_TEXT	SEGMENT
___flags$ = 8
??_GXMemRdBuffer@@UAEPAXI@Z PROC NEAR			; XMemRdBuffer::`scalar deleting destructor', COMDAT
; _this$ = ecx
	push	esi
	mov	esi, ecx
	call	??1XMemRdBuffer@@UAE@XZ			; XMemRdBuffer::~XMemRdBuffer
	test	BYTE PTR ___flags$[esp], 1
	je	SHORT $L57343
	mov	ecx, esi
	call	@xfree@4
$L57343:
	mov	eax, esi
	pop	esi
	ret	4
??_GXMemRdBuffer@@UAEPAXI@Z ENDP			; XMemRdBuffer::`scalar deleting destructor'
_TEXT	ENDS
PUBLIC	??_7XMemRdBuffer@@6B@				; XMemRdBuffer::`vftable'
PUBLIC	??_EXMemRdBuffer@@UAEPAXI@Z			; XMemRdBuffer::`vector deleting destructor'
EXTRN	?read@XMemRdBuffer@@UAEKPAXKAAK1@Z:NEAR		; XMemRdBuffer::read
EXTRN	?seek@XMemRdBuffer@@UAEKJ@Z:NEAR		; XMemRdBuffer::seek
;	COMDAT ??_7XMemRdBuffer@@6B@
CONST	SEGMENT
??_7XMemRdBuffer@@6B@ DD FLAT:?read_direct@XBufferReadInt@@MAEKPAXKAAK@Z ; XMemRdBuffer::`vftable'
	DD	FLAT:?read@XMemRdBuffer@@UAEKPAXKAAK1@Z
	DD	FLAT:?seek@XMemRdBuffer@@UAEKJ@Z
	DD	FLAT:??_EXMemRdBuffer@@UAEPAXI@Z
; Function compile flags: /Ogty
CONST	ENDS
;	COMDAT ??1XMemRdBuffer@@UAE@XZ
_TEXT	SEGMENT
??1XMemRdBuffer@@UAE@XZ PROC NEAR			; XMemRdBuffer::~XMemRdBuffer, COMDAT
; _this$ = ecx

; 109  : 	~XMemRdBuffer(void){}

	push	esi
	mov	esi, ecx
	mov	DWORD PTR [esi], OFFSET FLAT:??_7XMemRdBuffer@@6B@ ; XMemRdBuffer::`vftable'
	mov	ecx, DWORD PTR [esi+8]
	call	@xfree@4
	mov	DWORD PTR [esi+8], 0
	mov	DWORD PTR [esi], OFFSET FLAT:??_7XBufferReadInt@@6B@ ; XBufferReadInt::`vftable'
	pop	esi
	ret	0
??1XMemRdBuffer@@UAE@XZ ENDP				; XMemRdBuffer::~XMemRdBuffer
; Function compile flags: /Ogty
_TEXT	ENDS
;	COMDAT ??_EXMemRdBuffer@@UAEPAXI@Z
_TEXT	SEGMENT
___flags$ = 8
??_EXMemRdBuffer@@UAEPAXI@Z PROC NEAR			; XMemRdBuffer::`vector deleting destructor', COMDAT
; _this$ = ecx
	push	ebx
	mov	bl, BYTE PTR ___flags$[esp]
	push	esi
	mov	esi, ecx
	test	bl, 2
	je	SHORT $L56272
	mov	eax, DWORD PTR [esi-4]
	push	edi
	lea	edi, DWORD PTR [esi-4]
	push	OFFSET FLAT:??1XMemRdBuffer@@UAE@XZ	; XMemRdBuffer::~XMemRdBuffer
	push	eax
	push	24					; 00000018H
	push	esi
	call	??_M@YGXPAXIHP6EX0@Z@Z			; `eh vector destructor iterator'
	test	bl, 1
	je	SHORT $L57359
	mov	ecx, edi
	call	@xfree@4
$L57359:
	mov	eax, edi
	pop	edi
	pop	esi
	pop	ebx
	ret	4
$L56272:
	mov	ecx, esi
	call	??1XMemRdBuffer@@UAE@XZ			; XMemRdBuffer::~XMemRdBuffer
	test	bl, 1
	je	SHORT $L57361
	mov	ecx, esi
	call	@xfree@4
$L57361:
	mov	eax, esi
	pop	esi
	pop	ebx
	ret	4
??_EXMemRdBuffer@@UAEPAXI@Z ENDP			; XMemRdBuffer::`vector deleting destructor'
_TEXT	ENDS
END
