; Listing generated by Microsoft (R) Optimizing Compiler Version 12.00.8943.0 

	TITLE	C:\duke4\xcore\list.cpp
	.386P
include listing.inc
if @Version gt 510
.model FLAT
else
_TEXT	SEGMENT PARA USE32 PUBLIC 'CODE'
_TEXT	ENDS
_DATA	SEGMENT DWORD USE32 PUBLIC 'DATA'
_DATA	ENDS
CONST	SEGMENT DWORD USE32 PUBLIC 'CONST'
CONST	ENDS
_BSS	SEGMENT DWORD USE32 PUBLIC 'BSS'
_BSS	ENDS
$$SYMBOLS	SEGMENT BYTE USE32 'DEBSYM'
$$SYMBOLS	ENDS
_TLS	SEGMENT DWORD USE32 PUBLIC 'TLS'
_TLS	ENDS
;	COMDAT ??_C@_0BF@MBIJ@Cannot?5init?5CPrintfT?$AA@
_DATA	SEGMENT DWORD USE32 PUBLIC 'DATA'
_DATA	ENDS
drectve	SEGMENT DWORD USE32 PUBLIC ''
drectve	ENDS
;	COMDAT ??0?$XChain@VXStatistic@@@@QAE@XZ
_TEXT	SEGMENT PARA USE32 PUBLIC 'CODE'
_TEXT	ENDS
;	COMDAT ?get_head@?$XList@VXStatistic@@@@QAEPAVXStatistic@@XZ
_TEXT	SEGMENT PARA USE32 PUBLIC 'CODE'
_TEXT	ENDS
;	COMDAT ??0?$XChain@VCSysObj@@@@QAE@XZ
_TEXT	SEGMENT PARA USE32 PUBLIC 'CODE'
_TEXT	ENDS
;	COMDAT ??0?$XChain@VCSysObj@@@@QAE@K@Z
_TEXT	SEGMENT PARA USE32 PUBLIC 'CODE'
_TEXT	ENDS
;	COMDAT ?get_next@?$XChain@VCSysObj@@@@QAEPAVCSysObj@@PAV2@@Z
_TEXT	SEGMENT PARA USE32 PUBLIC 'CODE'
_TEXT	ENDS
;	COMDAT ?get_prev@?$XChain@VCSysObj@@@@QAEPAVCSysObj@@PAV2@@Z
_TEXT	SEGMENT PARA USE32 PUBLIC 'CODE'
_TEXT	ENDS
;	COMDAT ?get_head@?$XChain@VCSysObj@@@@QAEPAVCSysObj@@XZ
_TEXT	SEGMENT PARA USE32 PUBLIC 'CODE'
_TEXT	ENDS
;	COMDAT ?get_tail@?$XChain@VCSysObj@@@@QAEPAVCSysObj@@XZ
_TEXT	SEGMENT PARA USE32 PUBLIC 'CODE'
_TEXT	ENDS
;	COMDAT ??1?$XChain@VXStatistic@@@@QAE@XZ
_TEXT	SEGMENT PARA USE32 PUBLIC 'CODE'
_TEXT	ENDS
;	COMDAT ?free_list@?$XChain@VXStatistic@@@@QAEXXZ
_TEXT	SEGMENT PARA USE32 PUBLIC 'CODE'
_TEXT	ENDS
;	COMDAT ??0?$XList@VXStatistic@@@@QAE@XZ
_TEXT	SEGMENT PARA USE32 PUBLIC 'CODE'
_TEXT	ENDS
;	COMDAT ??1?$XList@VXStatistic@@@@QAE@XZ
_TEXT	SEGMENT PARA USE32 PUBLIC 'CODE'
_TEXT	ENDS
;	COMDAT ?free_list@?$XList@VXStatistic@@@@QAEXXZ
_TEXT	SEGMENT PARA USE32 PUBLIC 'CODE'
_TEXT	ENDS
;	COMDAT ?add_head@?$XList@VXStatistic@@@@QAEPAU_XPos@@PAVXStatistic@@@Z
_TEXT	SEGMENT PARA USE32 PUBLIC 'CODE'
_TEXT	ENDS
;	COMDAT ?remove_head@?$XList@VXStatistic@@@@QAEPAVXStatistic@@XZ
_TEXT	SEGMENT PARA USE32 PUBLIC 'CODE'
_TEXT	ENDS
;	COMDAT ??1?$XChain@VCSysObj@@@@QAE@XZ
_TEXT	SEGMENT PARA USE32 PUBLIC 'CODE'
_TEXT	ENDS
;	COMDAT ?lose_list@?$XChain@VCSysObj@@@@QAEXXZ
_TEXT	SEGMENT PARA USE32 PUBLIC 'CODE'
_TEXT	ENDS
;	COMDAT ?free_list@?$XChain@VCSysObj@@@@QAEXXZ
_TEXT	SEGMENT PARA USE32 PUBLIC 'CODE'
_TEXT	ENDS
;	COMDAT ?add_head@?$XChain@VCSysObj@@@@QAEPAVCSysObj@@PAV2@@Z
_TEXT	SEGMENT PARA USE32 PUBLIC 'CODE'
_TEXT	ENDS
;	COMDAT ?add_tail@?$XChain@VCSysObj@@@@QAEPAVCSysObj@@PAV2@@Z
_TEXT	SEGMENT PARA USE32 PUBLIC 'CODE'
_TEXT	ENDS
;	COMDAT ?remove_head@?$XChain@VCSysObj@@@@QAEPAVCSysObj@@XZ
_TEXT	SEGMENT PARA USE32 PUBLIC 'CODE'
_TEXT	ENDS
;	COMDAT ?remove_tail@?$XChain@VCSysObj@@@@QAEPAVCSysObj@@XZ
_TEXT	SEGMENT PARA USE32 PUBLIC 'CODE'
_TEXT	ENDS
;	COMDAT ?remove@?$XChain@VCSysObj@@@@QAEPAVCSysObj@@PAV2@@Z
_TEXT	SEGMENT PARA USE32 PUBLIC 'CODE'
_TEXT	ENDS
;	COMDAT ??1?$XList@PAX@@QAE@XZ
_TEXT	SEGMENT PARA USE32 PUBLIC 'CODE'
_TEXT	ENDS
;	COMDAT ??0?$XRcBase@VCStrObj@@@@QAE@ABV0@@Z
_TEXT	SEGMENT PARA USE32 PUBLIC 'CODE'
_TEXT	ENDS
;	COMDAT ??0?$XRcBase@VCStrObj@@@@QAE@XZ
_TEXT	SEGMENT PARA USE32 PUBLIC 'CODE'
_TEXT	ENDS
;	COMDAT ??1?$XRcBase@VCStrObj@@@@QAE@XZ
_TEXT	SEGMENT PARA USE32 PUBLIC 'CODE'
_TEXT	ENDS
;	COMDAT ??4?$XRcBase@VCStrObj@@@@QAEAAV0@ABV0@@Z
_TEXT	SEGMENT PARA USE32 PUBLIC 'CODE'
_TEXT	ENDS
;	COMDAT ??0?$XRcPtr@VCPathObj@@@@QAE@ABV0@@Z
_TEXT	SEGMENT PARA USE32 PUBLIC 'CODE'
_TEXT	ENDS
;	COMDAT ??0?$XRcPtr@VCPathObj@@@@QAE@XZ
_TEXT	SEGMENT PARA USE32 PUBLIC 'CODE'
_TEXT	ENDS
;	COMDAT ??1?$XRcPtr@VCPathObj@@@@QAE@XZ
_TEXT	SEGMENT PARA USE32 PUBLIC 'CODE'
_TEXT	ENDS
;	COMDAT ??4?$XRcPtr@VCPathObj@@@@QAEAAV0@ABV0@@Z
_TEXT	SEGMENT PARA USE32 PUBLIC 'CODE'
_TEXT	ENDS
;	COMDAT ??0?$XList@VXFindLevel@@@@QAE@XZ
_TEXT	SEGMENT PARA USE32 PUBLIC 'CODE'
_TEXT	ENDS
;	COMDAT ??1?$XList@VXFindLevel@@@@QAE@XZ
_TEXT	SEGMENT PARA USE32 PUBLIC 'CODE'
_TEXT	ENDS
;	COMDAT ??_GCSysObj@@QAEPAXI@Z
_TEXT	SEGMENT PARA USE32 PUBLIC 'CODE'
_TEXT	ENDS
;	COMDAT ??_GXFindLevel@@QAEPAXI@Z
_TEXT	SEGMENT PARA USE32 PUBLIC 'CODE'
_TEXT	ENDS
;	COMDAT ?new_node@?$XList@VXStatistic@@@@IAEPAUXNode@1@XZ
_TEXT	SEGMENT PARA USE32 PUBLIC 'CODE'
_TEXT	ENDS
;	COMDAT ?free_nodes@?$XList@VXStatistic@@@@IAEXXZ
_TEXT	SEGMENT PARA USE32 PUBLIC 'CODE'
_TEXT	ENDS
;	COMDAT ?free_nodes@?$XList@PAX@@IAEXXZ
_TEXT	SEGMENT PARA USE32 PUBLIC 'CODE'
_TEXT	ENDS
;	COMDAT ?free_nodes@?$XList@VXFindLevel@@@@IAEXXZ
_TEXT	SEGMENT PARA USE32 PUBLIC 'CODE'
_TEXT	ENDS
;	COMDAT ?AddRef@?$XRcBase@VCStrObj@@@@QAEXXZ
_TEXT	SEGMENT PARA USE32 PUBLIC 'CODE'
_TEXT	ENDS
;	COMDAT ?DelRef@?$XRcBase@VCStrObj@@@@QAEXXZ
_TEXT	SEGMENT PARA USE32 PUBLIC 'CODE'
_TEXT	ENDS
;	COMDAT ?AddRef@?$XRcPtr@VCPathObj@@@@QAEXXZ
_TEXT	SEGMENT PARA USE32 PUBLIC 'CODE'
_TEXT	ENDS
;	COMDAT ?DelRef@?$XRcPtr@VCPathObj@@@@QAEXXZ
_TEXT	SEGMENT PARA USE32 PUBLIC 'CODE'
_TEXT	ENDS
;	COMDAT ??_GCStrObj@@QAEPAXI@Z
_TEXT	SEGMENT PARA USE32 PUBLIC 'CODE'
_TEXT	ENDS
;	COMDAT ??_GCPathObj@@QAEPAXI@Z
_TEXT	SEGMENT PARA USE32 PUBLIC 'CODE'
_TEXT	ENDS
;	COMDAT ??_GXStreamWrDirect@@UAEPAXI@Z
_TEXT	SEGMENT PARA USE32 PUBLIC 'CODE'
_TEXT	ENDS
;	COMDAT ??1XStreamWrDirect@@UAE@XZ
_TEXT	SEGMENT PARA USE32 PUBLIC 'CODE'
_TEXT	ENDS
;	COMDAT ??_7XStreamWrDirect@@6B@
CONST	SEGMENT DWORD USE32 PUBLIC 'CONST'
CONST	ENDS
;	COMDAT ??1XBufferWriteInt@@UAE@XZ
_TEXT	SEGMENT PARA USE32 PUBLIC 'CODE'
_TEXT	ENDS
;	COMDAT ??_7XBufferWriteInt@@6B@
CONST	SEGMENT DWORD USE32 PUBLIC 'CONST'
CONST	ENDS
;	COMDAT ??3XStreamWrDirect@@SAXPAX@Z
_TEXT	SEGMENT PARA USE32 PUBLIC 'CODE'
_TEXT	ENDS
;	COMDAT ??_EXStreamWrDirect@@UAEPAXI@Z
_TEXT	SEGMENT PARA USE32 PUBLIC 'CODE'
_TEXT	ENDS
;	COMDAT ?flush@XStreamWrDirect@@UAEKXZ
_TEXT	SEGMENT PARA USE32 PUBLIC 'CODE'
_TEXT	ENDS
;	COMDAT ?seek@XStreamWrDirect@@UAEKJ@Z
_TEXT	SEGMENT PARA USE32 PUBLIC 'CODE'
_TEXT	ENDS
;	COMDAT ??_GXStreamRdDirect@@UAEPAXI@Z
_TEXT	SEGMENT PARA USE32 PUBLIC 'CODE'
_TEXT	ENDS
;	COMDAT ??1XStreamRdDirect@@UAE@XZ
_TEXT	SEGMENT PARA USE32 PUBLIC 'CODE'
_TEXT	ENDS
;	COMDAT ??_7XStreamRdDirect@@6B@
CONST	SEGMENT DWORD USE32 PUBLIC 'CONST'
CONST	ENDS
;	COMDAT ??1XBufferReadInt@@UAE@XZ
_TEXT	SEGMENT PARA USE32 PUBLIC 'CODE'
_TEXT	ENDS
;	COMDAT ??_7XBufferReadInt@@6B@
CONST	SEGMENT DWORD USE32 PUBLIC 'CONST'
CONST	ENDS
;	COMDAT ??3XStreamRdDirect@@SAXPAX@Z
_TEXT	SEGMENT PARA USE32 PUBLIC 'CODE'
_TEXT	ENDS
;	COMDAT ??_EXStreamRdDirect@@UAEPAXI@Z
_TEXT	SEGMENT PARA USE32 PUBLIC 'CODE'
_TEXT	ENDS
;	COMDAT ?seek@XStreamRdDirect@@UAEKJ@Z
_TEXT	SEGMENT PARA USE32 PUBLIC 'CODE'
_TEXT	ENDS
;	COMDAT ?base_init@XFile@@EAEXXZ
_TEXT	SEGMENT PARA USE32 PUBLIC 'CODE'
_TEXT	ENDS
;	COMDAT ??4autochar@@QAEAAV0@PAD@Z
_TEXT	SEGMENT PARA USE32 PUBLIC 'CODE'
_TEXT	ENDS
;	COMDAT ??_GXBufferWriteInt@@UAEPAXI@Z
_TEXT	SEGMENT PARA USE32 PUBLIC 'CODE'
_TEXT	ENDS
;	COMDAT ??_EXBufferWriteInt@@UAEPAXI@Z
_TEXT	SEGMENT PARA USE32 PUBLIC 'CODE'
_TEXT	ENDS
;	COMDAT ??_GXBufferReadInt@@UAEPAXI@Z
_TEXT	SEGMENT PARA USE32 PUBLIC 'CODE'
_TEXT	ENDS
;	COMDAT ??_EXBufferReadInt@@UAEPAXI@Z
_TEXT	SEGMENT PARA USE32 PUBLIC 'CODE'
_TEXT	ENDS
;	COMDAT ?pos_wr@CBaseStream@@UAEXKK@Z
_TEXT	SEGMENT PARA USE32 PUBLIC 'CODE'
_TEXT	ENDS
;	COMDAT ?pos_rd@CBaseStream@@UAEXKK@Z
_TEXT	SEGMENT PARA USE32 PUBLIC 'CODE'
_TEXT	ENDS
;	COMDAT ?put@CBaseStream@@UAEKD@Z
_TEXT	SEGMENT PARA USE32 PUBLIC 'CODE'
_TEXT	ENDS
;	COMDAT ?ioctl_write@CBaseStream@@UAEKKK@Z
_TEXT	SEGMENT PARA USE32 PUBLIC 'CODE'
_TEXT	ENDS
;	COMDAT ?ioctl_read@CBaseStream@@UAEKKK@Z
_TEXT	SEGMENT PARA USE32 PUBLIC 'CODE'
_TEXT	ENDS
;	COMDAT ?seek_int@CBaseStream@@MAEJXZ
_TEXT	SEGMENT PARA USE32 PUBLIC 'CODE'
_TEXT	ENDS
;	COMDAT ??_GXMemRdBuffer@@UAEPAXI@Z
_TEXT	SEGMENT PARA USE32 PUBLIC 'CODE'
_TEXT	ENDS
;	COMDAT ??1XMemRdBuffer@@UAE@XZ
_TEXT	SEGMENT PARA USE32 PUBLIC 'CODE'
_TEXT	ENDS
;	COMDAT ??_7XMemRdBuffer@@6B@
CONST	SEGMENT DWORD USE32 PUBLIC 'CONST'
CONST	ENDS
;	COMDAT ??1autochar@@QAE@XZ
_TEXT	SEGMENT PARA USE32 PUBLIC 'CODE'
_TEXT	ENDS
;	COMDAT ??3XMemRdBuffer@@SAXPAX@Z
_TEXT	SEGMENT PARA USE32 PUBLIC 'CODE'
_TEXT	ENDS
;	COMDAT ??_EXMemRdBuffer@@UAEPAXI@Z
_TEXT	SEGMENT PARA USE32 PUBLIC 'CODE'
_TEXT	ENDS
;	COMDAT ??3CStrObj@@SAXPAX@Z
_TEXT	SEGMENT PARA USE32 PUBLIC 'CODE'
_TEXT	ENDS
;	COMDAT ??1CStrObj@@QAE@XZ
_TEXT	SEGMENT PARA USE32 PUBLIC 'CODE'
_TEXT	ENDS
;	COMDAT ??1XFindLevel@@QAE@XZ
_TEXT	SEGMENT PARA USE32 PUBLIC 'CODE'
_TEXT	ENDS
;	COMDAT ??1CSysObj@@QAE@XZ
_TEXT	SEGMENT PARA USE32 PUBLIC 'CODE'
_TEXT	ENDS
;	COMDAT ??_7CSysObj@@6B@
CONST	SEGMENT DWORD USE32 PUBLIC 'CONST'
CONST	ENDS
;	COMDAT ??3@YAXPAX@Z
_TEXT	SEGMENT PARA USE32 PUBLIC 'CODE'
_TEXT	ENDS
;	COMDAT ??0XListState@@QAE@XZ
_TEXT	SEGMENT PARA USE32 PUBLIC 'CODE'
_TEXT	ENDS
;	COMDAT ??3XStatistic@@SAXPAX@Z
_TEXT	SEGMENT PARA USE32 PUBLIC 'CODE'
_TEXT	ENDS
;	COMDAT ??0XChainState@@QAE@K@Z
_TEXT	SEGMENT PARA USE32 PUBLIC 'CODE'
_TEXT	ENDS
;	COMDAT ??0XChainState@@QAE@XZ
_TEXT	SEGMENT PARA USE32 PUBLIC 'CODE'
_TEXT	ENDS
FLAT	GROUP _DATA, CONST, _BSS, drectve
	ASSUME	CS: FLAT, DS: FLAT, SS: FLAT
endif

INCLUDELIB MSVCRT
INCLUDELIB OLDNAMES

drectve	SEGMENT
$SG56785 DB	'-INCLUDE:___@@_PchSym_@00@UwfpvEUcxlivUlyqUhgwxlivOlyq@', 00H
drectve	ENDS
PUBLIC	@xlist_new_node@8
EXTRN	@xmalloc@4:NEAR
; Function compile flags: /Ogty
; File C:\duke4\xcore\list.cpp
_TEXT	SEGMENT
@xlist_new_node@8 PROC NEAR
; __This$ = ecx
; _xnode_size$ = edx

; 20   : {

	push	ebx
	push	esi
	push	edi
	mov	edi, ecx
	mov	ebx, edx

; 21   : 	XListData *This=(XListData *)_This;
; 22   : 	I32 num=This->xlist_state.block_size;

	mov	esi, DWORD PTR [edi+16]
	and	esi, 16777215				; 00ffffffH

; 23   : 
; 24   : 	XNodeBlock *block=(XNodeBlock *)(xmalloc(sizeof(XNodeBlock) + (xnode_size * num)));

	mov	ecx, esi
	imul	ecx, ebx
	add	ecx, 4
	call	@xmalloc@4

; 25   : 	/* add to chain of blocks */
; 26   : 	block->next=This->block;

	mov	ecx, DWORD PTR [edi+12]
	mov	DWORD PTR [eax], ecx

; 27   : 	This->block=block;

	mov	DWORD PTR [edi+12], eax

; 28   : 
; 29   : 	XPosList *first=(XPosList *)(block+1);

	add	eax, 4

; 30   : 	XPosList *node=first;
; 31   : 	/* setup free Nodes */
; 32   : 	while(--num)

	dec	esi
	mov	ecx, eax
	je	SHORT $L56829
$L56828:

; 33   : 	{
; 34   : 		XPosList *next=(XPosList *)(((U32)node)+xnode_size);

	lea	edx, DWORD PTR [ecx+ebx]
	dec	esi

; 35   : 
; 36   : 		node->next=next;

	mov	DWORD PTR [ecx], edx

; 37   : 		node=next;

	mov	ecx, edx
	jne	SHORT $L56828
$L56829:

; 38   : 	}
; 39   : 	/* last Node points to nuthin */
; 40   : 	node->next=null;

	mov	DWORD PTR [ecx], 0

; 41   : 	/* attach free nodes to list */
; 42   : 	D_ASSERT(!(This->free));
; 43   : 	This->free=first->next;

	mov	edx, DWORD PTR [eax]
	mov	DWORD PTR [edi+8], edx
	pop	edi
	pop	esi
	pop	ebx

; 44   : 	return first;
; 45   : }

	ret	0
@xlist_new_node@8 ENDP
_TEXT	ENDS
PUBLIC	@xlist_free_nodes@4
EXTRN	@xfree@4:NEAR
; Function compile flags: /Ogty
_TEXT	SEGMENT
@xlist_free_nodes@4 PROC NEAR
; __This$ = ecx

; 48   : {

	push	ebx
	push	edi
	mov	edi, ecx

; 49   : 	XListData *This=(XListData *)_This;
; 50   : 
; 51   : 	XNodeBlock *block=This->block;
; 52   : 
; 53   : 	while(block)

	xor	ebx, ebx
	mov	ecx, DWORD PTR [edi+12]
	cmp	ecx, ebx
	je	SHORT $L57277
	push	esi
$L56840:

; 54   : 	{
; 55   : 		XNodeBlock *next;
; 56   : 
; 57   : 		next=block->next;

	mov	esi, DWORD PTR [ecx]

; 58   : 		xfree(block);

	call	@xfree@4
	cmp	esi, ebx

; 59   : 		block=next;

	mov	ecx, esi
	jne	SHORT $L56840
	pop	esi
$L57277:

; 60   : 	}
; 61   : 	This->block=null;

	mov	DWORD PTR [edi+12], ebx

; 62   : 	This->free=null;

	mov	DWORD PTR [edi+8], ebx
	pop	edi
	pop	ebx

; 63   : }

	ret	0
@xlist_free_nodes@4 ENDP
_TEXT	ENDS
PUBLIC	@xtree_new_node@8
; Function compile flags: /Ogty
_TEXT	SEGMENT
@xtree_new_node@8 PROC NEAR
; __This$ = ecx
; _xnode_size$ = edx

; 112  : {

	push	ebx
	push	esi
	mov	esi, ecx
	push	edi
	mov	ebx, edx

; 113  : 	D_ASSERT(_This);
; 114  : 
; 115  : 	XTreeData *This=(XTreeData *)_This;
; 116  : 	I32 num=This->block_size;

	mov	edi, DWORD PTR [esi+12]

; 117  : 
; 118  : 	XNodeBlock *block=(XNodeBlock *)(xmalloc(sizeof(XTreeNode) + (xnode_size * num)));

	mov	ecx, edi
	imul	ecx, ebx
	add	ecx, 20					; 00000014H
	call	@xmalloc@4

; 119  : 	/* add to chain of blocks */
; 120  : 	block->next=This->block;

	mov	ecx, DWORD PTR [esi+8]
	mov	DWORD PTR [eax], ecx

; 121  : 	This->block=block;

	mov	DWORD PTR [esi+8], eax

; 122  : 
; 123  : 	XFreeNode *first=(XFreeNode *)(block+1);

	add	eax, 4

; 124  : 	XFreeNode *node=first;
; 125  : 	/* setup free Nodes */
; 126  : 	while(--num)

	dec	edi
	mov	ecx, eax
	je	SHORT $L56909
$L56908:

; 127  : 	{
; 128  : 		XFreeNode *next=(XFreeNode *)(((U32)node)+xnode_size);

	lea	edx, DWORD PTR [ecx+ebx]
	dec	edi

; 129  : 
; 130  : 		node->next=next;

	mov	DWORD PTR [ecx+16], edx

; 131  : 		node=next;

	mov	ecx, edx
	jne	SHORT $L56908
$L56909:

; 132  : 	}
; 133  : 	/* last Node points to nuthin */
; 134  : 	node->next=null;

	mov	DWORD PTR [ecx+16], 0

; 135  : 	/* attach free nodes to list */
; 136  : 	D_ASSERT(!(This->free));
; 137  : 	This->free=first->next;

	mov	edx, DWORD PTR [eax+16]
	mov	DWORD PTR [esi+4], edx
	pop	edi
	pop	esi
	pop	ebx

; 138  : 	return first;
; 139  : }

	ret	0
@xtree_new_node@8 ENDP
_TEXT	ENDS
PUBLIC	@xtree_free_nodes@4
; Function compile flags: /Ogty
_TEXT	SEGMENT
@xtree_free_nodes@4 PROC NEAR
; __This$ = ecx

; 142  : {

	push	ebx
	push	edi
	mov	edi, ecx

; 143  : 	D_ASSERT(_This);
; 144  : 
; 145  : 	XTreeData *This=(XTreeData *)_This;
; 146  : 
; 147  : 	XNodeBlock *block=This->block;
; 148  : 
; 149  : 	while(block)

	xor	ebx, ebx
	mov	ecx, DWORD PTR [edi+8]
	cmp	ecx, ebx
	je	SHORT $L57284
	push	esi
$L56920:

; 150  : 	{
; 151  : 		XNodeBlock *next;
; 152  : 
; 153  : 		next=block->next;

	mov	esi, DWORD PTR [ecx]

; 154  : 		xfree(block);

	call	@xfree@4
	cmp	esi, ebx

; 155  : 		block=next;

	mov	ecx, esi
	jne	SHORT $L56920
	pop	esi
$L57284:

; 156  : 	}
; 157  : 	This->block=null;

	mov	DWORD PTR [edi+8], ebx

; 158  : 	This->free=null;

	mov	DWORD PTR [edi+4], ebx
	pop	edi
	pop	ebx

; 159  : }

	ret	0
@xtree_free_nodes@4 ENDP
_TEXT	ENDS
PUBLIC	??0?$XChain@VCSysObj@@@@QAE@XZ			; XChain<CSysObj>::XChain<CSysObj>
; Function compile flags: /Ogty
; File C:\duke4\xcore\xclass.h
;	COMDAT ??0?$XChain@VCSysObj@@@@QAE@XZ
_TEXT	SEGMENT
??0?$XChain@VCSysObj@@@@QAE@XZ PROC NEAR		; XChain<CSysObj>::XChain<CSysObj>, COMDAT
; _this$ = ecx

; 830  : 	XChain(void) : head(null),tail(null) {}

	mov	eax, ecx
	xor	ecx, ecx
	mov	DWORD PTR [eax], ecx
	mov	DWORD PTR [eax+4], ecx
	mov	DWORD PTR [eax+8], ecx
	ret	0
??0?$XChain@VCSysObj@@@@QAE@XZ ENDP			; XChain<CSysObj>::XChain<CSysObj>
_TEXT	ENDS
PUBLIC	??0?$XChain@VCSysObj@@@@QAE@K@Z			; XChain<CSysObj>::XChain<CSysObj>
; Function compile flags: /Ogty
;	COMDAT ??0?$XChain@VCSysObj@@@@QAE@K@Z
_TEXT	SEGMENT
_owned$ = 8
??0?$XChain@VCSysObj@@@@QAE@K@Z PROC NEAR		; XChain<CSysObj>::XChain<CSysObj>, COMDAT
; _this$ = ecx

; 831  : 	XChain(U32 owned) : head(null),tail(null),xchain_state(owned) {}

	mov	eax, ecx
	mov	ecx, DWORD PTR _owned$[esp-4]
	shl	ecx, 31					; 0000001fH
	and	ecx, -2147483648			; 80000000H
	mov	DWORD PTR [eax], 0
	mov	DWORD PTR [eax+4], 0
	mov	DWORD PTR [eax+8], ecx
	ret	4
??0?$XChain@VCSysObj@@@@QAE@K@Z ENDP			; XChain<CSysObj>::XChain<CSysObj>
_TEXT	ENDS
PUBLIC	?get_next@?$XChain@VCSysObj@@@@QAEPAVCSysObj@@PAV2@@Z ; XChain<CSysObj>::get_next
; Function compile flags: /Ogty
;	COMDAT ?get_next@?$XChain@VCSysObj@@@@QAEPAVCSysObj@@PAV2@@Z
_TEXT	SEGMENT
_ptr$ = 8
?get_next@?$XChain@VCSysObj@@@@QAEPAVCSysObj@@PAV2@@Z PROC NEAR ; XChain<CSysObj>::get_next, COMDAT
; _this$ = ecx

; 840  : 	TYPE *get_next(TYPE *ptr){return ptr->next;}

	mov	eax, DWORD PTR _ptr$[esp-4]
	mov	eax, DWORD PTR [eax+4]
	ret	4
?get_next@?$XChain@VCSysObj@@@@QAEPAVCSysObj@@PAV2@@Z ENDP ; XChain<CSysObj>::get_next
_TEXT	ENDS
PUBLIC	?get_prev@?$XChain@VCSysObj@@@@QAEPAVCSysObj@@PAV2@@Z ; XChain<CSysObj>::get_prev
; Function compile flags: /Ogty
;	COMDAT ?get_prev@?$XChain@VCSysObj@@@@QAEPAVCSysObj@@PAV2@@Z
_TEXT	SEGMENT
_ptr$ = 8
?get_prev@?$XChain@VCSysObj@@@@QAEPAVCSysObj@@PAV2@@Z PROC NEAR ; XChain<CSysObj>::get_prev, COMDAT
; _this$ = ecx

; 841  : 	TYPE *get_prev(TYPE *ptr){return ptr->prev;}

	mov	eax, DWORD PTR _ptr$[esp-4]
	mov	eax, DWORD PTR [eax+8]
	ret	4
?get_prev@?$XChain@VCSysObj@@@@QAEPAVCSysObj@@PAV2@@Z ENDP ; XChain<CSysObj>::get_prev
_TEXT	ENDS
PUBLIC	?get_head@?$XChain@VCSysObj@@@@QAEPAVCSysObj@@XZ ; XChain<CSysObj>::get_head
; Function compile flags: /Ogty
;	COMDAT ?get_head@?$XChain@VCSysObj@@@@QAEPAVCSysObj@@XZ
_TEXT	SEGMENT
?get_head@?$XChain@VCSysObj@@@@QAEPAVCSysObj@@XZ PROC NEAR ; XChain<CSysObj>::get_head, COMDAT
; _this$ = ecx

; 847  : 	inline TYPE *get_head(void){return head;}

	mov	eax, DWORD PTR [ecx]
	ret	0
?get_head@?$XChain@VCSysObj@@@@QAEPAVCSysObj@@XZ ENDP	; XChain<CSysObj>::get_head
_TEXT	ENDS
PUBLIC	?get_tail@?$XChain@VCSysObj@@@@QAEPAVCSysObj@@XZ ; XChain<CSysObj>::get_tail
; Function compile flags: /Ogty
;	COMDAT ?get_tail@?$XChain@VCSysObj@@@@QAEPAVCSysObj@@XZ
_TEXT	SEGMENT
?get_tail@?$XChain@VCSysObj@@@@QAEPAVCSysObj@@XZ PROC NEAR ; XChain<CSysObj>::get_tail, COMDAT
; _this$ = ecx

; 848  : 	inline TYPE *get_tail(void){return tail;}

	mov	eax, DWORD PTR [ecx+4]
	ret	0
?get_tail@?$XChain@VCSysObj@@@@QAEPAVCSysObj@@XZ ENDP	; XChain<CSysObj>::get_tail
_TEXT	ENDS
PUBLIC	??3@YAXPAX@Z					; operator delete
; Function compile flags: /Ogty
; File C:\duke4\xcore\xcore.h
;	COMDAT ??3@YAXPAX@Z
_TEXT	SEGMENT
_ptr$ = 8
??3@YAXPAX@Z PROC NEAR					; operator delete, COMDAT

; 130  : __inline void operator delete(void *ptr){xfree(ptr);}

	mov	ecx, DWORD PTR _ptr$[esp-4]
	jmp	@xfree@4
??3@YAXPAX@Z ENDP					; operator delete
_TEXT	ENDS
PUBLIC	??1?$XChain@VCSysObj@@@@QAE@XZ			; XChain<CSysObj>::~XChain<CSysObj>
PUBLIC	??_7CSysObj@@6B@				; CSysObj::`vftable'
EXTRN	__purecall:NEAR
EXTRN	?_global@@3PAVXGlobal@@A:DWORD			; _global
EXTRN	?unreg_global_object@XGlobal@@QAEXPAVCSysObj@@@Z:NEAR ; XGlobal::unreg_global_object
;	COMDAT ??_7CSysObj@@6B@
CONST	SEGMENT
??_7CSysObj@@6B@ DD FLAT:__purecall			; CSysObj::`vftable'
; Function compile flags: /Ogty
; File C:\duke4\xcore\xclass.h
CONST	ENDS
;	COMDAT ??1?$XChain@VCSysObj@@@@QAE@XZ
_TEXT	SEGMENT
??1?$XChain@VCSysObj@@@@QAE@XZ PROC NEAR		; XChain<CSysObj>::~XChain<CSysObj>, COMDAT
; _this$ = ecx

; 853  : {

	push	esi
	mov	esi, ecx

; 854  : 	if (xchain_state.owned)

	mov	eax, DWORD PTR [esi+8]
	test	eax, eax
	jns	SHORT $L57329

; 855  : 	{
; 856  : 		while(head)

	cmp	DWORD PTR [esi], 0
	je	SHORT $L57329
	push	ebx
	push	edi
$L57008:

; 857  : 		{
; 858  : 			TYPE *tmp=(TYPE *)head->next;

	mov	eax, DWORD PTR [esi]

; 859  : 			delete head;

	mov	edi, eax
	mov	ebx, DWORD PTR [eax+4]
	test	edi, edi
	je	SHORT $L57310
	mov	DWORD PTR [edi], OFFSET FLAT:??_7CSysObj@@6B@ ; CSysObj::`vftable'
	mov	ecx, DWORD PTR ?_global@@3PAVXGlobal@@A	; _global
	push	edi
	call	?unreg_global_object@XGlobal@@QAEXPAVCSysObj@@@Z ; XGlobal::unreg_global_object
	mov	ecx, edi
	call	@xfree@4
$L57310:
	test	ebx, ebx

; 860  : 			head=tmp;

	mov	DWORD PTR [esi], ebx
	jne	SHORT $L57008
	pop	edi
	pop	ebx
$L57329:

; 861  : 		}
; 862  : 	}
; 863  : 	head=null;

	mov	DWORD PTR [esi], 0

; 864  : 	tail=null;

	mov	DWORD PTR [esi+4], 0
	pop	esi

; 865  : }

	ret	0
??1?$XChain@VCSysObj@@@@QAE@XZ ENDP			; XChain<CSysObj>::~XChain<CSysObj>
_TEXT	ENDS
PUBLIC	?lose_list@?$XChain@VCSysObj@@@@QAEXXZ		; XChain<CSysObj>::lose_list
; Function compile flags: /Ogty
;	COMDAT ?lose_list@?$XChain@VCSysObj@@@@QAEXXZ
_TEXT	SEGMENT
?lose_list@?$XChain@VCSysObj@@@@QAEXXZ PROC NEAR	; XChain<CSysObj>::lose_list, COMDAT
; _this$ = ecx

; 870  : 	head=null;tail=null;xchain_state.count=0;

	mov	eax, DWORD PTR [ecx+8]
	mov	DWORD PTR [ecx], 0
	and	eax, -2147483648			; 80000000H
	mov	DWORD PTR [ecx+4], 0
	mov	DWORD PTR [ecx+8], eax

; 871  : }

	ret	0
?lose_list@?$XChain@VCSysObj@@@@QAEXXZ ENDP		; XChain<CSysObj>::lose_list
_TEXT	ENDS
PUBLIC	?free_list@?$XChain@VCSysObj@@@@QAEXXZ		; XChain<CSysObj>::free_list
; Function compile flags: /Ogty
;	COMDAT ?free_list@?$XChain@VCSysObj@@@@QAEXXZ
_TEXT	SEGMENT
?free_list@?$XChain@VCSysObj@@@@QAEXXZ PROC NEAR	; XChain<CSysObj>::free_list, COMDAT
; _this$ = ecx

; 875  : {

	push	esi
	mov	esi, ecx

; 876  : 	if (xchain_state.owned)

	mov	eax, DWORD PTR [esi+8]
	test	eax, eax
	jns	SHORT $L57355

; 877  : 	{
; 878  : 		while(head)

	cmp	DWORD PTR [esi], 0
	je	SHORT $L57355
	push	ebx
	push	edi
$L57024:

; 879  : 		{
; 880  : 			TYPE *tmp=(TYPE *)head->next;

	mov	eax, DWORD PTR [esi]

; 881  : 			delete head;

	mov	edi, eax
	mov	ebx, DWORD PTR [eax+4]
	test	edi, edi
	je	SHORT $L57336
	mov	DWORD PTR [edi], OFFSET FLAT:??_7CSysObj@@6B@ ; CSysObj::`vftable'
	mov	ecx, DWORD PTR ?_global@@3PAVXGlobal@@A	; _global
	push	edi
	call	?unreg_global_object@XGlobal@@QAEXPAVCSysObj@@@Z ; XGlobal::unreg_global_object
	mov	ecx, edi
	call	@xfree@4
$L57336:
	test	ebx, ebx

; 882  : 			head=tmp;

	mov	DWORD PTR [esi], ebx
	jne	SHORT $L57024
	pop	edi
	pop	ebx
$L57355:

; 883  : 		}
; 884  : 	}
; 885  : 	head=null;tail=null;

	mov	DWORD PTR [esi], 0
	mov	DWORD PTR [esi+4], 0
	pop	esi

; 886  : }

	ret	0
?free_list@?$XChain@VCSysObj@@@@QAEXXZ ENDP		; XChain<CSysObj>::free_list
_TEXT	ENDS
PUBLIC	?add_head@?$XChain@VCSysObj@@@@QAEPAVCSysObj@@PAV2@@Z ; XChain<CSysObj>::add_head
; Function compile flags: /Ogty
;	COMDAT ?add_head@?$XChain@VCSysObj@@@@QAEPAVCSysObj@@PAV2@@Z
_TEXT	SEGMENT
_ptr$ = 8
?add_head@?$XChain@VCSysObj@@@@QAEPAVCSysObj@@PAV2@@Z PROC NEAR ; XChain<CSysObj>::add_head, COMDAT
; _this$ = ecx

; 891  : 	ptr->next=head;

	mov	eax, DWORD PTR _ptr$[esp-4]
	mov	edx, DWORD PTR [ecx]
	mov	DWORD PTR [eax+4], edx

; 892  : 	ptr->prev=null;

	mov	DWORD PTR [eax+8], 0

; 893  : 	if (head)

	mov	edx, DWORD PTR [ecx]
	test	edx, edx
	je	SHORT $L57034

; 894  : 		head->prev=ptr;

	mov	DWORD PTR [edx+8], eax

; 897  : 	
; 898  : 	head=ptr;

	mov	DWORD PTR [ecx], eax

; 899  : 
; 900  : 	return head;
; 901  : }

	ret	4
$L57034:

; 895  : 	else
; 896  : 		tail=ptr;

	mov	DWORD PTR [ecx+4], eax

; 897  : 	
; 898  : 	head=ptr;

	mov	DWORD PTR [ecx], eax

; 899  : 
; 900  : 	return head;
; 901  : }

	ret	4
?add_head@?$XChain@VCSysObj@@@@QAEPAVCSysObj@@PAV2@@Z ENDP ; XChain<CSysObj>::add_head
_TEXT	ENDS
PUBLIC	?add_tail@?$XChain@VCSysObj@@@@QAEPAVCSysObj@@PAV2@@Z ; XChain<CSysObj>::add_tail
; Function compile flags: /Ogty
;	COMDAT ?add_tail@?$XChain@VCSysObj@@@@QAEPAVCSysObj@@PAV2@@Z
_TEXT	SEGMENT
_ptr$ = 8
?add_tail@?$XChain@VCSysObj@@@@QAEPAVCSysObj@@PAV2@@Z PROC NEAR ; XChain<CSysObj>::add_tail, COMDAT
; _this$ = ecx

; 906  : 	ptr->prev=tail;

	mov	eax, DWORD PTR _ptr$[esp-4]
	mov	edx, DWORD PTR [ecx+4]
	mov	DWORD PTR [eax+8], edx

; 907  : 	ptr->next=null;

	mov	DWORD PTR [eax+4], 0

; 908  : 	if (tail)

	mov	edx, DWORD PTR [ecx+4]
	test	edx, edx
	je	SHORT $L57040

; 909  : 		tail->next=ptr;

	mov	DWORD PTR [edx+4], eax

; 912  : 	
; 913  : 	tail=ptr;

	mov	DWORD PTR [ecx+4], eax

; 914  : 
; 915  : 	return tail;
; 916  : }

	ret	4
$L57040:

; 910  : 	else
; 911  : 		head=ptr;

	mov	DWORD PTR [ecx], eax

; 912  : 	
; 913  : 	tail=ptr;

	mov	DWORD PTR [ecx+4], eax

; 914  : 
; 915  : 	return tail;
; 916  : }

	ret	4
?add_tail@?$XChain@VCSysObj@@@@QAEPAVCSysObj@@PAV2@@Z ENDP ; XChain<CSysObj>::add_tail
_TEXT	ENDS
PUBLIC	?remove_head@?$XChain@VCSysObj@@@@QAEPAVCSysObj@@XZ ; XChain<CSysObj>::remove_head
; Function compile flags: /Ogty
;	COMDAT ?remove_head@?$XChain@VCSysObj@@@@QAEPAVCSysObj@@XZ
_TEXT	SEGMENT
?remove_head@?$XChain@VCSysObj@@@@QAEPAVCSysObj@@XZ PROC NEAR ; XChain<CSysObj>::remove_head, COMDAT
; _this$ = ecx

; 937  : 	if (!head)

	mov	eax, DWORD PTR [ecx]
	test	eax, eax
	jne	SHORT $L57046

; 947  : 
; 948  : 	return ret;
; 949  : }

	ret	0
$L57046:

; 938  : 		return null;
; 939  : 
; 940  : 	TYPE *ret=head;
; 941  : 
; 942  : 	head=head->next;

	mov	edx, DWORD PTR [eax+4]

; 943  : 	if (!head)

	test	edx, edx
	mov	DWORD PTR [ecx], edx
	jne	SHORT $L57048

; 944  : 		tail=null;

	mov	DWORD PTR [ecx+4], edx

; 947  : 
; 948  : 	return ret;
; 949  : }

	ret	0
$L57048:

; 945  : 	else
; 946  : 		head->prev=null;

	mov	DWORD PTR [edx+8], 0

; 947  : 
; 948  : 	return ret;
; 949  : }

	ret	0
?remove_head@?$XChain@VCSysObj@@@@QAEPAVCSysObj@@XZ ENDP ; XChain<CSysObj>::remove_head
_TEXT	ENDS
PUBLIC	?remove_tail@?$XChain@VCSysObj@@@@QAEPAVCSysObj@@XZ ; XChain<CSysObj>::remove_tail
; Function compile flags: /Ogty
;	COMDAT ?remove_tail@?$XChain@VCSysObj@@@@QAEPAVCSysObj@@XZ
_TEXT	SEGMENT
?remove_tail@?$XChain@VCSysObj@@@@QAEPAVCSysObj@@XZ PROC NEAR ; XChain<CSysObj>::remove_tail, COMDAT
; _this$ = ecx

; 954  : 	if (!tail)

	mov	eax, DWORD PTR [ecx+4]
	test	eax, eax
	jne	SHORT $L57054

; 964  : 
; 965  : 	return ret;
; 966  : }

	ret	0
$L57054:

; 955  : 		return null;
; 956  : 
; 957  : 	TYPE *ret=tail;
; 958  : 
; 959  : 	tail=tail->prev;

	mov	edx, DWORD PTR [eax+8]

; 960  : 	if (!tail)

	test	edx, edx
	mov	DWORD PTR [ecx+4], edx
	jne	SHORT $L57056

; 961  : 		head=null;

	mov	DWORD PTR [ecx], edx

; 964  : 
; 965  : 	return ret;
; 966  : }

	ret	0
$L57056:

; 962  : 	else
; 963  : 		tail->next=null;

	mov	DWORD PTR [edx+4], 0

; 964  : 
; 965  : 	return ret;
; 966  : }

	ret	0
?remove_tail@?$XChain@VCSysObj@@@@QAEPAVCSysObj@@XZ ENDP ; XChain<CSysObj>::remove_tail
_TEXT	ENDS
PUBLIC	?remove@?$XChain@VCSysObj@@@@QAEPAVCSysObj@@PAV2@@Z ; XChain<CSysObj>::remove
; Function compile flags: /Ogty
;	COMDAT ?remove@?$XChain@VCSysObj@@@@QAEPAVCSysObj@@PAV2@@Z
_TEXT	SEGMENT
_ptr$ = 8
?remove@?$XChain@VCSysObj@@@@QAEPAVCSysObj@@PAV2@@Z PROC NEAR ; XChain<CSysObj>::remove, COMDAT
; _this$ = ecx

; 921  : 	if (ptr->prev)

	mov	eax, DWORD PTR _ptr$[esp-4]
	mov	edx, DWORD PTR [eax+8]
	test	edx, edx
	je	SHORT $L57062
	push	esi

; 922  : 		ptr->prev->next=ptr->next;

	mov	esi, DWORD PTR [eax+4]
	mov	DWORD PTR [edx+4], esi
	pop	esi

; 923  : 	else

	jmp	SHORT $L57063
$L57062:

; 924  : 		head=ptr->next;

	mov	edx, DWORD PTR [eax+4]
	mov	DWORD PTR [ecx], edx
$L57063:

; 925  : 
; 926  : 	if (ptr->next)

	mov	edx, DWORD PTR [eax+4]
	test	edx, edx
	je	SHORT $L57064

; 927  : 		ptr->next->prev=ptr->prev;

	mov	ecx, DWORD PTR [eax+8]
	mov	DWORD PTR [edx+8], ecx

; 930  : 
; 931  : 	return ptr;
; 932  : }

	ret	4
$L57064:

; 928  : 	else
; 929  : 		tail=ptr->prev;

	mov	edx, DWORD PTR [eax+8]
	mov	DWORD PTR [ecx+4], edx

; 930  : 
; 931  : 	return ptr;
; 932  : }

	ret	4
?remove@?$XChain@VCSysObj@@@@QAEPAVCSysObj@@PAV2@@Z ENDP ; XChain<CSysObj>::remove
_TEXT	ENDS
PUBLIC	??_7XBufferReadInt@@6B@				; XBufferReadInt::`vftable'
PUBLIC	??_GXBufferReadInt@@UAEPAXI@Z			; XBufferReadInt::`scalar deleting destructor'
PUBLIC	??_EXBufferReadInt@@UAEPAXI@Z			; XBufferReadInt::`vector deleting destructor'
EXTRN	?read_direct@XBufferReadInt@@MAEKPAXKAAK@Z:NEAR	; XBufferReadInt::read_direct
;	COMDAT ??_7XBufferReadInt@@6B@
; File C:\duke4\xcore\xcore.h
CONST	SEGMENT
??_7XBufferReadInt@@6B@ DD FLAT:?read_direct@XBufferReadInt@@MAEKPAXKAAK@Z ; XBufferReadInt::`vftable'
	DD	FLAT:__purecall
	DD	FLAT:__purecall
	DD	FLAT:??_EXBufferReadInt@@UAEPAXI@Z
; Function compile flags: /Ogty
CONST	ENDS
;	COMDAT ??_GXBufferReadInt@@UAEPAXI@Z
_TEXT	SEGMENT
___flags$ = 8
??_GXBufferReadInt@@UAEPAXI@Z PROC NEAR			; XBufferReadInt::`scalar deleting destructor', COMDAT
; _this$ = ecx
	mov	al, BYTE PTR ___flags$[esp-4]
	push	esi
	mov	esi, ecx
	test	al, 1
	mov	DWORD PTR [esi], OFFSET FLAT:??_7XBufferReadInt@@6B@ ; XBufferReadInt::`vftable'
	je	SHORT $L57376
	call	@xfree@4
$L57376:
	mov	eax, esi
	pop	esi
	ret	4
??_GXBufferReadInt@@UAEPAXI@Z ENDP			; XBufferReadInt::`scalar deleting destructor'
_TEXT	ENDS
PUBLIC	??1XBufferReadInt@@UAE@XZ			; XBufferReadInt::~XBufferReadInt
EXTRN	??_M@YGXPAXIHP6EX0@Z@Z:NEAR			; `eh vector destructor iterator'
; Function compile flags: /Ogty
;	COMDAT ??_EXBufferReadInt@@UAEPAXI@Z
_TEXT	SEGMENT
___flags$ = 8
??_EXBufferReadInt@@UAEPAXI@Z PROC NEAR			; XBufferReadInt::`vector deleting destructor', COMDAT
; _this$ = ecx
	push	ebx
	mov	bl, BYTE PTR ___flags$[esp]
	push	esi
	mov	esi, ecx
	test	bl, 2
	je	SHORT $L56059
	mov	eax, DWORD PTR [esi-4]
	push	edi
	lea	edi, DWORD PTR [esi-4]
	push	OFFSET FLAT:??1XBufferReadInt@@UAE@XZ	; XBufferReadInt::~XBufferReadInt
	push	eax
	push	8
	push	esi
	call	??_M@YGXPAXIHP6EX0@Z@Z			; `eh vector destructor iterator'
	test	bl, 1
	je	SHORT $L57381
	mov	ecx, edi
	call	@xfree@4
$L57381:
	mov	eax, edi
	pop	edi
	pop	esi
	pop	ebx
	ret	4
$L56059:
	test	bl, 1
	mov	DWORD PTR [esi], OFFSET FLAT:??_7XBufferReadInt@@6B@ ; XBufferReadInt::`vftable'
	je	SHORT $L57387
	mov	ecx, esi
	call	@xfree@4
$L57387:
	mov	eax, esi
	pop	esi
	pop	ebx
	ret	4
??_EXBufferReadInt@@UAEPAXI@Z ENDP			; XBufferReadInt::`vector deleting destructor'
; Function compile flags: /Ogty
; File C:\duke4\xcore\xstream.h
_TEXT	ENDS
;	COMDAT ??1XBufferReadInt@@UAE@XZ
_TEXT	SEGMENT
??1XBufferReadInt@@UAE@XZ PROC NEAR			; XBufferReadInt::~XBufferReadInt, COMDAT
; _this$ = ecx

; 37   : 	virtual ~XBufferReadInt(void){}

	mov	DWORD PTR [ecx], OFFSET FLAT:??_7XBufferReadInt@@6B@ ; XBufferReadInt::`vftable'
	ret	0
??1XBufferReadInt@@UAE@XZ ENDP				; XBufferReadInt::~XBufferReadInt
_TEXT	ENDS
PUBLIC	??_7XBufferWriteInt@@6B@			; XBufferWriteInt::`vftable'
PUBLIC	??_GXBufferWriteInt@@UAEPAXI@Z			; XBufferWriteInt::`scalar deleting destructor'
PUBLIC	??_EXBufferWriteInt@@UAEPAXI@Z			; XBufferWriteInt::`vector deleting destructor'
EXTRN	?write_direct@XBufferWriteInt@@MAEKPBXKAAK@Z:NEAR ; XBufferWriteInt::write_direct
;	COMDAT ??_7XBufferWriteInt@@6B@
; File C:\duke4\xcore\xcore.h
CONST	SEGMENT
??_7XBufferWriteInt@@6B@ DD FLAT:?write_direct@XBufferWriteInt@@MAEKPBXKAAK@Z ; XBufferWriteInt::`vftable'
	DD	FLAT:__purecall
	DD	FLAT:__purecall
	DD	FLAT:__purecall
	DD	FLAT:??_EXBufferWriteInt@@UAEPAXI@Z
; Function compile flags: /Ogty
CONST	ENDS
;	COMDAT ??_GXBufferWriteInt@@UAEPAXI@Z
_TEXT	SEGMENT
___flags$ = 8
??_GXBufferWriteInt@@UAEPAXI@Z PROC NEAR		; XBufferWriteInt::`scalar deleting destructor', COMDAT
; _this$ = ecx
	mov	al, BYTE PTR ___flags$[esp-4]
	push	esi
	mov	esi, ecx
	test	al, 1
	mov	DWORD PTR [esi], OFFSET FLAT:??_7XBufferWriteInt@@6B@ ; XBufferWriteInt::`vftable'
	je	SHORT $L57398
	call	@xfree@4
$L57398:
	mov	eax, esi
	pop	esi
	ret	4
??_GXBufferWriteInt@@UAEPAXI@Z ENDP			; XBufferWriteInt::`scalar deleting destructor'
_TEXT	ENDS
PUBLIC	??1XBufferWriteInt@@UAE@XZ			; XBufferWriteInt::~XBufferWriteInt
; Function compile flags: /Ogty
;	COMDAT ??_EXBufferWriteInt@@UAEPAXI@Z
_TEXT	SEGMENT
___flags$ = 8
??_EXBufferWriteInt@@UAEPAXI@Z PROC NEAR		; XBufferWriteInt::`vector deleting destructor', COMDAT
; _this$ = ecx
	push	ebx
	mov	bl, BYTE PTR ___flags$[esp]
	push	esi
	mov	esi, ecx
	test	bl, 2
	je	SHORT $L56111
	mov	eax, DWORD PTR [esi-4]
	push	edi
	lea	edi, DWORD PTR [esi-4]
	push	OFFSET FLAT:??1XBufferWriteInt@@UAE@XZ	; XBufferWriteInt::~XBufferWriteInt
	push	eax
	push	8
	push	esi
	call	??_M@YGXPAXIHP6EX0@Z@Z			; `eh vector destructor iterator'
	test	bl, 1
	je	SHORT $L57403
	mov	ecx, edi
	call	@xfree@4
$L57403:
	mov	eax, edi
	pop	edi
	pop	esi
	pop	ebx
	ret	4
$L56111:
	test	bl, 1
	mov	DWORD PTR [esi], OFFSET FLAT:??_7XBufferWriteInt@@6B@ ; XBufferWriteInt::`vftable'
	je	SHORT $L57409
	mov	ecx, esi
	call	@xfree@4
$L57409:
	mov	eax, esi
	pop	esi
	pop	ebx
	ret	4
??_EXBufferWriteInt@@UAEPAXI@Z ENDP			; XBufferWriteInt::`vector deleting destructor'
; Function compile flags: /Ogty
; File C:\duke4\xcore\xstream.h
_TEXT	ENDS
;	COMDAT ??1XBufferWriteInt@@UAE@XZ
_TEXT	SEGMENT
??1XBufferWriteInt@@UAE@XZ PROC NEAR			; XBufferWriteInt::~XBufferWriteInt, COMDAT
; _this$ = ecx

; 56   : 	virtual ~XBufferWriteInt(void){}

	mov	DWORD PTR [ecx], OFFSET FLAT:??_7XBufferWriteInt@@6B@ ; XBufferWriteInt::`vftable'
	ret	0
??1XBufferWriteInt@@UAE@XZ ENDP				; XBufferWriteInt::~XBufferWriteInt
_TEXT	ENDS
PUBLIC	??1XStreamRdDirect@@UAE@XZ			; XStreamRdDirect::~XStreamRdDirect
PUBLIC	??_GXStreamRdDirect@@UAEPAXI@Z			; XStreamRdDirect::`scalar deleting destructor'
; Function compile flags: /Ogty
;	COMDAT ??_GXStreamRdDirect@@UAEPAXI@Z
_TEXT	SEGMENT
___flags$ = 8
??_GXStreamRdDirect@@UAEPAXI@Z PROC NEAR		; XStreamRdDirect::`scalar deleting destructor', COMDAT
; _this$ = ecx
	push	esi
	mov	esi, ecx
	call	??1XStreamRdDirect@@UAE@XZ		; XStreamRdDirect::~XStreamRdDirect
	test	BYTE PTR ___flags$[esp], 1
	je	SHORT $L57417
	mov	ecx, esi
	call	@xfree@4
$L57417:
	mov	eax, esi
	pop	esi
	ret	4
??_GXStreamRdDirect@@UAEPAXI@Z ENDP			; XStreamRdDirect::`scalar deleting destructor'
; Function compile flags: /Ogty
_TEXT	ENDS
;	COMDAT ??1XStreamRdDirect@@UAE@XZ
_TEXT	SEGMENT
??1XStreamRdDirect@@UAE@XZ PROC NEAR			; XStreamRdDirect::~XStreamRdDirect, COMDAT
; _this$ = ecx

; 71   : 	~XStreamRdDirect(void){}

	mov	DWORD PTR [ecx], OFFSET FLAT:??_7XBufferReadInt@@6B@ ; XBufferReadInt::`vftable'
	ret	0
??1XStreamRdDirect@@UAE@XZ ENDP				; XStreamRdDirect::~XStreamRdDirect
_TEXT	ENDS
PUBLIC	??_EXStreamRdDirect@@UAEPAXI@Z			; XStreamRdDirect::`vector deleting destructor'
; Function compile flags: /Ogty
;	COMDAT ??_EXStreamRdDirect@@UAEPAXI@Z
_TEXT	SEGMENT
___flags$ = 8
??_EXStreamRdDirect@@UAEPAXI@Z PROC NEAR		; XStreamRdDirect::`vector deleting destructor', COMDAT
; _this$ = ecx
	push	ebx
	mov	bl, BYTE PTR ___flags$[esp]
	push	esi
	mov	esi, ecx
	test	bl, 2
	je	SHORT $L56163
	mov	eax, DWORD PTR [esi-4]
	push	edi
	lea	edi, DWORD PTR [esi-4]
	push	OFFSET FLAT:??1XStreamRdDirect@@UAE@XZ	; XStreamRdDirect::~XStreamRdDirect
	push	eax
	push	8
	push	esi
	call	??_M@YGXPAXIHP6EX0@Z@Z			; `eh vector destructor iterator'
	test	bl, 1
	je	SHORT $L57428
	mov	ecx, edi
	call	@xfree@4
$L57428:
	mov	eax, edi
	pop	edi
	pop	esi
	pop	ebx
	ret	4
$L56163:
	mov	ecx, esi
	call	??1XStreamRdDirect@@UAE@XZ		; XStreamRdDirect::~XStreamRdDirect
	test	bl, 1
	je	SHORT $L57430
	mov	ecx, esi
	call	@xfree@4
$L57430:
	mov	eax, esi
	pop	esi
	pop	ebx
	ret	4
??_EXStreamRdDirect@@UAEPAXI@Z ENDP			; XStreamRdDirect::`vector deleting destructor'
_TEXT	ENDS
PUBLIC	??1XStreamWrDirect@@UAE@XZ			; XStreamWrDirect::~XStreamWrDirect
PUBLIC	??_GXStreamWrDirect@@UAEPAXI@Z			; XStreamWrDirect::`scalar deleting destructor'
; Function compile flags: /Ogty
;	COMDAT ??_GXStreamWrDirect@@UAEPAXI@Z
_TEXT	SEGMENT
___flags$ = 8
??_GXStreamWrDirect@@UAEPAXI@Z PROC NEAR		; XStreamWrDirect::`scalar deleting destructor', COMDAT
; _this$ = ecx
	push	esi
	mov	esi, ecx
	call	??1XStreamWrDirect@@UAE@XZ		; XStreamWrDirect::~XStreamWrDirect
	test	BYTE PTR ___flags$[esp], 1
	je	SHORT $L57437
	mov	ecx, esi
	call	@xfree@4
$L57437:
	mov	eax, esi
	pop	esi
	ret	4
??_GXStreamWrDirect@@UAEPAXI@Z ENDP			; XStreamWrDirect::`scalar deleting destructor'
; Function compile flags: /Ogty
_TEXT	ENDS
;	COMDAT ??1XStreamWrDirect@@UAE@XZ
_TEXT	SEGMENT
??1XStreamWrDirect@@UAE@XZ PROC NEAR			; XStreamWrDirect::~XStreamWrDirect, COMDAT
; _this$ = ecx

; 88   : 	~XStreamWrDirect(void){}

	mov	DWORD PTR [ecx], OFFSET FLAT:??_7XBufferWriteInt@@6B@ ; XBufferWriteInt::`vftable'
	ret	0
??1XStreamWrDirect@@UAE@XZ ENDP				; XStreamWrDirect::~XStreamWrDirect
_TEXT	ENDS
PUBLIC	??_EXStreamWrDirect@@UAEPAXI@Z			; XStreamWrDirect::`vector deleting destructor'
; Function compile flags: /Ogty
;	COMDAT ??_EXStreamWrDirect@@UAEPAXI@Z
_TEXT	SEGMENT
___flags$ = 8
??_EXStreamWrDirect@@UAEPAXI@Z PROC NEAR		; XStreamWrDirect::`vector deleting destructor', COMDAT
; _this$ = ecx
	push	ebx
	mov	bl, BYTE PTR ___flags$[esp]
	push	esi
	mov	esi, ecx
	test	bl, 2
	je	SHORT $L56219
	mov	eax, DWORD PTR [esi-4]
	push	edi
	lea	edi, DWORD PTR [esi-4]
	push	OFFSET FLAT:??1XStreamWrDirect@@UAE@XZ	; XStreamWrDirect::~XStreamWrDirect
	push	eax
	push	8
	push	esi
	call	??_M@YGXPAXIHP6EX0@Z@Z			; `eh vector destructor iterator'
	test	bl, 1
	je	SHORT $L57448
	mov	ecx, edi
	call	@xfree@4
$L57448:
	mov	eax, edi
	pop	edi
	pop	esi
	pop	ebx
	ret	4
$L56219:
	mov	ecx, esi
	call	??1XStreamWrDirect@@UAE@XZ		; XStreamWrDirect::~XStreamWrDirect
	test	bl, 1
	je	SHORT $L57450
	mov	ecx, esi
	call	@xfree@4
$L57450:
	mov	eax, esi
	pop	esi
	pop	ebx
	ret	4
??_EXStreamWrDirect@@UAEPAXI@Z ENDP			; XStreamWrDirect::`vector deleting destructor'
_TEXT	ENDS
PUBLIC	??1XMemRdBuffer@@UAE@XZ				; XMemRdBuffer::~XMemRdBuffer
PUBLIC	??_GXMemRdBuffer@@UAEPAXI@Z			; XMemRdBuffer::`scalar deleting destructor'
; Function compile flags: /Ogty
;	COMDAT ??_GXMemRdBuffer@@UAEPAXI@Z
_TEXT	SEGMENT
___flags$ = 8
??_GXMemRdBuffer@@UAEPAXI@Z PROC NEAR			; XMemRdBuffer::`scalar deleting destructor', COMDAT
; _this$ = ecx
	push	esi
	mov	esi, ecx
	call	??1XMemRdBuffer@@UAE@XZ			; XMemRdBuffer::~XMemRdBuffer
	test	BYTE PTR ___flags$[esp], 1
	je	SHORT $L57457
	mov	ecx, esi
	call	@xfree@4
$L57457:
	mov	eax, esi
	pop	esi
	ret	4
??_GXMemRdBuffer@@UAEPAXI@Z ENDP			; XMemRdBuffer::`scalar deleting destructor'
_TEXT	ENDS
PUBLIC	??_7XMemRdBuffer@@6B@				; XMemRdBuffer::`vftable'
PUBLIC	??_EXMemRdBuffer@@UAEPAXI@Z			; XMemRdBuffer::`vector deleting destructor'
EXTRN	?read@XMemRdBuffer@@UAEKPAXKAAK1@Z:NEAR		; XMemRdBuffer::read
EXTRN	?seek@XMemRdBuffer@@UAEKJ@Z:NEAR		; XMemRdBuffer::seek
;	COMDAT ??_7XMemRdBuffer@@6B@
CONST	SEGMENT
??_7XMemRdBuffer@@6B@ DD FLAT:?read_direct@XBufferReadInt@@MAEKPAXKAAK@Z ; XMemRdBuffer::`vftable'
	DD	FLAT:?read@XMemRdBuffer@@UAEKPAXKAAK1@Z
	DD	FLAT:?seek@XMemRdBuffer@@UAEKJ@Z
	DD	FLAT:??_EXMemRdBuffer@@UAEPAXI@Z
; Function compile flags: /Ogty
CONST	ENDS
;	COMDAT ??1XMemRdBuffer@@UAE@XZ
_TEXT	SEGMENT
??1XMemRdBuffer@@UAE@XZ PROC NEAR			; XMemRdBuffer::~XMemRdBuffer, COMDAT
; _this$ = ecx

; 109  : 	~XMemRdBuffer(void){}

	push	esi
	mov	esi, ecx
	mov	DWORD PTR [esi], OFFSET FLAT:??_7XMemRdBuffer@@6B@ ; XMemRdBuffer::`vftable'
	mov	ecx, DWORD PTR [esi+8]
	call	@xfree@4
	mov	DWORD PTR [esi+8], 0
	mov	DWORD PTR [esi], OFFSET FLAT:??_7XBufferReadInt@@6B@ ; XBufferReadInt::`vftable'
	pop	esi
	ret	0
??1XMemRdBuffer@@UAE@XZ ENDP				; XMemRdBuffer::~XMemRdBuffer
; Function compile flags: /Ogty
_TEXT	ENDS
;	COMDAT ??_EXMemRdBuffer@@UAEPAXI@Z
_TEXT	SEGMENT
___flags$ = 8
??_EXMemRdBuffer@@UAEPAXI@Z PROC NEAR			; XMemRdBuffer::`vector deleting destructor', COMDAT
; _this$ = ecx
	push	ebx
	mov	bl, BYTE PTR ___flags$[esp]
	push	esi
	mov	esi, ecx
	test	bl, 2
	je	SHORT $L56272
	mov	eax, DWORD PTR [esi-4]
	push	edi
	lea	edi, DWORD PTR [esi-4]
	push	OFFSET FLAT:??1XMemRdBuffer@@UAE@XZ	; XMemRdBuffer::~XMemRdBuffer
	push	eax
	push	24					; 00000018H
	push	esi
	call	??_M@YGXPAXIHP6EX0@Z@Z			; `eh vector destructor iterator'
	test	bl, 1
	je	SHORT $L57473
	mov	ecx, edi
	call	@xfree@4
$L57473:
	mov	eax, edi
	pop	edi
	pop	esi
	pop	ebx
	ret	4
$L56272:
	mov	ecx, esi
	call	??1XMemRdBuffer@@UAE@XZ			; XMemRdBuffer::~XMemRdBuffer
	test	bl, 1
	je	SHORT $L57475
	mov	ecx, esi
	call	@xfree@4
$L57475:
	mov	eax, esi
	pop	esi
	pop	ebx
	ret	4
??_EXMemRdBuffer@@UAEPAXI@Z ENDP			; XMemRdBuffer::`vector deleting destructor'
_TEXT	ENDS
END
