; Listing generated by Microsoft (R) Optimizing Compiler Version 12.00.8943.0 

	TITLE	C:\duke4\Cannibal\MacMain.cpp
	.386P
include listing.inc
if @Version gt 510
.model FLAT
else
_TEXT	SEGMENT PARA USE32 PUBLIC 'CODE'
_TEXT	ENDS
_DATA	SEGMENT DWORD USE32 PUBLIC 'DATA'
_DATA	ENDS
CONST	SEGMENT DWORD USE32 PUBLIC 'CONST'
CONST	ENDS
_BSS	SEGMENT PARA USE32 PUBLIC 'BSS'
_BSS	ENDS
$$SYMBOLS	SEGMENT BYTE USE32 'DEBSYM'
$$SYMBOLS	ENDS
$$TYPES	SEGMENT BYTE USE32 'DEBTYP'
$$TYPES	ENDS
_TLS	SEGMENT DWORD USE32 PUBLIC 'TLS'
_TLS	ENDS
;	COMDAT ??_C@_0BF@MBIJ@Cannot?5init?5CPrintfT?$AA@
_DATA	SEGMENT DWORD USE32 PUBLIC 'DATA'
_DATA	ENDS
;	COMDAT ??_C@_00A@?$AA@
_DATA	SEGMENT DWORD USE32 PUBLIC 'DATA'
_DATA	ENDS
;	COMDAT ??_C@_0DM@CGKC@SetDataSize?5with?5incompatible?5el@
_DATA	SEGMENT DWORD USE32 PUBLIC 'DATA'
_DATA	ENDS
;	COMDAT ??_C@_0BB@OEJH@Invalid?5importer?$AA@
_DATA	SEGMENT DWORD USE32 PUBLIC 'DATA'
_DATA	ENDS
;	COMDAT ??_C@_0BB@PIMA@Invalid?5exporter?$AA@
_DATA	SEGMENT DWORD USE32 PUBLIC 'DATA'
_DATA	ENDS
;	COMDAT ??_C@_03NCKM@cpj?$AA@
_DATA	SEGMENT DWORD USE32 PUBLIC 'DATA'
_DATA	ENDS
;	COMDAT ??_C@_0BB@DFOH@Cannibal?5Project?$AA@
_DATA	SEGMENT DWORD USE32 PUBLIC 'DATA'
_DATA	ENDS
;	COMDAT ??_C@_03LMJE@geo?$AA@
_DATA	SEGMENT DWORD USE32 PUBLIC 'DATA'
_DATA	ENDS
;	COMDAT ??_C@_0BC@LDNG@Cannibal?5Geometry?$AA@
_DATA	SEGMENT DWORD USE32 PUBLIC 'DATA'
_DATA	ENDS
;	COMDAT ??_C@_03CAHH@srf?$AA@
_DATA	SEGMENT DWORD USE32 PUBLIC 'DATA'
_DATA	ENDS
;	COMDAT ??_C@_0BB@HJJD@Cannibal?5Surface?$AA@
_DATA	SEGMENT DWORD USE32 PUBLIC 'DATA'
_DATA	ENDS
;	COMDAT ??_C@_03OJBK@lod?$AA@
_DATA	SEGMENT DWORD USE32 PUBLIC 'DATA'
_DATA	ENDS
;	COMDAT ??_C@_0BC@GAMJ@Cannibal?5LOD?5Data?$AA@
_DATA	SEGMENT DWORD USE32 PUBLIC 'DATA'
_DATA	ENDS
;	COMDAT ??_C@_03OILG@skl?$AA@
_DATA	SEGMENT DWORD USE32 PUBLIC 'DATA'
_DATA	ENDS
;	COMDAT ??_C@_0BC@MLFJ@Cannibal?5Skeleton?$AA@
_DATA	SEGMENT DWORD USE32 PUBLIC 'DATA'
_DATA	ENDS
;	COMDAT ??_C@_03LAFA@frm?$AA@
_DATA	SEGMENT DWORD USE32 PUBLIC 'DATA'
_DATA	ENDS
;	COMDAT ??_C@_0BH@NIOG@Cannibal?5Vertex?5Frames?$AA@
_DATA	SEGMENT DWORD USE32 PUBLIC 'DATA'
_DATA	ENDS
;	COMDAT ??_C@_03NHBO@seq?$AA@
_DATA	SEGMENT DWORD USE32 PUBLIC 'DATA'
_DATA	ENDS
;	COMDAT ??_C@_0BC@KGFM@Cannibal?5Sequence?$AA@
_DATA	SEGMENT DWORD USE32 PUBLIC 'DATA'
_DATA	ENDS
;	COMDAT ??_C@_03CMEC@mac?$AA@
_DATA	SEGMENT DWORD USE32 PUBLIC 'DATA'
_DATA	ENDS
;	COMDAT ??_C@_0BM@NPDB@Cannibal?5Model?5Actor?5Config?$AA@
_DATA	SEGMENT DWORD USE32 PUBLIC 'DATA'
_DATA	ENDS
;	COMDAT ??_C@_01KBOJ@s?$AA@
_DATA	SEGMENT DWORD USE32 PUBLIC 'DATA'
_DATA	ENDS
;	COMDAT ??_C@_09KJDM@SetAuthor?$AA@
_DATA	SEGMENT DWORD USE32 PUBLIC 'DATA'
_DATA	ENDS
;	COMDAT ??_C@_09OANE@OMacActor?$AA@
_DATA	SEGMENT DWORD USE32 PUBLIC 'DATA'
_DATA	ENDS
;	COMDAT ??_C@_0P@HBI@SetDescription?$AA@
_DATA	SEGMENT DWORD USE32 PUBLIC 'DATA'
_DATA	ENDS
;	COMDAT ??_C@_03CLFC@fff?$AA@
_DATA	SEGMENT DWORD USE32 PUBLIC 'DATA'
_DATA	ENDS
;	COMDAT ??_C@_09NIBD@SetOrigin?$AA@
_DATA	SEGMENT DWORD USE32 PUBLIC 'DATA'
_DATA	ENDS
;	COMDAT ??_C@_08OKHL@SetScale?$AA@
_DATA	SEGMENT DWORD USE32 PUBLIC 'DATA'
_DATA	ENDS
;	COMDAT ??_C@_0M@BIJC@SetRotation?$AA@
_DATA	SEGMENT DWORD USE32 PUBLIC 'DATA'
_DATA	ENDS
;	COMDAT ??_C@_0N@KGJ@SetBoundsMin?$AA@
_DATA	SEGMENT DWORD USE32 PUBLIC 'DATA'
_DATA	ENDS
;	COMDAT ??_C@_0N@OJDP@SetBoundsMax?$AA@
_DATA	SEGMENT DWORD USE32 PUBLIC 'DATA'
_DATA	ENDS
;	COMDAT ??_C@_0M@KHLN@SetGeometry?$AA@
_DATA	SEGMENT DWORD USE32 PUBLIC 'DATA'
_DATA	ENDS
;	COMDAT ??_C@_02HNOA@is?$AA@
_DATA	SEGMENT DWORD USE32 PUBLIC 'DATA'
_DATA	ENDS
;	COMDAT ??_C@_0L@BCFB@SetSurface?$AA@
_DATA	SEGMENT DWORD USE32 PUBLIC 'DATA'
_DATA	ENDS
;	COMDAT ??_C@_0L@BJMB@SetLodData?$AA@
_DATA	SEGMENT DWORD USE32 PUBLIC 'DATA'
_DATA	ENDS
;	COMDAT ??_C@_0M@NPDC@SetSkeleton?$AA@
_DATA	SEGMENT DWORD USE32 PUBLIC 'DATA'
_DATA	ENDS
;	COMDAT ??_C@_09ONCB@AddFrames?$AA@
_DATA	SEGMENT DWORD USE32 PUBLIC 'DATA'
_DATA	ENDS
;	COMDAT ??_C@_04BAK@NULL?$AA@
_DATA	SEGMENT DWORD USE32 PUBLIC 'DATA'
_DATA	ENDS
;	COMDAT ??_C@_0N@JOIN@AddSequences?$AA@
_DATA	SEGMENT DWORD USE32 PUBLIC 'DATA'
_DATA	ENDS
;	COMDAT ??_C@_07ILDF@OObject?$AA@
_DATA	SEGMENT DWORD USE32 PUBLIC 'DATA'
_DATA	ENDS
;	COMDAT ??_C@_03HJPD@GEO?$AA@
_DATA	SEGMENT DWORD USE32 PUBLIC 'DATA'
_DATA	ENDS
;	COMDAT ??_C@_03CNNB@SKL?$AA@
_DATA	SEGMENT DWORD USE32 PUBLIC 'DATA'
_DATA	ENDS
;	COMDAT ??_C@_03CMHN@LOD?$AA@
_DATA	SEGMENT DWORD USE32 PUBLIC 'DATA'
_DATA	ENDS
;	COMDAT ??_C@_03OFBA@SRF?$AA@
_DATA	SEGMENT DWORD USE32 PUBLIC 'DATA'
_DATA	ENDS
;	COMDAT ??_C@_03HFDH@FRM?$AA@
_DATA	SEGMENT DWORD USE32 PUBLIC 'DATA'
_DATA	ENDS
;	COMDAT ??_C@_03BCHJ@SEQ?$AA@
_DATA	SEGMENT DWORD USE32 PUBLIC 'DATA'
_DATA	ENDS
;	COMDAT ??_C@_08PDKO@autoexec?$AA@
_DATA	SEGMENT DWORD USE32 PUBLIC 'DATA'
_DATA	ENDS
;	COMDAT ??_C@_0P@HLNL@SetAuthor?5?$CC?$CFs?$CC?$AA@
_DATA	SEGMENT DWORD USE32 PUBLIC 'DATA'
_DATA	ENDS
;	COMDAT ??_C@_0BE@JMPP@SetDescription?5?$CC?$CFs?$CC?$AA@
_DATA	SEGMENT DWORD USE32 PUBLIC 'DATA'
_DATA	ENDS
;	COMDAT ??_C@_0BD@GKMM@SetOrigin?5?$CFf?5?$CFf?5?$CFf?$AA@
_DATA	SEGMENT DWORD USE32 PUBLIC 'DATA'
_DATA	ENDS
;	COMDAT ??_C@_0BC@NICM@SetScale?5?$CFf?5?$CFf?5?$CFf?$AA@
_DATA	SEGMENT DWORD USE32 PUBLIC 'DATA'
_DATA	ENDS
;	COMDAT ??_C@_0BF@LOLC@SetRotation?5?$CFf?5?$CFf?5?$CFf?$AA@
_DATA	SEGMENT DWORD USE32 PUBLIC 'DATA'
_DATA	ENDS
;	COMDAT ??_C@_0BG@BKJK@SetBoundsMin?5?$CFf?5?$CFf?5?$CFf?$AA@
_DATA	SEGMENT DWORD USE32 PUBLIC 'DATA'
_DATA	ENDS
;	COMDAT ??_C@_0BG@JCEN@SetBoundsMax?5?$CFf?5?$CFf?5?$CFf?$AA@
_DATA	SEGMENT DWORD USE32 PUBLIC 'DATA'
_DATA	ENDS
;	COMDAT ??_C@_0BB@PBDG@SetGeometry?5?$CC?$CFs?$CC?$AA@
_DATA	SEGMENT DWORD USE32 PUBLIC 'DATA'
_DATA	ENDS
;	COMDAT ??_C@_0BB@BEIB@SetSkeleton?5?$CC?$CFs?$CC?$AA@
_DATA	SEGMENT DWORD USE32 PUBLIC 'DATA'
_DATA	ENDS
;	COMDAT ??_C@_0BA@FMNO@SetLodData?5?$CC?$CFs?$CC?$AA@
_DATA	SEGMENT DWORD USE32 PUBLIC 'DATA'
_DATA	ENDS
;	COMDAT ??_C@_0BD@DNEA@SetSurface?5?$CFd?5?$CC?$CFs?$CC?$AA@
_DATA	SEGMENT DWORD USE32 PUBLIC 'DATA'
_DATA	ENDS
;	COMDAT ??_C@_0BB@PHGO@AddFrames?5?$CCNULL?$CC?$AA@
_DATA	SEGMENT DWORD USE32 PUBLIC 'DATA'
_DATA	ENDS
;	COMDAT ??_C@_0P@LABC@AddFrames?5?$CC?$CFs?$CC?$AA@
_DATA	SEGMENT DWORD USE32 PUBLIC 'DATA'
_DATA	ENDS
;	COMDAT ??_C@_0BE@HFDO@AddSequences?5?$CCNULL?$CC?$AA@
_DATA	SEGMENT DWORD USE32 PUBLIC 'DATA'
_DATA	ENDS
;	COMDAT ??_C@_0BC@FMMO@AddSequences?5?$CC?$CFs?$CC?$AA@
_DATA	SEGMENT DWORD USE32 PUBLIC 'DATA'
_DATA	ENDS
;	COMDAT ??_C@_0M@BDBM@OMacChannel?$AA@
_DATA	SEGMENT DWORD USE32 PUBLIC 'DATA'
_DATA	ENDS
;	COMDAT ??_C@_0BE@NKOE@OMacSequenceChannel?$AA@
_DATA	SEGMENT DWORD USE32 PUBLIC 'DATA'
_DATA	ENDS
;	COMDAT ??_C@_0O@HJCN@OMacIKChannel?$AA@
_DATA	SEGMENT DWORD USE32 PUBLIC 'DATA'
_DATA	ENDS
CRT$XCA	SEGMENT DWORD USE32 PUBLIC 'DATA'
CRT$XCA	ENDS
CRT$XCU	SEGMENT DWORD USE32 PUBLIC 'DATA'
CRT$XCU	ENDS
CRT$XCL	SEGMENT DWORD USE32 PUBLIC 'DATA'
CRT$XCL	ENDS
CRT$XCC	SEGMENT DWORD USE32 PUBLIC 'DATA'
CRT$XCC	ENDS
CRT$XCZ	SEGMENT DWORD USE32 PUBLIC 'DATA'
CRT$XCZ	ENDS
;	COMDAT __imp_??0autochar@@QAE@XZ
_TEXT	SEGMENT PARA USE32 PUBLIC 'CODE'
_TEXT	ENDS
;	COMDAT __imp_??1autochar@@QAE@XZ
_TEXT	SEGMENT PARA USE32 PUBLIC 'CODE'
_TEXT	ENDS
;	COMDAT __imp_??4autochar@@QAEAAV0@PAD@Z
_TEXT	SEGMENT PARA USE32 PUBLIC 'CODE'
_TEXT	ENDS
;	COMDAT __imp_??Bautochar@@QAEPADXZ
_TEXT	SEGMENT PARA USE32 PUBLIC 'CODE'
_TEXT	ENDS
;	COMDAT __imp_??0XRef@@QAE@XZ
_TEXT	SEGMENT PARA USE32 PUBLIC 'CODE'
_TEXT	ENDS
;	COMDAT ??0XListState@@QAE@XZ
_TEXT	SEGMENT PARA USE32 PUBLIC 'CODE'
_TEXT	ENDS
;	COMDAT ??0XChainState@@QAE@XZ
_TEXT	SEGMENT PARA USE32 PUBLIC 'CODE'
_TEXT	ENDS
;	COMDAT ??0XChainState@@QAE@K@Z
_TEXT	SEGMENT PARA USE32 PUBLIC 'CODE'
_TEXT	ENDS
;	COMDAT __imp_??0MemGrow@@QAE@K@Z
_TEXT	SEGMENT PARA USE32 PUBLIC 'CODE'
_TEXT	ENDS
;	COMDAT __imp_??1MemGrow@@QAE@XZ
_TEXT	SEGMENT PARA USE32 PUBLIC 'CODE'
_TEXT	ENDS
;	COMDAT ??0MemStats@@QAE@XZ
_TEXT	SEGMENT PARA USE32 PUBLIC 'CODE'
_TEXT	ENDS
;	COMDAT __imp_?add_count@XStatistic@@QAEXXZ
_TEXT	SEGMENT PARA USE32 PUBLIC 'CODE'
_TEXT	ENDS
;	COMDAT __imp_?add_tick@XStatistic@@QAEX_K@Z
_TEXT	SEGMENT PARA USE32 PUBLIC 'CODE'
_TEXT	ENDS
;	COMDAT __imp_?add_alloc@XStatistic@@QAEXXZ
_TEXT	SEGMENT PARA USE32 PUBLIC 'CODE'
_TEXT	ENDS
;	COMDAT __imp_?add_alloc2@XStatistic@@QAEXXZ
_TEXT	SEGMENT PARA USE32 PUBLIC 'CODE'
_TEXT	ENDS
;	COMDAT __imp_?add_alloc3@XStatistic@@QAEXXZ
_TEXT	SEGMENT PARA USE32 PUBLIC 'CODE'
_TEXT	ENDS
;	COMDAT __imp_??3XStatistic@@SAXPAX@Z
_TEXT	SEGMENT PARA USE32 PUBLIC 'CODE'
_TEXT	ENDS
;	COMDAT __imp_?push@XStatManager@@QAEXPAVXStatistic@@@Z
_TEXT	SEGMENT PARA USE32 PUBLIC 'CODE'
_TEXT	ENDS
;	COMDAT __imp_?pop@XStatManager@@QAEXPAVXStatistic@@@Z
_TEXT	SEGMENT PARA USE32 PUBLIC 'CODE'
_TEXT	ENDS
;	COMDAT __imp_??0CError@@QAE@XZ
_TEXT	SEGMENT PARA USE32 PUBLIC 'CODE'
_TEXT	ENDS
;	COMDAT ?is_locked@XMutex@@QAEKXZ
_TEXT	SEGMENT PARA USE32 PUBLIC 'CODE'
_TEXT	ENDS
;	COMDAT __imp_?assert@XGlobal@@QAEXPBDK@Z
_TEXT	SEGMENT PARA USE32 PUBLIC 'CODE'
_TEXT	ENDS
;	COMDAT __imp_??0CSysObj@@QAE@XZ
_TEXT	SEGMENT PARA USE32 PUBLIC 'CODE'
_TEXT	ENDS
;	COMDAT __imp_??1CSysObj@@QAE@XZ
_TEXT	SEGMENT PARA USE32 PUBLIC 'CODE'
_TEXT	ENDS
;	COMDAT __imp_??1CStrObj@@QAE@XZ
_TEXT	SEGMENT PARA USE32 PUBLIC 'CODE'
_TEXT	ENDS
;	COMDAT __imp_??3CStrObj@@SAXPAX@Z
_TEXT	SEGMENT PARA USE32 PUBLIC 'CODE'
_TEXT	ENDS
;	COMDAT __imp_?reset@CPrintf@@QAEXXZ
_TEXT	SEGMENT PARA USE32 PUBLIC 'CODE'
_TEXT	ENDS
;	COMDAT __imp_?str@CPrintf@@QAEKPBD@Z
_TEXT	SEGMENT PARA USE32 PUBLIC 'CODE'
_TEXT	ENDS
;	COMDAT __imp_?get_len@CPrintf@@QAEKXZ
_TEXT	SEGMENT PARA USE32 PUBLIC 'CODE'
_TEXT	ENDS
;	COMDAT __imp_?get_str@CPrintf@@QAEPBDXZ
_TEXT	SEGMENT PARA USE32 PUBLIC 'CODE'
_TEXT	ENDS
;	COMDAT __imp_?get_cur@CPrintf@@QAEPADXZ
_TEXT	SEGMENT PARA USE32 PUBLIC 'CODE'
_TEXT	ENDS
;	COMDAT __imp_?get_last@CPrintf@@QAEPADXZ
_TEXT	SEGMENT PARA USE32 PUBLIC 'CODE'
_TEXT	ENDS
;	COMDAT __imp_?set_cur@CPrintf@@QAEPADPBD@Z
_TEXT	SEGMENT PARA USE32 PUBLIC 'CODE'
_TEXT	ENDS
;	COMDAT __imp_?reset@StrGrow@@QAEXXZ
_TEXT	SEGMENT PARA USE32 PUBLIC 'CODE'
_TEXT	ENDS
;	COMDAT __imp_??BStrGrow@@QAEPADXZ
_TEXT	SEGMENT PARA USE32 PUBLIC 'CODE'
_TEXT	ENDS
;	COMDAT __imp_??0XBufferReadInt@@QAE@PAVCBaseStream@@@Z
_TEXT	SEGMENT PARA USE32 PUBLIC 'CODE'
_TEXT	ENDS
;	COMDAT __imp_??1XBufferReadInt@@UAE@XZ
_TEXT	SEGMENT PARA USE32 PUBLIC 'CODE'
_TEXT	ENDS
;	COMDAT __imp_??0XBufferWriteInt@@QAE@PAVCBaseStream@@@Z
_TEXT	SEGMENT PARA USE32 PUBLIC 'CODE'
_TEXT	ENDS
;	COMDAT __imp_??1XBufferWriteInt@@UAE@XZ
_TEXT	SEGMENT PARA USE32 PUBLIC 'CODE'
_TEXT	ENDS
;	COMDAT __imp_??1XStreamRdDirect@@UAE@XZ
_TEXT	SEGMENT PARA USE32 PUBLIC 'CODE'
_TEXT	ENDS
;	COMDAT __imp_??3XStreamRdDirect@@SAXPAX@Z
_TEXT	SEGMENT PARA USE32 PUBLIC 'CODE'
_TEXT	ENDS
;	COMDAT __imp_??1XStreamWrDirect@@UAE@XZ
_TEXT	SEGMENT PARA USE32 PUBLIC 'CODE'
_TEXT	ENDS
;	COMDAT __imp_??3XStreamWrDirect@@SAXPAX@Z
_TEXT	SEGMENT PARA USE32 PUBLIC 'CODE'
_TEXT	ENDS
;	COMDAT __imp_??1XMemRdBuffer@@UAE@XZ
_TEXT	SEGMENT PARA USE32 PUBLIC 'CODE'
_TEXT	ENDS
;	COMDAT __imp_??3XMemRdBuffer@@SAXPAX@Z
_TEXT	SEGMENT PARA USE32 PUBLIC 'CODE'
_TEXT	ENDS
;	COMDAT __imp_?is_open@CBaseStream@@IAEKXZ
_TEXT	SEGMENT PARA USE32 PUBLIC 'CODE'
_TEXT	ENDS
;	COMDAT __imp_??1CBaseStream@@QAE@XZ
_TEXT	SEGMENT PARA USE32 PUBLIC 'CODE'
_TEXT	ENDS
;	COMDAT ??0FindState@@QAE@XZ
_TEXT	SEGMENT PARA USE32 PUBLIC 'CODE'
_TEXT	ENDS
;	COMDAT ??2@YAPAXIPAX@Z
_TEXT	SEGMENT PARA USE32 PUBLIC 'CODE'
_TEXT	ENDS
;	COMDAT ??3@YAXPAX0@Z
_TEXT	SEGMENT PARA USE32 PUBLIC 'CODE'
_TEXT	ENDS
;	COMDAT ?Set@CCorString@@QAEXPAD@Z
_TEXT	SEGMENT PARA USE32 PUBLIC 'CODE'
_TEXT	ENDS
;	COMDAT ?Cat@CCorString@@QAEXPAD@Z
_TEXT	SEGMENT PARA USE32 PUBLIC 'CODE'
_TEXT	ENDS
;	COMDAT ?Setf@CCorString@@QAAXPADZZ
_TEXT	SEGMENT PARA USE32 PUBLIC 'CODE'
_TEXT	ENDS
;	COMDAT ?Catf@CCorString@@QAAXPADZZ
_TEXT	SEGMENT PARA USE32 PUBLIC 'CODE'
_TEXT	ENDS
;	COMDAT ??0CCorString@@QAE@XZ
_TEXT	SEGMENT PARA USE32 PUBLIC 'CODE'
_TEXT	ENDS
;	COMDAT ??1CCorString@@QAE@XZ
_TEXT	SEGMENT PARA USE32 PUBLIC 'CODE'
_TEXT	ENDS
;	COMDAT ??0CCorString@@QAE@ABV0@@Z
_TEXT	SEGMENT PARA USE32 PUBLIC 'CODE'
_TEXT	ENDS
;	COMDAT ??0CCorString@@QAE@PBD@Z
_TEXT	SEGMENT PARA USE32 PUBLIC 'CODE'
_TEXT	ENDS
;	COMDAT ??4CCorString@@QAEAAV0@ABV0@@Z
_TEXT	SEGMENT PARA USE32 PUBLIC 'CODE'
_TEXT	ENDS
;	COMDAT ??4CCorString@@QAEAAV0@PBD@Z
_TEXT	SEGMENT PARA USE32 PUBLIC 'CODE'
_TEXT	ENDS
;	COMDAT ??YCCorString@@QAEAAV0@ABV0@@Z
_TEXT	SEGMENT PARA USE32 PUBLIC 'CODE'
_TEXT	ENDS
;	COMDAT ??YCCorString@@QAEAAV0@PBD@Z
_TEXT	SEGMENT PARA USE32 PUBLIC 'CODE'
_TEXT	ENDS
;	COMDAT ??H@YA?AVCCorString@@ABV0@PBD@Z
_TEXT	SEGMENT PARA USE32 PUBLIC 'CODE'
_TEXT	ENDS
;	COMDAT ??8CCorString@@QAE_NABV0@@Z
_TEXT	SEGMENT PARA USE32 PUBLIC 'CODE'
_TEXT	ENDS
;	COMDAT ??9CCorString@@QAE_NABV0@@Z
_TEXT	SEGMENT PARA USE32 PUBLIC 'CODE'
_TEXT	ENDS
;	COMDAT ??ECCorString@@QAEXXZ
_TEXT	SEGMENT PARA USE32 PUBLIC 'CODE'
_TEXT	ENDS
;	COMDAT ??ECCorString@@QAEXH@Z
_TEXT	SEGMENT PARA USE32 PUBLIC 'CODE'
_TEXT	ENDS
;	COMDAT ??FCCorString@@QAEXXZ
_TEXT	SEGMENT PARA USE32 PUBLIC 'CODE'
_TEXT	ENDS
;	COMDAT ??FCCorString@@QAEXH@Z
_TEXT	SEGMENT PARA USE32 PUBLIC 'CODE'
_TEXT	ENDS
;	COMDAT ??HCCorString@@QAE?AV0@XZ
_TEXT	SEGMENT PARA USE32 PUBLIC 'CODE'
_TEXT	ENDS
;	COMDAT ??GCCorString@@QAE?AV0@XZ
_TEXT	SEGMENT PARA USE32 PUBLIC 'CODE'
_TEXT	ENDS
;	COMDAT ??DCCorString@@QBEPADXZ
_TEXT	SEGMENT PARA USE32 PUBLIC 'CODE'
_TEXT	ENDS
;	COMDAT ?Len@CCorString@@QBEKXZ
_TEXT	SEGMENT PARA USE32 PUBLIC 'CODE'
_TEXT	ENDS
;	COMDAT ?Str@CCorString@@QBEPADXZ
_TEXT	SEGMENT PARA USE32 PUBLIC 'CODE'
_TEXT	ENDS
;	COMDAT ?GetStaticMemSize@CCorString@@SAKXZ
_TEXT	SEGMENT PARA USE32 PUBLIC 'CODE'
_TEXT	ENDS
;	COMDAT ?ReadByte@ICorStreamRead@@QAEEXZ
_TEXT	SEGMENT PARA USE32 PUBLIC 'CODE'
_TEXT	ENDS
;	COMDAT ?ReadWord@ICorStreamRead@@QAEGXZ
_TEXT	SEGMENT PARA USE32 PUBLIC 'CODE'
_TEXT	ENDS
;	COMDAT ?ReadDword@ICorStreamRead@@QAEKXZ
_TEXT	SEGMENT PARA USE32 PUBLIC 'CODE'
_TEXT	ENDS
;	COMDAT ?ReadSByte@ICorStreamRead@@QAECXZ
_TEXT	SEGMENT PARA USE32 PUBLIC 'CODE'
_TEXT	ENDS
;	COMDAT ?ReadSWord@ICorStreamRead@@QAEFXZ
_TEXT	SEGMENT PARA USE32 PUBLIC 'CODE'
_TEXT	ENDS
;	COMDAT ?ReadSDword@ICorStreamRead@@QAEJXZ
_TEXT	SEGMENT PARA USE32 PUBLIC 'CODE'
_TEXT	ENDS
;	COMDAT ?ReadFloat@ICorStreamRead@@QAEMXZ
_TEXT	SEGMENT PARA USE32 PUBLIC 'CODE'
_TEXT	ENDS
;	COMDAT ?ReadDouble@ICorStreamRead@@QAENXZ
_TEXT	SEGMENT PARA USE32 PUBLIC 'CODE'
_TEXT	ENDS
;	COMDAT ?ReadString@ICorStreamRead@@QAEPADXZ
_TEXT	SEGMENT PARA USE32 PUBLIC 'CODE'
_TEXT	ENDS
;	COMDAT ?WriteByte@ICorStreamWrite@@QAE_NE@Z
_TEXT	SEGMENT PARA USE32 PUBLIC 'CODE'
_TEXT	ENDS
;	COMDAT ?WriteWord@ICorStreamWrite@@QAE_NG@Z
_TEXT	SEGMENT PARA USE32 PUBLIC 'CODE'
_TEXT	ENDS
;	COMDAT ?WriteDword@ICorStreamWrite@@QAE_NK@Z
_TEXT	SEGMENT PARA USE32 PUBLIC 'CODE'
_TEXT	ENDS
;	COMDAT ?WriteSByte@ICorStreamWrite@@QAE_NC@Z
_TEXT	SEGMENT PARA USE32 PUBLIC 'CODE'
_TEXT	ENDS
;	COMDAT ?WriteSWord@ICorStreamWrite@@QAE_NF@Z
_TEXT	SEGMENT PARA USE32 PUBLIC 'CODE'
_TEXT	ENDS
;	COMDAT ?WriteSDword@ICorStreamWrite@@QAE_NJ@Z
_TEXT	SEGMENT PARA USE32 PUBLIC 'CODE'
_TEXT	ENDS
;	COMDAT ?WriteFloat@ICorStreamWrite@@QAE_NM@Z
_TEXT	SEGMENT PARA USE32 PUBLIC 'CODE'
_TEXT	ENDS
;	COMDAT ?WriteDouble@ICorStreamWrite@@QAE_NN@Z
_TEXT	SEGMENT PARA USE32 PUBLIC 'CODE'
_TEXT	ENDS
;	COMDAT ?WriteString@ICorStreamWrite@@QAE_NPAD@Z
_TEXT	SEGMENT PARA USE32 PUBLIC 'CODE'
_TEXT	ENDS
;	COMDAT ?Realloc@CCorArray@@IAEXK@Z
_TEXT	SEGMENT PARA USE32 PUBLIC 'CODE'
_TEXT	ENDS
;	COMDAT ??0CCorArray@@IAE@KK@Z
_TEXT	SEGMENT PARA USE32 PUBLIC 'CODE'
_TEXT	ENDS
;	COMDAT ??1CCorArray@@IAE@XZ
_TEXT	SEGMENT PARA USE32 PUBLIC 'CODE'
_TEXT	ENDS
;	COMDAT ?Remove@CCorArray@@QAEXKKK@Z
_TEXT	SEGMENT PARA USE32 PUBLIC 'CODE'
_TEXT	ENDS
;	COMDAT ?M_Fabs@@YAMM@Z
_TEXT	SEGMENT PARA USE32 PUBLIC 'CODE'
_TEXT	ENDS
;	COMDAT ?M_Det2x2@@YAMMMMM@Z
_TEXT	SEGMENT PARA USE32 PUBLIC 'CODE'
_TEXT	ENDS
;	COMDAT ?M_Det3x3@@YAMMMMMMMMMM@Z
_TEXT	SEGMENT PARA USE32 PUBLIC 'CODE'
_TEXT	ENDS
;	COMDAT ??0VVec2@@QAE@XZ
_TEXT	SEGMENT PARA USE32 PUBLIC 'CODE'
_TEXT	ENDS
;	COMDAT ??0VVec2@@QAE@ABV0@@Z
_TEXT	SEGMENT PARA USE32 PUBLIC 'CODE'
_TEXT	ENDS
;	COMDAT ??0VVec2@@QAE@MM@Z
_TEXT	SEGMENT PARA USE32 PUBLIC 'CODE'
_TEXT	ENDS
;	COMDAT ??4VVec2@@QAEAAV0@ABV0@@Z
_TEXT	SEGMENT PARA USE32 PUBLIC 'CODE'
_TEXT	ENDS
;	COMDAT ?Length2@VVec2@@QBEMXZ
_TEXT	SEGMENT PARA USE32 PUBLIC 'CODE'
_TEXT	ENDS
;	COMDAT ?Length@VVec2@@QBEMXZ
_TEXT	SEGMENT PARA USE32 PUBLIC 'CODE'
_TEXT	ENDS
;	COMDAT ?Normalize@VVec2@@QAEMXZ
_TEXT	SEGMENT PARA USE32 PUBLIC 'CODE'
_TEXT	ENDS
;	COMDAT ??H@YA?AVVVec2@@ABV0@0@Z
_TEXT	SEGMENT PARA USE32 PUBLIC 'CODE'
_TEXT	ENDS
;	COMDAT ??G@YA?AVVVec2@@ABV0@0@Z
_TEXT	SEGMENT PARA USE32 PUBLIC 'CODE'
_TEXT	ENDS
;	COMDAT ??D@YA?AVVVec2@@ABV0@M@Z
_TEXT	SEGMENT PARA USE32 PUBLIC 'CODE'
_TEXT	ENDS
;	COMDAT ??I@YAMABVVVec2@@0@Z
_TEXT	SEGMENT PARA USE32 PUBLIC 'CODE'
_TEXT	ENDS
;	COMDAT ??U@YAMABVVVec2@@0@Z
_TEXT	SEGMENT PARA USE32 PUBLIC 'CODE'
_TEXT	ENDS
;	COMDAT ??S@YA?AVVVec2@@ABV0@@Z
_TEXT	SEGMENT PARA USE32 PUBLIC 'CODE'
_TEXT	ENDS
;	COMDAT ??0VVec3@@QAE@XZ
_TEXT	SEGMENT PARA USE32 PUBLIC 'CODE'
_TEXT	ENDS
;	COMDAT ??0VVec3@@QAE@ABV0@@Z
_TEXT	SEGMENT PARA USE32 PUBLIC 'CODE'
_TEXT	ENDS
;	COMDAT ??0VVec3@@QAE@MMM@Z
_TEXT	SEGMENT PARA USE32 PUBLIC 'CODE'
_TEXT	ENDS
;	COMDAT ??0VVec3@@QAE@ABVVVec2@@@Z
_TEXT	SEGMENT PARA USE32 PUBLIC 'CODE'
_TEXT	ENDS
;	COMDAT ??4VVec3@@QAEAAV0@ABV0@@Z
_TEXT	SEGMENT PARA USE32 PUBLIC 'CODE'
_TEXT	ENDS
;	COMDAT ??YVVec3@@QAEAAV0@ABV0@@Z
_TEXT	SEGMENT PARA USE32 PUBLIC 'CODE'
_TEXT	ENDS
;	COMDAT ??ZVVec3@@QAEAAV0@ABV0@@Z
_TEXT	SEGMENT PARA USE32 PUBLIC 'CODE'
_TEXT	ENDS
;	COMDAT ??XVVec3@@QAEAAV0@ABV0@@Z
_TEXT	SEGMENT PARA USE32 PUBLIC 'CODE'
_TEXT	ENDS
;	COMDAT ??_0VVec3@@QAEAAV0@ABV0@@Z
_TEXT	SEGMENT PARA USE32 PUBLIC 'CODE'
_TEXT	ENDS
;	COMDAT ??XVVec3@@QAEAAV0@M@Z
_TEXT	SEGMENT PARA USE32 PUBLIC 'CODE'
_TEXT	ENDS
;	COMDAT ??_0VVec3@@QAEAAV0@M@Z
_TEXT	SEGMENT PARA USE32 PUBLIC 'CODE'
_TEXT	ENDS
;	COMDAT ??BVVec3@@QAEPAMXZ
_TEXT	SEGMENT PARA USE32 PUBLIC 'CODE'
_TEXT	ENDS
;	COMDAT ??BVVec3@@QBEPAMXZ
_TEXT	SEGMENT PARA USE32 PUBLIC 'CODE'
_TEXT	ENDS
;	COMDAT ?Length2@VVec3@@QBEMXZ
_TEXT	SEGMENT PARA USE32 PUBLIC 'CODE'
_TEXT	ENDS
;	COMDAT ?Length@VVec3@@QBEMXZ
_TEXT	SEGMENT PARA USE32 PUBLIC 'CODE'
_TEXT	ENDS
;	COMDAT ?Normalize@VVec3@@QAEMXZ
_TEXT	SEGMENT PARA USE32 PUBLIC 'CODE'
_TEXT	ENDS
;	COMDAT ?Dominant@VVec3@@QBEHXZ
_TEXT	SEGMENT PARA USE32 PUBLIC 'CODE'
_TEXT	ENDS
;	COMDAT ??G@YA?AVVVec3@@ABV0@@Z
_TEXT	SEGMENT PARA USE32 PUBLIC 'CODE'
_TEXT	ENDS
;	COMDAT ??H@YA?AVVVec3@@ABV0@0@Z
_TEXT	SEGMENT PARA USE32 PUBLIC 'CODE'
_TEXT	ENDS
;	COMDAT ??G@YA?AVVVec3@@ABV0@0@Z
_TEXT	SEGMENT PARA USE32 PUBLIC 'CODE'
_TEXT	ENDS
;	COMDAT ??D@YA?AVVVec3@@ABV0@0@Z
_TEXT	SEGMENT PARA USE32 PUBLIC 'CODE'
_TEXT	ENDS
;	COMDAT ??K@YA?AVVVec3@@ABV0@0@Z
_TEXT	SEGMENT PARA USE32 PUBLIC 'CODE'
_TEXT	ENDS
;	COMDAT ??D@YA?AVVVec3@@ABV0@M@Z
_TEXT	SEGMENT PARA USE32 PUBLIC 'CODE'
_TEXT	ENDS
;	COMDAT ??K@YA?AVVVec3@@ABV0@M@Z
_TEXT	SEGMENT PARA USE32 PUBLIC 'CODE'
_TEXT	ENDS
;	COMDAT ??I@YAMABVVVec3@@0@Z
_TEXT	SEGMENT PARA USE32 PUBLIC 'CODE'
_TEXT	ENDS
;	COMDAT ??U@YAMABVVVec3@@0@Z
_TEXT	SEGMENT PARA USE32 PUBLIC 'CODE'
_TEXT	ENDS
;	COMDAT ??T@YA?AVVVec3@@ABV0@0@Z
_TEXT	SEGMENT PARA USE32 PUBLIC 'CODE'
_TEXT	ENDS
;	COMDAT ??S@YA?AVVVec3@@ABV0@@Z
_TEXT	SEGMENT PARA USE32 PUBLIC 'CODE'
_TEXT	ENDS
;	COMDAT ??0VVec4@@QAE@MMMM@Z
_TEXT	SEGMENT PARA USE32 PUBLIC 'CODE'
_TEXT	ENDS
;	COMDAT ??BVVec4@@QAEPAMXZ
_TEXT	SEGMENT PARA USE32 PUBLIC 'CODE'
_TEXT	ENDS
;	COMDAT ?Length2@VVec4@@QBEMXZ
_TEXT	SEGMENT PARA USE32 PUBLIC 'CODE'
_TEXT	ENDS
;	COMDAT ?Length@VVec4@@QBEMXZ
_TEXT	SEGMENT PARA USE32 PUBLIC 'CODE'
_TEXT	ENDS
;	COMDAT ??G@YA?AVVVec4@@ABV0@0@Z
_TEXT	SEGMENT PARA USE32 PUBLIC 'CODE'
_TEXT	ENDS
;	COMDAT ??0VQuat3@@QAE@XZ
_TEXT	SEGMENT PARA USE32 PUBLIC 'CODE'
_TEXT	ENDS
;	COMDAT ??0VQuat3@@QAE@ABV0@@Z
_TEXT	SEGMENT PARA USE32 PUBLIC 'CODE'
_TEXT	ENDS
;	COMDAT ??0VQuat3@@QAE@ABVVVec3@@M@Z
_TEXT	SEGMENT PARA USE32 PUBLIC 'CODE'
_TEXT	ENDS
;	COMDAT ?AxisAngle@VQuat3@@QAEXABVVVec3@@M@Z
_TEXT	SEGMENT PARA USE32 PUBLIC 'CODE'
_TEXT	ENDS
;	COMDAT ??4VQuat3@@QAEAAV0@ABV0@@Z
_TEXT	SEGMENT PARA USE32 PUBLIC 'CODE'
_TEXT	ENDS
;	COMDAT ?Length@VQuat3@@QBEMXZ
_TEXT	SEGMENT PARA USE32 PUBLIC 'CODE'
_TEXT	ENDS
;	COMDAT ?Normalize@VQuat3@@QAEMXZ
_TEXT	SEGMENT PARA USE32 PUBLIC 'CODE'
_TEXT	ENDS
;	COMDAT ??G@YA?AVVQuat3@@ABV0@@Z
_TEXT	SEGMENT PARA USE32 PUBLIC 'CODE'
_TEXT	ENDS
;	COMDAT ??D@YA?AVVQuat3@@ABV0@0@Z
_TEXT	SEGMENT PARA USE32 PUBLIC 'CODE'
_TEXT	ENDS
;	COMDAT ??U@YAMABVVQuat3@@0@Z
_TEXT	SEGMENT PARA USE32 PUBLIC 'CODE'
_TEXT	ENDS
;	COMDAT ??8@YA_NABVVQuat3@@0@Z
_TEXT	SEGMENT PARA USE32 PUBLIC 'CODE'
_TEXT	ENDS
;	COMDAT ??0VEulers3@@QAE@XZ
_TEXT	SEGMENT PARA USE32 PUBLIC 'CODE'
_TEXT	ENDS
;	COMDAT ??0VEulers3@@QAE@ABV0@@Z
_TEXT	SEGMENT PARA USE32 PUBLIC 'CODE'
_TEXT	ENDS
;	COMDAT ??0VEulers3@@QAE@MMM@Z
_TEXT	SEGMENT PARA USE32 PUBLIC 'CODE'
_TEXT	ENDS
;	COMDAT ??4VEulers3@@QAEAAV0@ABV0@@Z
_TEXT	SEGMENT PARA USE32 PUBLIC 'CODE'
_TEXT	ENDS
;	COMDAT ??8@YA_NABVVEulers3@@0@Z
_TEXT	SEGMENT PARA USE32 PUBLIC 'CODE'
_TEXT	ENDS
;	COMDAT ??0VAxes3@@QAE@XZ
_TEXT	SEGMENT PARA USE32 PUBLIC 'CODE'
_TEXT	ENDS
;	COMDAT ??0VAxes3@@QAE@ABV0@@Z
_TEXT	SEGMENT PARA USE32 PUBLIC 'CODE'
_TEXT	ENDS
;	COMDAT ??0VAxes3@@QAE@ABVVVec3@@00@Z
_TEXT	SEGMENT PARA USE32 PUBLIC 'CODE'
_TEXT	ENDS
;	COMDAT ??0VAxes3@@QAE@ABVVQuat3@@@Z
_TEXT	SEGMENT PARA USE32 PUBLIC 'CODE'
_TEXT	ENDS
;	COMDAT ??0VAxes3@@QAE@ABVVEulers3@@@Z
_TEXT	SEGMENT PARA USE32 PUBLIC 'CODE'
_TEXT	ENDS
;	COMDAT ??4VAxes3@@QAEAAV0@ABV0@@Z
_TEXT	SEGMENT PARA USE32 PUBLIC 'CODE'
_TEXT	ENDS
;	COMDAT ??_2VAxes3@@QAEAAV0@ABV0@@Z
_TEXT	SEGMENT PARA USE32 PUBLIC 'CODE'
_TEXT	ENDS
;	COMDAT ??S@YA?AVVAxes3@@ABV0@@Z
_TEXT	SEGMENT PARA USE32 PUBLIC 'CODE'
_TEXT	ENDS
;	COMDAT ??5@YA?AVVVec3@@ABV0@ABVVAxes3@@@Z
_TEXT	SEGMENT PARA USE32 PUBLIC 'CODE'
_TEXT	ENDS
;	COMDAT ??6@YA?AVVVec3@@ABV0@ABVVAxes3@@@Z
_TEXT	SEGMENT PARA USE32 PUBLIC 'CODE'
_TEXT	ENDS
;	COMDAT ??5@YA?AVVAxes3@@ABV0@0@Z
_TEXT	SEGMENT PARA USE32 PUBLIC 'CODE'
_TEXT	ENDS
;	COMDAT ??6@YA?AVVAxes3@@ABV0@0@Z
_TEXT	SEGMENT PARA USE32 PUBLIC 'CODE'
_TEXT	ENDS
;	COMDAT ??0VCoords3@@QAE@XZ
_TEXT	SEGMENT PARA USE32 PUBLIC 'CODE'
_TEXT	ENDS
;	COMDAT ??0VCoords3@@QAE@ABV0@@Z
_TEXT	SEGMENT PARA USE32 PUBLIC 'CODE'
_TEXT	ENDS
;	COMDAT ??0VCoords3@@QAE@ABVVAxes3@@ABVVVec3@@1@Z
_TEXT	SEGMENT PARA USE32 PUBLIC 'CODE'
_TEXT	ENDS
;	COMDAT ??4VCoords3@@QAEAAV0@ABV0@@Z
_TEXT	SEGMENT PARA USE32 PUBLIC 'CODE'
_TEXT	ENDS
;	COMDAT ??_2VCoords3@@QAEAAV0@ABV0@@Z
_TEXT	SEGMENT PARA USE32 PUBLIC 'CODE'
_TEXT	ENDS
;	COMDAT ??_3VCoords3@@QAEAAV0@ABV0@@Z
_TEXT	SEGMENT PARA USE32 PUBLIC 'CODE'
_TEXT	ENDS
;	COMDAT ??S@YA?AVVCoords3@@ABV0@@Z
_TEXT	SEGMENT PARA USE32 PUBLIC 'CODE'
_TEXT	ENDS
;	COMDAT ??5@YA?AVVVec3@@ABV0@ABVVCoords3@@@Z
_TEXT	SEGMENT PARA USE32 PUBLIC 'CODE'
_TEXT	ENDS
;	COMDAT ??6@YA?AVVVec3@@ABV0@ABVVCoords3@@@Z
_TEXT	SEGMENT PARA USE32 PUBLIC 'CODE'
_TEXT	ENDS
;	COMDAT ??5@YA?AVVCoords3@@ABV0@0@Z
_TEXT	SEGMENT PARA USE32 PUBLIC 'CODE'
_TEXT	ENDS
;	COMDAT ??6@YA?AVVCoords3@@ABV0@0@Z
_TEXT	SEGMENT PARA USE32 PUBLIC 'CODE'
_TEXT	ENDS
;	COMDAT ??_3VVec3@@QAEAAV0@ABVVCoords3@@@Z
_TEXT	SEGMENT PARA USE32 PUBLIC 'CODE'
_TEXT	ENDS
;	COMDAT ??0VQuat3@@QAE@ABVVAxes3@@@Z
_TEXT	SEGMENT PARA USE32 PUBLIC 'CODE'
_TEXT	ENDS
;	COMDAT ?Slerp@VQuat3@@QAEXABV1@0MM_N@Z
_TEXT	SEGMENT PARA USE32 PUBLIC 'CODE'
_TEXT	ENDS
;	COMDAT ??0IMsgRouter@@QAE@XZ
_TEXT	SEGMENT PARA USE32 PUBLIC 'CODE'
_TEXT	ENDS
;	COMDAT ??0IMsgRouter@@QAE@ABV0@@Z
_TEXT	SEGMENT PARA USE32 PUBLIC 'CODE'
_TEXT	ENDS
;	COMDAT ??4IMsgRouter@@QAEAAV0@ABV0@@Z
_TEXT	SEGMENT PARA USE32 PUBLIC 'CODE'
_TEXT	ENDS
;	COMDAT ??0IMsgTarget@@QAE@XZ
_TEXT	SEGMENT PARA USE32 PUBLIC 'CODE'
_TEXT	ENDS
;	COMDAT ??0IMsgTarget@@QAE@ABV0@@Z
_TEXT	SEGMENT PARA USE32 PUBLIC 'CODE'
_TEXT	ENDS
;	COMDAT ??4IMsgTarget@@QAEAAV0@ABV0@@Z
_TEXT	SEGMENT PARA USE32 PUBLIC 'CODE'
_TEXT	ENDS
;	COMDAT ?GetFirstInterface@CObjInterface@@SAPAV1@XZ
_TEXT	SEGMENT PARA USE32 PUBLIC 'CODE'
_TEXT	ENDS
;	COMDAT ?GetNextInterface@CObjInterface@@QAEPAV1@XZ
_TEXT	SEGMENT PARA USE32 PUBLIC 'CODE'
_TEXT	ENDS
;	COMDAT ??0CObjInterface@@QAE@ABV0@@Z
_TEXT	SEGMENT PARA USE32 PUBLIC 'CODE'
_TEXT	ENDS
;	COMDAT ??4CObjInterface@@QAEAAV0@ABV0@@Z
_TEXT	SEGMENT PARA USE32 PUBLIC 'CODE'
_TEXT	ENDS
;	COMDAT ?GetFirstClass@CObjClass@@SAPAV1@XZ
_TEXT	SEGMENT PARA USE32 PUBLIC 'CODE'
_TEXT	ENDS
;	COMDAT ?GetNextClass@CObjClass@@QAEPAV1@XZ
_TEXT	SEGMENT PARA USE32 PUBLIC 'CODE'
_TEXT	ENDS
;	COMDAT ??0CObjClass@@QAE@XZ
_TEXT	SEGMENT PARA USE32 PUBLIC 'CODE'
_TEXT	ENDS
;	COMDAT ??0CObjClass@@QAE@ABV0@@Z
_TEXT	SEGMENT PARA USE32 PUBLIC 'CODE'
_TEXT	ENDS
;	COMDAT ??4CObjClass@@QAEAAV0@ABV0@@Z
_TEXT	SEGMENT PARA USE32 PUBLIC 'CODE'
_TEXT	ENDS
;	COMDAT ?GetChild@CObjLink@@QAEPAVOObject@@XZ
_TEXT	SEGMENT PARA USE32 PUBLIC 'CODE'
_TEXT	ENDS
;	COMDAT ?SetChild@CObjLink@@QAEXPAVOObject@@@Z
_TEXT	SEGMENT PARA USE32 PUBLIC 'CODE'
_TEXT	ENDS
;	COMDAT ?GetParent@CObjLink@@QAEPAVOObject@@XZ
_TEXT	SEGMENT PARA USE32 PUBLIC 'CODE'
_TEXT	ENDS
;	COMDAT ?SetParent@CObjLink@@QAEXPAVOObject@@@Z
_TEXT	SEGMENT PARA USE32 PUBLIC 'CODE'
_TEXT	ENDS
;	COMDAT ?GetNext@CObjLink@@QAEPAV1@XZ
_TEXT	SEGMENT PARA USE32 PUBLIC 'CODE'
_TEXT	ENDS
;	COMDAT ?SetNext@CObjLink@@QAEXPAV1@@Z
_TEXT	SEGMENT PARA USE32 PUBLIC 'CODE'
_TEXT	ENDS
;	COMDAT ?GetPrev@CObjLink@@QAEPAV1@XZ
_TEXT	SEGMENT PARA USE32 PUBLIC 'CODE'
_TEXT	ENDS
;	COMDAT ?SetPrev@CObjLink@@QAEXPAV1@@Z
_TEXT	SEGMENT PARA USE32 PUBLIC 'CODE'
_TEXT	ENDS
;	COMDAT ?PreConstruct@CObjLink@@QAEXXZ
_TEXT	SEGMENT PARA USE32 PUBLIC 'CODE'
_TEXT	ENDS
;	COMDAT ??0CObjLink@@QAE@XZ
_TEXT	SEGMENT PARA USE32 PUBLIC 'CODE'
_TEXT	ENDS
;	COMDAT ??1CObjLink@@QAE@XZ
_TEXT	SEGMENT PARA USE32 PUBLIC 'CODE'
_TEXT	ENDS
;	COMDAT ??4CObjLink@@QAEAAV0@ABV0@@Z
_TEXT	SEGMENT PARA USE32 PUBLIC 'CODE'
_TEXT	ENDS
;	COMDAT ??2OObject@@CAPAXIPAV0@PAVCObjClass@@@Z
_TEXT	SEGMENT PARA USE32 PUBLIC 'CODE'
_TEXT	ENDS
;	COMDAT ??3OObject@@CAXPAX@Z
_TEXT	SEGMENT PARA USE32 PUBLIC 'CODE'
_TEXT	ENDS
;	COMDAT ??3OObject@@CAXPAXPAV0@PAVCObjClass@@@Z
_TEXT	SEGMENT PARA USE32 PUBLIC 'CODE'
_TEXT	ENDS
;	COMDAT ?GetStaticClass@OObject@@SAPAVCObjClass@@XZ
_TEXT	SEGMENT PARA USE32 PUBLIC 'CODE'
_TEXT	ENDS
;	COMDAT ?New@OObject@@SAPAV1@PAV1@PAVCObjClass@@@Z
_TEXT	SEGMENT PARA USE32 PUBLIC 'CODE'
_TEXT	ENDS
;	COMDAT ?GetClass@OObject@@UAEPAVCObjClass@@XZ
_TEXT	SEGMENT PARA USE32 PUBLIC 'CODE'
_TEXT	ENDS
;	COMDAT ?SetClass@OObject@@QAEXPAVCObjClass@@@Z
_TEXT	SEGMENT PARA USE32 PUBLIC 'CODE'
_TEXT	ENDS
;	COMDAT ?SetValid@OObject@@QAEX_N@Z
_TEXT	SEGMENT PARA USE32 PUBLIC 'CODE'
_TEXT	ENDS
;	COMDAT ?GetObjectCount@OObject@@SAKXZ
_TEXT	SEGMENT PARA USE32 PUBLIC 'CODE'
_TEXT	ENDS
;	COMDAT ?HasName@OObject@@QAE_NXZ
_TEXT	SEGMENT PARA USE32 PUBLIC 'CODE'
_TEXT	ENDS
;	COMDAT ?GetName@OObject@@QAEPBDXZ
_TEXT	SEGMENT PARA USE32 PUBLIC 'CODE'
_TEXT	ENDS
;	COMDAT ?GetNameHash@OObject@@QAEKXZ
_TEXT	SEGMENT PARA USE32 PUBLIC 'CODE'
_TEXT	ENDS
;	COMDAT ?SetName@OObject@@QAEXPBD@Z
_TEXT	SEGMENT PARA USE32 PUBLIC 'CODE'
_TEXT	ENDS
;	COMDAT ?GetFlags@OObject@@QAEKXZ
_TEXT	SEGMENT PARA USE32 PUBLIC 'CODE'
_TEXT	ENDS
;	COMDAT ?SetFlags@OObject@@QAEXK@Z
_TEXT	SEGMENT PARA USE32 PUBLIC 'CODE'
_TEXT	ENDS
;	COMDAT ?AddFlags@OObject@@QAEXK@Z
_TEXT	SEGMENT PARA USE32 PUBLIC 'CODE'
_TEXT	ENDS
;	COMDAT ?SubFlags@OObject@@QAEXK@Z
_TEXT	SEGMENT PARA USE32 PUBLIC 'CODE'
_TEXT	ENDS
;	COMDAT ?IsValid@OObject@@QAE_NXZ
_TEXT	SEGMENT PARA USE32 PUBLIC 'CODE'
_TEXT	ENDS
;	COMDAT ?HasChildren@OObject@@UAE_NXZ
_TEXT	SEGMENT PARA USE32 PUBLIC 'CODE'
_TEXT	ENDS
;	COMDAT ?IsA@OObject@@UAE_NPAVCObjClass@@@Z
_TEXT	SEGMENT PARA USE32 PUBLIC 'CODE'
_TEXT	ENDS
;	COMDAT ??0OObject@@QAE@ABV0@@Z
_TEXT	SEGMENT PARA USE32 PUBLIC 'CODE'
_TEXT	ENDS
;	COMDAT ??4OObject@@QAEAAV0@ABV0@@Z
_TEXT	SEGMENT PARA USE32 PUBLIC 'CODE'
_TEXT	ENDS
;	COMDAT ??_GOObject@@UAEPAXI@Z
_TEXT	SEGMENT PARA USE32 PUBLIC 'CODE'
_TEXT	ENDS
;	COMDAT ??_EOObject@@UAEPAXI@Z
_TEXT	SEGMENT PARA USE32 PUBLIC 'CODE'
_TEXT	ENDS
;	COMDAT ?GetObject@CObjIter@@IAEPAVOObject@@XZ
_TEXT	SEGMENT PARA USE32 PUBLIC 'CODE'
_TEXT	ENDS
;	COMDAT ?GetNext@CObjIter@@IAEXXZ
_TEXT	SEGMENT PARA USE32 PUBLIC 'CODE'
_TEXT	ENDS
;	COMDAT ?Advance@CObjIter@@IAEXXZ
_TEXT	SEGMENT PARA USE32 PUBLIC 'CODE'
_TEXT	ENDS
;	COMDAT ?Reset@CObjIter@@QAEXPAVOObject@@_N@Z
_TEXT	SEGMENT PARA USE32 PUBLIC 'CODE'
_TEXT	ENDS
;	COMDAT ??0CObjIter@@QAE@PAVOObject@@_N@Z
_TEXT	SEGMENT PARA USE32 PUBLIC 'CODE'
_TEXT	ENDS
;	COMDAT ??BCObjIter@@QAE_NXZ
_TEXT	SEGMENT PARA USE32 PUBLIC 'CODE'
_TEXT	ENDS
;	COMDAT ?LinkBefore@CObjLink@@QAEXPAV1@@Z
_TEXT	SEGMENT PARA USE32 PUBLIC 'CODE'
_TEXT	ENDS
;	COMDAT ?LinkAfter@CObjLink@@QAEXPAV1@@Z
_TEXT	SEGMENT PARA USE32 PUBLIC 'CODE'
_TEXT	ENDS
;	COMDAT ?Unlink@CObjLink@@QAEXXZ
_TEXT	SEGMENT PARA USE32 PUBLIC 'CODE'
_TEXT	ENDS
;	COMDAT ??2OCpjRes@@CAPAXIPAVOObject@@PAVCObjClass@@@Z
_TEXT	SEGMENT PARA USE32 PUBLIC 'CODE'
_TEXT	ENDS
;	COMDAT ??3OCpjRes@@CAXPAX@Z
_TEXT	SEGMENT PARA USE32 PUBLIC 'CODE'
_TEXT	ENDS
;	COMDAT ??3OCpjRes@@CAXPAXPAVOObject@@PAVCObjClass@@@Z
_TEXT	SEGMENT PARA USE32 PUBLIC 'CODE'
_TEXT	ENDS
;	COMDAT ?GetStaticClass@OCpjRes@@SAPAVCObjClass@@XZ
_TEXT	SEGMENT PARA USE32 PUBLIC 'CODE'
_TEXT	ENDS
;	COMDAT ?New@OCpjRes@@SAPAV1@PAVOObject@@PAVCObjClass@@@Z
_TEXT	SEGMENT PARA USE32 PUBLIC 'CODE'
_TEXT	ENDS
;	COMDAT ?GetClass@OCpjRes@@UAEPAVCObjClass@@XZ
_TEXT	SEGMENT PARA USE32 PUBLIC 'CODE'
_TEXT	ENDS
;	COMDAT ?GetFileExtension@OCpjRes@@UAEPADXZ
_TEXT	SEGMENT PARA USE32 PUBLIC 'CODE'
_TEXT	ENDS
;	COMDAT ?GetFileDescription@OCpjRes@@UAEPADXZ
_TEXT	SEGMENT PARA USE32 PUBLIC 'CODE'
_TEXT	ENDS
;	COMDAT ?LoadFile@OCpjRes@@UAE_NPAD@Z
_TEXT	SEGMENT PARA USE32 PUBLIC 'CODE'
_TEXT	ENDS
;	COMDAT ?SaveFile@OCpjRes@@UAE_NPAD@Z
_TEXT	SEGMENT PARA USE32 PUBLIC 'CODE'
_TEXT	ENDS
;	COMDAT ??0OCpjRes@@QAE@XZ
_TEXT	SEGMENT PARA USE32 PUBLIC 'CODE'
_TEXT	ENDS
;	COMDAT ??0OCpjRes@@QAE@ABV0@@Z
_TEXT	SEGMENT PARA USE32 PUBLIC 'CODE'
_TEXT	ENDS
;	COMDAT ??4OCpjRes@@QAEAAV0@ABV0@@Z
_TEXT	SEGMENT PARA USE32 PUBLIC 'CODE'
_TEXT	ENDS
;	COMDAT ??1OCpjRes@@UAE@XZ
_TEXT	SEGMENT PARA USE32 PUBLIC 'CODE'
_TEXT	ENDS
;	COMDAT ??_GOCpjRes@@UAEPAXI@Z
_TEXT	SEGMENT PARA USE32 PUBLIC 'CODE'
_TEXT	ENDS
;	COMDAT ??_EOCpjRes@@UAEPAXI@Z
_TEXT	SEGMENT PARA USE32 PUBLIC 'CODE'
_TEXT	ENDS
;	COMDAT ??2OCpjChunk@@CAPAXIPAVOObject@@PAVCObjClass@@@Z
_TEXT	SEGMENT PARA USE32 PUBLIC 'CODE'
_TEXT	ENDS
;	COMDAT ??3OCpjChunk@@CAXPAX@Z
_TEXT	SEGMENT PARA USE32 PUBLIC 'CODE'
_TEXT	ENDS
;	COMDAT ??3OCpjChunk@@CAXPAXPAVOObject@@PAVCObjClass@@@Z
_TEXT	SEGMENT PARA USE32 PUBLIC 'CODE'
_TEXT	ENDS
;	COMDAT ?GetStaticClass@OCpjChunk@@SAPAVCObjClass@@XZ
_TEXT	SEGMENT PARA USE32 PUBLIC 'CODE'
_TEXT	ENDS
;	COMDAT ?New@OCpjChunk@@SAPAV1@PAVOObject@@PAVCObjClass@@@Z
_TEXT	SEGMENT PARA USE32 PUBLIC 'CODE'
_TEXT	ENDS
;	COMDAT ?GetClass@OCpjChunk@@UAEPAVCObjClass@@XZ
_TEXT	SEGMENT PARA USE32 PUBLIC 'CODE'
_TEXT	ENDS
;	COMDAT ?Create@OCpjChunk@@UAEXXZ
_TEXT	SEGMENT PARA USE32 PUBLIC 'CODE'
_TEXT	ENDS
;	COMDAT ?GetFourCC@OCpjChunk@@UAEKXZ
_TEXT	SEGMENT PARA USE32 PUBLIC 'CODE'
_TEXT	ENDS
;	COMDAT ?LoadChunk@OCpjChunk@@UAE_NPAXK@Z
_TEXT	SEGMENT PARA USE32 PUBLIC 'CODE'
_TEXT	ENDS
;	COMDAT ?SaveChunk@OCpjChunk@@UAE_NPAXPAK@Z
_TEXT	SEGMENT PARA USE32 PUBLIC 'CODE'
_TEXT	ENDS
;	COMDAT ??0OCpjChunk@@QAE@XZ
_TEXT	SEGMENT PARA USE32 PUBLIC 'CODE'
_TEXT	ENDS
;	COMDAT ??0OCpjChunk@@QAE@ABV0@@Z
_TEXT	SEGMENT PARA USE32 PUBLIC 'CODE'
_TEXT	ENDS
;	COMDAT ??4OCpjChunk@@QAEAAV0@ABV0@@Z
_TEXT	SEGMENT PARA USE32 PUBLIC 'CODE'
_TEXT	ENDS
;	COMDAT ??1OCpjChunk@@UAE@XZ
_TEXT	SEGMENT PARA USE32 PUBLIC 'CODE'
_TEXT	ENDS
;	COMDAT ??_GOCpjChunk@@UAEPAXI@Z
_TEXT	SEGMENT PARA USE32 PUBLIC 'CODE'
_TEXT	ENDS
;	COMDAT ??_EOCpjChunk@@UAEPAXI@Z
_TEXT	SEGMENT PARA USE32 PUBLIC 'CODE'
_TEXT	ENDS
;	COMDAT ??2OCpjUnkChunk@@CAPAXIPAVOObject@@PAVCObjClass@@@Z
_TEXT	SEGMENT PARA USE32 PUBLIC 'CODE'
_TEXT	ENDS
;	COMDAT ??3OCpjUnkChunk@@CAXPAX@Z
_TEXT	SEGMENT PARA USE32 PUBLIC 'CODE'
_TEXT	ENDS
;	COMDAT ??3OCpjUnkChunk@@CAXPAXPAVOObject@@PAVCObjClass@@@Z
_TEXT	SEGMENT PARA USE32 PUBLIC 'CODE'
_TEXT	ENDS
;	COMDAT ?GetStaticClass@OCpjUnkChunk@@SAPAVCObjClass@@XZ
_TEXT	SEGMENT PARA USE32 PUBLIC 'CODE'
_TEXT	ENDS
;	COMDAT ?New@OCpjUnkChunk@@SAPAV1@PAVOObject@@PAVCObjClass@@@Z
_TEXT	SEGMENT PARA USE32 PUBLIC 'CODE'
_TEXT	ENDS
;	COMDAT ?GetClass@OCpjUnkChunk@@UAEPAVCObjClass@@XZ
_TEXT	SEGMENT PARA USE32 PUBLIC 'CODE'
_TEXT	ENDS
;	COMDAT ??0OCpjUnkChunk@@QAE@XZ
_TEXT	SEGMENT PARA USE32 PUBLIC 'CODE'
_TEXT	ENDS
;	COMDAT ??0OCpjUnkChunk@@QAE@AAV0@@Z
_TEXT	SEGMENT PARA USE32 PUBLIC 'CODE'
_TEXT	ENDS
;	COMDAT ??4OCpjUnkChunk@@QAEAAV0@AAV0@@Z
_TEXT	SEGMENT PARA USE32 PUBLIC 'CODE'
_TEXT	ENDS
;	COMDAT ??1OCpjUnkChunk@@UAE@XZ
_TEXT	SEGMENT PARA USE32 PUBLIC 'CODE'
_TEXT	ENDS
;	COMDAT ??_GOCpjUnkChunk@@UAEPAXI@Z
_TEXT	SEGMENT PARA USE32 PUBLIC 'CODE'
_TEXT	ENDS
;	COMDAT ??_EOCpjUnkChunk@@UAEPAXI@Z
_TEXT	SEGMENT PARA USE32 PUBLIC 'CODE'
_TEXT	ENDS
;	COMDAT ??2OCpjImporter@@CAPAXIPAVOObject@@PAVCObjClass@@@Z
_TEXT	SEGMENT PARA USE32 PUBLIC 'CODE'
_TEXT	ENDS
;	COMDAT ??3OCpjImporter@@CAXPAX@Z
_TEXT	SEGMENT PARA USE32 PUBLIC 'CODE'
_TEXT	ENDS
;	COMDAT ??3OCpjImporter@@CAXPAXPAVOObject@@PAVCObjClass@@@Z
_TEXT	SEGMENT PARA USE32 PUBLIC 'CODE'
_TEXT	ENDS
;	COMDAT ?GetStaticClass@OCpjImporter@@SAPAVCObjClass@@XZ
_TEXT	SEGMENT PARA USE32 PUBLIC 'CODE'
_TEXT	ENDS
;	COMDAT ?New@OCpjImporter@@SAPAV1@PAVOObject@@PAVCObjClass@@@Z
_TEXT	SEGMENT PARA USE32 PUBLIC 'CODE'
_TEXT	ENDS
;	COMDAT ?GetClass@OCpjImporter@@UAEPAVCObjClass@@XZ
_TEXT	SEGMENT PARA USE32 PUBLIC 'CODE'
_TEXT	ENDS
;	COMDAT ?GetImportClass@OCpjImporter@@UAEPAVCObjClass@@XZ
_TEXT	SEGMENT PARA USE32 PUBLIC 'CODE'
_TEXT	ENDS
;	COMDAT ?GetFileExtension@OCpjImporter@@UAEPADXZ
_TEXT	SEGMENT PARA USE32 PUBLIC 'CODE'
_TEXT	ENDS
;	COMDAT ?GetFileDescription@OCpjImporter@@UAEPADXZ
_TEXT	SEGMENT PARA USE32 PUBLIC 'CODE'
_TEXT	ENDS
;	COMDAT ?Configure@OCpjImporter@@UAE_NPAVOObject@@PAD@Z
_TEXT	SEGMENT PARA USE32 PUBLIC 'CODE'
_TEXT	ENDS
;	COMDAT ?Import@OCpjImporter@@UAE_NPAVOObject@@PAD1@Z
_TEXT	SEGMENT PARA USE32 PUBLIC 'CODE'
_TEXT	ENDS
;	COMDAT ??0OCpjImporter@@QAE@XZ
_TEXT	SEGMENT PARA USE32 PUBLIC 'CODE'
_TEXT	ENDS
;	COMDAT ??0OCpjImporter@@QAE@ABV0@@Z
_TEXT	SEGMENT PARA USE32 PUBLIC 'CODE'
_TEXT	ENDS
;	COMDAT ??4OCpjImporter@@QAEAAV0@ABV0@@Z
_TEXT	SEGMENT PARA USE32 PUBLIC 'CODE'
_TEXT	ENDS
;	COMDAT ??1OCpjImporter@@UAE@XZ
_TEXT	SEGMENT PARA USE32 PUBLIC 'CODE'
_TEXT	ENDS
;	COMDAT ??_GOCpjImporter@@UAEPAXI@Z
_TEXT	SEGMENT PARA USE32 PUBLIC 'CODE'
_TEXT	ENDS
;	COMDAT ??_EOCpjImporter@@UAEPAXI@Z
_TEXT	SEGMENT PARA USE32 PUBLIC 'CODE'
_TEXT	ENDS
;	COMDAT ??2OCpjExporter@@CAPAXIPAVOObject@@PAVCObjClass@@@Z
_TEXT	SEGMENT PARA USE32 PUBLIC 'CODE'
_TEXT	ENDS
;	COMDAT ??3OCpjExporter@@CAXPAX@Z
_TEXT	SEGMENT PARA USE32 PUBLIC 'CODE'
_TEXT	ENDS
;	COMDAT ??3OCpjExporter@@CAXPAXPAVOObject@@PAVCObjClass@@@Z
_TEXT	SEGMENT PARA USE32 PUBLIC 'CODE'
_TEXT	ENDS
;	COMDAT ?GetStaticClass@OCpjExporter@@SAPAVCObjClass@@XZ
_TEXT	SEGMENT PARA USE32 PUBLIC 'CODE'
_TEXT	ENDS
;	COMDAT ?New@OCpjExporter@@SAPAV1@PAVOObject@@PAVCObjClass@@@Z
_TEXT	SEGMENT PARA USE32 PUBLIC 'CODE'
_TEXT	ENDS
;	COMDAT ?GetClass@OCpjExporter@@UAEPAVCObjClass@@XZ
_TEXT	SEGMENT PARA USE32 PUBLIC 'CODE'
_TEXT	ENDS
;	COMDAT ?GetExportClass@OCpjExporter@@UAEPAVCObjClass@@XZ
_TEXT	SEGMENT PARA USE32 PUBLIC 'CODE'
_TEXT	ENDS
;	COMDAT ?GetFileExtension@OCpjExporter@@UAEPADXZ
_TEXT	SEGMENT PARA USE32 PUBLIC 'CODE'
_TEXT	ENDS
;	COMDAT ?GetFileDescription@OCpjExporter@@UAEPADXZ
_TEXT	SEGMENT PARA USE32 PUBLIC 'CODE'
_TEXT	ENDS
;	COMDAT ?Configure@OCpjExporter@@UAE_NPAVOObject@@PAD@Z
_TEXT	SEGMENT PARA USE32 PUBLIC 'CODE'
_TEXT	ENDS
;	COMDAT ?Export@OCpjExporter@@UAE_NPAVOObject@@PAD1@Z
_TEXT	SEGMENT PARA USE32 PUBLIC 'CODE'
_TEXT	ENDS
;	COMDAT ??0OCpjExporter@@QAE@XZ
_TEXT	SEGMENT PARA USE32 PUBLIC 'CODE'
_TEXT	ENDS
;	COMDAT ??0OCpjExporter@@QAE@ABV0@@Z
_TEXT	SEGMENT PARA USE32 PUBLIC 'CODE'
_TEXT	ENDS
;	COMDAT ??4OCpjExporter@@QAEAAV0@ABV0@@Z
_TEXT	SEGMENT PARA USE32 PUBLIC 'CODE'
_TEXT	ENDS
;	COMDAT ??1OCpjExporter@@UAE@XZ
_TEXT	SEGMENT PARA USE32 PUBLIC 'CODE'
_TEXT	ENDS
;	COMDAT ??_GOCpjExporter@@UAEPAXI@Z
_TEXT	SEGMENT PARA USE32 PUBLIC 'CODE'
_TEXT	ENDS
;	COMDAT ??_EOCpjExporter@@UAEPAXI@Z
_TEXT	SEGMENT PARA USE32 PUBLIC 'CODE'
_TEXT	ENDS
;	COMDAT ??2OCpjProject@@CAPAXIPAVOObject@@PAVCObjClass@@@Z
_TEXT	SEGMENT PARA USE32 PUBLIC 'CODE'
_TEXT	ENDS
;	COMDAT ??3OCpjProject@@CAXPAX@Z
_TEXT	SEGMENT PARA USE32 PUBLIC 'CODE'
_TEXT	ENDS
;	COMDAT ??3OCpjProject@@CAXPAXPAVOObject@@PAVCObjClass@@@Z
_TEXT	SEGMENT PARA USE32 PUBLIC 'CODE'
_TEXT	ENDS
;	COMDAT ?GetStaticClass@OCpjProject@@SAPAVCObjClass@@XZ
_TEXT	SEGMENT PARA USE32 PUBLIC 'CODE'
_TEXT	ENDS
;	COMDAT ?New@OCpjProject@@SAPAV1@PAVOObject@@PAVCObjClass@@@Z
_TEXT	SEGMENT PARA USE32 PUBLIC 'CODE'
_TEXT	ENDS
;	COMDAT ?GetClass@OCpjProject@@UAEPAVCObjClass@@XZ
_TEXT	SEGMENT PARA USE32 PUBLIC 'CODE'
_TEXT	ENDS
;	COMDAT ?Create@OCpjProject@@UAEXXZ
_TEXT	SEGMENT PARA USE32 PUBLIC 'CODE'
_TEXT	ENDS
;	COMDAT ?Destroy@OCpjProject@@UAEXXZ
_TEXT	SEGMENT PARA USE32 PUBLIC 'CODE'
_TEXT	ENDS
;	COMDAT ?Lock@OCpjProject@@QAE_NXZ
_TEXT	SEGMENT PARA USE32 PUBLIC 'CODE'
_TEXT	ENDS
;	COMDAT ?Unlock@OCpjProject@@QAE_NXZ
_TEXT	SEGMENT PARA USE32 PUBLIC 'CODE'
_TEXT	ENDS
;	COMDAT ?IsLocked@OCpjProject@@QAE_NXZ
_TEXT	SEGMENT PARA USE32 PUBLIC 'CODE'
_TEXT	ENDS
;	COMDAT ?GetFileName@OCpjProject@@QAEPBDXZ
_TEXT	SEGMENT PARA USE32 PUBLIC 'CODE'
_TEXT	ENDS
;	COMDAT ?GetFileExtension@OCpjProject@@UAEPADXZ
_TEXT	SEGMENT PARA USE32 PUBLIC 'CODE'
_TEXT	ENDS
;	COMDAT ?GetFileDescription@OCpjProject@@UAEPADXZ
_TEXT	SEGMENT PARA USE32 PUBLIC 'CODE'
_TEXT	ENDS
;	COMDAT ??0OCpjProject@@QAE@XZ
_TEXT	SEGMENT PARA USE32 PUBLIC 'CODE'
_TEXT	ENDS
;	COMDAT ??0OCpjProject@@QAE@ABV0@@Z
_TEXT	SEGMENT PARA USE32 PUBLIC 'CODE'
_TEXT	ENDS
;	COMDAT ??4OCpjProject@@QAEAAV0@ABV0@@Z
_TEXT	SEGMENT PARA USE32 PUBLIC 'CODE'
_TEXT	ENDS
;	COMDAT ??1OCpjProject@@UAE@XZ
_TEXT	SEGMENT PARA USE32 PUBLIC 'CODE'
_TEXT	ENDS
;	COMDAT ??_GOCpjProject@@UAEPAXI@Z
_TEXT	SEGMENT PARA USE32 PUBLIC 'CODE'
_TEXT	ENDS
;	COMDAT ??_EOCpjProject@@UAEPAXI@Z
_TEXT	SEGMENT PARA USE32 PUBLIC 'CODE'
_TEXT	ENDS
;	COMDAT ??2OCpjGeometry@@CAPAXIPAVOObject@@PAVCObjClass@@@Z
_TEXT	SEGMENT PARA USE32 PUBLIC 'CODE'
_TEXT	ENDS
;	COMDAT ??3OCpjGeometry@@CAXPAX@Z
_TEXT	SEGMENT PARA USE32 PUBLIC 'CODE'
_TEXT	ENDS
;	COMDAT ??3OCpjGeometry@@CAXPAXPAVOObject@@PAVCObjClass@@@Z
_TEXT	SEGMENT PARA USE32 PUBLIC 'CODE'
_TEXT	ENDS
;	COMDAT ?GetStaticClass@OCpjGeometry@@SAPAVCObjClass@@XZ
_TEXT	SEGMENT PARA USE32 PUBLIC 'CODE'
_TEXT	ENDS
;	COMDAT ?New@OCpjGeometry@@SAPAV1@PAVOObject@@PAVCObjClass@@@Z
_TEXT	SEGMENT PARA USE32 PUBLIC 'CODE'
_TEXT	ENDS
;	COMDAT ?GetClass@OCpjGeometry@@UAEPAVCObjClass@@XZ
_TEXT	SEGMENT PARA USE32 PUBLIC 'CODE'
_TEXT	ENDS
;	COMDAT ?GetFileExtension@OCpjGeometry@@UAEPADXZ
_TEXT	SEGMENT PARA USE32 PUBLIC 'CODE'
_TEXT	ENDS
;	COMDAT ?GetFileDescription@OCpjGeometry@@UAEPADXZ
_TEXT	SEGMENT PARA USE32 PUBLIC 'CODE'
_TEXT	ENDS
;	COMDAT ??0OCpjGeometry@@QAE@XZ
_TEXT	SEGMENT PARA USE32 PUBLIC 'CODE'
_TEXT	ENDS
;	COMDAT ??0OCpjGeometry@@QAE@AAV0@@Z
_TEXT	SEGMENT PARA USE32 PUBLIC 'CODE'
_TEXT	ENDS
;	COMDAT ??4OCpjGeometry@@QAEAAV0@AAV0@@Z
_TEXT	SEGMENT PARA USE32 PUBLIC 'CODE'
_TEXT	ENDS
;	COMDAT ??1OCpjGeometry@@UAE@XZ
_TEXT	SEGMENT PARA USE32 PUBLIC 'CODE'
_TEXT	ENDS
;	COMDAT ??_GOCpjGeometry@@UAEPAXI@Z
_TEXT	SEGMENT PARA USE32 PUBLIC 'CODE'
_TEXT	ENDS
;	COMDAT ??_EOCpjGeometry@@UAEPAXI@Z
_TEXT	SEGMENT PARA USE32 PUBLIC 'CODE'
_TEXT	ENDS
;	COMDAT ??2OCpjSurface@@CAPAXIPAVOObject@@PAVCObjClass@@@Z
_TEXT	SEGMENT PARA USE32 PUBLIC 'CODE'
_TEXT	ENDS
;	COMDAT ??3OCpjSurface@@CAXPAX@Z
_TEXT	SEGMENT PARA USE32 PUBLIC 'CODE'
_TEXT	ENDS
;	COMDAT ??3OCpjSurface@@CAXPAXPAVOObject@@PAVCObjClass@@@Z
_TEXT	SEGMENT PARA USE32 PUBLIC 'CODE'
_TEXT	ENDS
;	COMDAT ?GetStaticClass@OCpjSurface@@SAPAVCObjClass@@XZ
_TEXT	SEGMENT PARA USE32 PUBLIC 'CODE'
_TEXT	ENDS
;	COMDAT ?New@OCpjSurface@@SAPAV1@PAVOObject@@PAVCObjClass@@@Z
_TEXT	SEGMENT PARA USE32 PUBLIC 'CODE'
_TEXT	ENDS
;	COMDAT ?GetClass@OCpjSurface@@UAEPAVCObjClass@@XZ
_TEXT	SEGMENT PARA USE32 PUBLIC 'CODE'
_TEXT	ENDS
;	COMDAT ?GetFileExtension@OCpjSurface@@UAEPADXZ
_TEXT	SEGMENT PARA USE32 PUBLIC 'CODE'
_TEXT	ENDS
;	COMDAT ?GetFileDescription@OCpjSurface@@UAEPADXZ
_TEXT	SEGMENT PARA USE32 PUBLIC 'CODE'
_TEXT	ENDS
;	COMDAT ??0OCpjSurface@@QAE@XZ
_TEXT	SEGMENT PARA USE32 PUBLIC 'CODE'
_TEXT	ENDS
;	COMDAT ??0OCpjSurface@@QAE@AAV0@@Z
_TEXT	SEGMENT PARA USE32 PUBLIC 'CODE'
_TEXT	ENDS
;	COMDAT ??4OCpjSurface@@QAEAAV0@AAV0@@Z
_TEXT	SEGMENT PARA USE32 PUBLIC 'CODE'
_TEXT	ENDS
;	COMDAT ??1OCpjSurface@@UAE@XZ
_TEXT	SEGMENT PARA USE32 PUBLIC 'CODE'
_TEXT	ENDS
;	COMDAT ??_GOCpjSurface@@UAEPAXI@Z
_TEXT	SEGMENT PARA USE32 PUBLIC 'CODE'
_TEXT	ENDS
;	COMDAT ??_EOCpjSurface@@UAEPAXI@Z
_TEXT	SEGMENT PARA USE32 PUBLIC 'CODE'
_TEXT	ENDS
;	COMDAT ??2OCpjLodData@@CAPAXIPAVOObject@@PAVCObjClass@@@Z
_TEXT	SEGMENT PARA USE32 PUBLIC 'CODE'
_TEXT	ENDS
;	COMDAT ??3OCpjLodData@@CAXPAX@Z
_TEXT	SEGMENT PARA USE32 PUBLIC 'CODE'
_TEXT	ENDS
;	COMDAT ??3OCpjLodData@@CAXPAXPAVOObject@@PAVCObjClass@@@Z
_TEXT	SEGMENT PARA USE32 PUBLIC 'CODE'
_TEXT	ENDS
;	COMDAT ?GetStaticClass@OCpjLodData@@SAPAVCObjClass@@XZ
_TEXT	SEGMENT PARA USE32 PUBLIC 'CODE'
_TEXT	ENDS
;	COMDAT ?New@OCpjLodData@@SAPAV1@PAVOObject@@PAVCObjClass@@@Z
_TEXT	SEGMENT PARA USE32 PUBLIC 'CODE'
_TEXT	ENDS
;	COMDAT ?GetClass@OCpjLodData@@UAEPAVCObjClass@@XZ
_TEXT	SEGMENT PARA USE32 PUBLIC 'CODE'
_TEXT	ENDS
;	COMDAT ?GetFileExtension@OCpjLodData@@UAEPADXZ
_TEXT	SEGMENT PARA USE32 PUBLIC 'CODE'
_TEXT	ENDS
;	COMDAT ?GetFileDescription@OCpjLodData@@UAEPADXZ
_TEXT	SEGMENT PARA USE32 PUBLIC 'CODE'
_TEXT	ENDS
;	COMDAT ??0OCpjLodData@@QAE@XZ
_TEXT	SEGMENT PARA USE32 PUBLIC 'CODE'
_TEXT	ENDS
;	COMDAT ??0OCpjLodData@@QAE@AAV0@@Z
_TEXT	SEGMENT PARA USE32 PUBLIC 'CODE'
_TEXT	ENDS
;	COMDAT ??4OCpjLodData@@QAEAAV0@AAV0@@Z
_TEXT	SEGMENT PARA USE32 PUBLIC 'CODE'
_TEXT	ENDS
;	COMDAT ??1OCpjLodData@@UAE@XZ
_TEXT	SEGMENT PARA USE32 PUBLIC 'CODE'
_TEXT	ENDS
;	COMDAT ??_GOCpjLodData@@UAEPAXI@Z
_TEXT	SEGMENT PARA USE32 PUBLIC 'CODE'
_TEXT	ENDS
;	COMDAT ??_EOCpjLodData@@UAEPAXI@Z
_TEXT	SEGMENT PARA USE32 PUBLIC 'CODE'
_TEXT	ENDS
;	COMDAT ??2OCpjSkeleton@@CAPAXIPAVOObject@@PAVCObjClass@@@Z
_TEXT	SEGMENT PARA USE32 PUBLIC 'CODE'
_TEXT	ENDS
;	COMDAT ??3OCpjSkeleton@@CAXPAX@Z
_TEXT	SEGMENT PARA USE32 PUBLIC 'CODE'
_TEXT	ENDS
;	COMDAT ??3OCpjSkeleton@@CAXPAXPAVOObject@@PAVCObjClass@@@Z
_TEXT	SEGMENT PARA USE32 PUBLIC 'CODE'
_TEXT	ENDS
;	COMDAT ?GetStaticClass@OCpjSkeleton@@SAPAVCObjClass@@XZ
_TEXT	SEGMENT PARA USE32 PUBLIC 'CODE'
_TEXT	ENDS
;	COMDAT ?New@OCpjSkeleton@@SAPAV1@PAVOObject@@PAVCObjClass@@@Z
_TEXT	SEGMENT PARA USE32 PUBLIC 'CODE'
_TEXT	ENDS
;	COMDAT ?GetClass@OCpjSkeleton@@UAEPAVCObjClass@@XZ
_TEXT	SEGMENT PARA USE32 PUBLIC 'CODE'
_TEXT	ENDS
;	COMDAT ?GetFileExtension@OCpjSkeleton@@UAEPADXZ
_TEXT	SEGMENT PARA USE32 PUBLIC 'CODE'
_TEXT	ENDS
;	COMDAT ?GetFileDescription@OCpjSkeleton@@UAEPADXZ
_TEXT	SEGMENT PARA USE32 PUBLIC 'CODE'
_TEXT	ENDS
;	COMDAT ??0OCpjSkeleton@@QAE@XZ
_TEXT	SEGMENT PARA USE32 PUBLIC 'CODE'
_TEXT	ENDS
;	COMDAT ??0OCpjSkeleton@@QAE@AAV0@@Z
_TEXT	SEGMENT PARA USE32 PUBLIC 'CODE'
_TEXT	ENDS
;	COMDAT ??4OCpjSkeleton@@QAEAAV0@AAV0@@Z
_TEXT	SEGMENT PARA USE32 PUBLIC 'CODE'
_TEXT	ENDS
;	COMDAT ??1OCpjSkeleton@@UAE@XZ
_TEXT	SEGMENT PARA USE32 PUBLIC 'CODE'
_TEXT	ENDS
;	COMDAT ??_GOCpjSkeleton@@UAEPAXI@Z
_TEXT	SEGMENT PARA USE32 PUBLIC 'CODE'
_TEXT	ENDS
;	COMDAT ??_EOCpjSkeleton@@UAEPAXI@Z
_TEXT	SEGMENT PARA USE32 PUBLIC 'CODE'
_TEXT	ENDS
;	COMDAT ??0CCpjFrmFrame@@QAE@XZ
_TEXT	SEGMENT PARA USE32 PUBLIC 'CODE'
_TEXT	ENDS
;	COMDAT ??0CCpjFrmFrame@@QAE@AAV0@@Z
_TEXT	SEGMENT PARA USE32 PUBLIC 'CODE'
_TEXT	ENDS
;	COMDAT ??4CCpjFrmFrame@@QAEAAV0@AAV0@@Z
_TEXT	SEGMENT PARA USE32 PUBLIC 'CODE'
_TEXT	ENDS
;	COMDAT ??1CCpjFrmFrame@@QAE@XZ
_TEXT	SEGMENT PARA USE32 PUBLIC 'CODE'
_TEXT	ENDS
;	COMDAT ??_H@YGXPAXIHP6EX0@Z@Z
_TEXT	SEGMENT PARA USE32 PUBLIC 'CODE'
_TEXT	ENDS
;	COMDAT ??2OCpjFrames@@CAPAXIPAVOObject@@PAVCObjClass@@@Z
_TEXT	SEGMENT PARA USE32 PUBLIC 'CODE'
_TEXT	ENDS
;	COMDAT ??3OCpjFrames@@CAXPAX@Z
_TEXT	SEGMENT PARA USE32 PUBLIC 'CODE'
_TEXT	ENDS
;	COMDAT ??3OCpjFrames@@CAXPAXPAVOObject@@PAVCObjClass@@@Z
_TEXT	SEGMENT PARA USE32 PUBLIC 'CODE'
_TEXT	ENDS
;	COMDAT ?GetStaticClass@OCpjFrames@@SAPAVCObjClass@@XZ
_TEXT	SEGMENT PARA USE32 PUBLIC 'CODE'
_TEXT	ENDS
;	COMDAT ?New@OCpjFrames@@SAPAV1@PAVOObject@@PAVCObjClass@@@Z
_TEXT	SEGMENT PARA USE32 PUBLIC 'CODE'
_TEXT	ENDS
;	COMDAT ?GetClass@OCpjFrames@@UAEPAVCObjClass@@XZ
_TEXT	SEGMENT PARA USE32 PUBLIC 'CODE'
_TEXT	ENDS
;	COMDAT ?Create@OCpjFrames@@UAEXXZ
_TEXT	SEGMENT PARA USE32 PUBLIC 'CODE'
_TEXT	ENDS
;	COMDAT ?GetFileExtension@OCpjFrames@@UAEPADXZ
_TEXT	SEGMENT PARA USE32 PUBLIC 'CODE'
_TEXT	ENDS
;	COMDAT ?GetFileDescription@OCpjFrames@@UAEPADXZ
_TEXT	SEGMENT PARA USE32 PUBLIC 'CODE'
_TEXT	ENDS
;	COMDAT ??0OCpjFrames@@QAE@XZ
_TEXT	SEGMENT PARA USE32 PUBLIC 'CODE'
_TEXT	ENDS
;	COMDAT ??0OCpjFrames@@QAE@AAV0@@Z
_TEXT	SEGMENT PARA USE32 PUBLIC 'CODE'
_TEXT	ENDS
;	COMDAT ??4OCpjFrames@@QAEAAV0@AAV0@@Z
_TEXT	SEGMENT PARA USE32 PUBLIC 'CODE'
_TEXT	ENDS
;	COMDAT ??1OCpjFrames@@UAE@XZ
_TEXT	SEGMENT PARA USE32 PUBLIC 'CODE'
_TEXT	ENDS
;	COMDAT ??_GOCpjFrames@@UAEPAXI@Z
_TEXT	SEGMENT PARA USE32 PUBLIC 'CODE'
_TEXT	ENDS
;	COMDAT ??_EOCpjFrames@@UAEPAXI@Z
_TEXT	SEGMENT PARA USE32 PUBLIC 'CODE'
_TEXT	ENDS
;	COMDAT ??2OCpjSequence@@CAPAXIPAVOObject@@PAVCObjClass@@@Z
_TEXT	SEGMENT PARA USE32 PUBLIC 'CODE'
_TEXT	ENDS
;	COMDAT ??3OCpjSequence@@CAXPAX@Z
_TEXT	SEGMENT PARA USE32 PUBLIC 'CODE'
_TEXT	ENDS
;	COMDAT ??3OCpjSequence@@CAXPAXPAVOObject@@PAVCObjClass@@@Z
_TEXT	SEGMENT PARA USE32 PUBLIC 'CODE'
_TEXT	ENDS
;	COMDAT ?GetStaticClass@OCpjSequence@@SAPAVCObjClass@@XZ
_TEXT	SEGMENT PARA USE32 PUBLIC 'CODE'
_TEXT	ENDS
;	COMDAT ?New@OCpjSequence@@SAPAV1@PAVOObject@@PAVCObjClass@@@Z
_TEXT	SEGMENT PARA USE32 PUBLIC 'CODE'
_TEXT	ENDS
;	COMDAT ?GetClass@OCpjSequence@@UAEPAVCObjClass@@XZ
_TEXT	SEGMENT PARA USE32 PUBLIC 'CODE'
_TEXT	ENDS
;	COMDAT ?Create@OCpjSequence@@UAEXXZ
_TEXT	SEGMENT PARA USE32 PUBLIC 'CODE'
_TEXT	ENDS
;	COMDAT ?GetFileExtension@OCpjSequence@@UAEPADXZ
_TEXT	SEGMENT PARA USE32 PUBLIC 'CODE'
_TEXT	ENDS
;	COMDAT ?GetFileDescription@OCpjSequence@@UAEPADXZ
_TEXT	SEGMENT PARA USE32 PUBLIC 'CODE'
_TEXT	ENDS
;	COMDAT ??0OCpjSequence@@QAE@XZ
_TEXT	SEGMENT PARA USE32 PUBLIC 'CODE'
_TEXT	ENDS
;	COMDAT ??0OCpjSequence@@QAE@AAV0@@Z
_TEXT	SEGMENT PARA USE32 PUBLIC 'CODE'
_TEXT	ENDS
;	COMDAT ??4OCpjSequence@@QAEAAV0@AAV0@@Z
_TEXT	SEGMENT PARA USE32 PUBLIC 'CODE'
_TEXT	ENDS
;	COMDAT ??1OCpjSequence@@UAE@XZ
_TEXT	SEGMENT PARA USE32 PUBLIC 'CODE'
_TEXT	ENDS
;	COMDAT ??_GOCpjSequence@@UAEPAXI@Z
_TEXT	SEGMENT PARA USE32 PUBLIC 'CODE'
_TEXT	ENDS
;	COMDAT ??_EOCpjSequence@@UAEPAXI@Z
_TEXT	SEGMENT PARA USE32 PUBLIC 'CODE'
_TEXT	ENDS
;	COMDAT ??2OCpjConfig@@CAPAXIPAVOObject@@PAVCObjClass@@@Z
_TEXT	SEGMENT PARA USE32 PUBLIC 'CODE'
_TEXT	ENDS
;	COMDAT ??3OCpjConfig@@CAXPAX@Z
_TEXT	SEGMENT PARA USE32 PUBLIC 'CODE'
_TEXT	ENDS
;	COMDAT ??3OCpjConfig@@CAXPAXPAVOObject@@PAVCObjClass@@@Z
_TEXT	SEGMENT PARA USE32 PUBLIC 'CODE'
_TEXT	ENDS
;	COMDAT ?GetStaticClass@OCpjConfig@@SAPAVCObjClass@@XZ
_TEXT	SEGMENT PARA USE32 PUBLIC 'CODE'
_TEXT	ENDS
;	COMDAT ?New@OCpjConfig@@SAPAV1@PAVOObject@@PAVCObjClass@@@Z
_TEXT	SEGMENT PARA USE32 PUBLIC 'CODE'
_TEXT	ENDS
;	COMDAT ?GetClass@OCpjConfig@@UAEPAVCObjClass@@XZ
_TEXT	SEGMENT PARA USE32 PUBLIC 'CODE'
_TEXT	ENDS
;	COMDAT ?GetFileExtension@OCpjConfig@@UAEPADXZ
_TEXT	SEGMENT PARA USE32 PUBLIC 'CODE'
_TEXT	ENDS
;	COMDAT ?GetFileDescription@OCpjConfig@@UAEPADXZ
_TEXT	SEGMENT PARA USE32 PUBLIC 'CODE'
_TEXT	ENDS
;	COMDAT ??0OCpjConfig@@QAE@XZ
_TEXT	SEGMENT PARA USE32 PUBLIC 'CODE'
_TEXT	ENDS
;	COMDAT ??0OCpjConfig@@QAE@AAV0@@Z
_TEXT	SEGMENT PARA USE32 PUBLIC 'CODE'
_TEXT	ENDS
;	COMDAT ??4OCpjConfig@@QAEAAV0@AAV0@@Z
_TEXT	SEGMENT PARA USE32 PUBLIC 'CODE'
_TEXT	ENDS
;	COMDAT ??1OCpjConfig@@UAE@XZ
_TEXT	SEGMENT PARA USE32 PUBLIC 'CODE'
_TEXT	ENDS
;	COMDAT ??_GOCpjConfig@@UAEPAXI@Z
_TEXT	SEGMENT PARA USE32 PUBLIC 'CODE'
_TEXT	ENDS
;	COMDAT ??_EOCpjConfig@@UAEPAXI@Z
_TEXT	SEGMENT PARA USE32 PUBLIC 'CODE'
_TEXT	ENDS
;	COMDAT ?Nearest@VLine2@@QBE?AVVVec2@@ABV2@@Z
_TEXT	SEGMENT PARA USE32 PUBLIC 'CODE'
_TEXT	ENDS
;	COMDAT ??I@YAMABVVLine2@@ABVVVec2@@@Z
_TEXT	SEGMENT PARA USE32 PUBLIC 'CODE'
_TEXT	ENDS
;	COMDAT ??0VLine3@@QAE@XZ
_TEXT	SEGMENT PARA USE32 PUBLIC 'CODE'
_TEXT	ENDS
;	COMDAT ??0VLine3@@QAE@ABV0@@Z
_TEXT	SEGMENT PARA USE32 PUBLIC 'CODE'
_TEXT	ENDS
;	COMDAT ??0VLine3@@QAE@ABVVLine2@@@Z
_TEXT	SEGMENT PARA USE32 PUBLIC 'CODE'
_TEXT	ENDS
;	COMDAT ??0VLine3@@QAE@ABVVVec3@@0@Z
_TEXT	SEGMENT PARA USE32 PUBLIC 'CODE'
_TEXT	ENDS
;	COMDAT ?TwoPoint@VLine3@@QAEXABVVVec3@@0@Z
_TEXT	SEGMENT PARA USE32 PUBLIC 'CODE'
_TEXT	ENDS
;	COMDAT ?Nearest@VLine3@@QBE?AVVVec3@@ABV2@@Z
_TEXT	SEGMENT PARA USE32 PUBLIC 'CODE'
_TEXT	ENDS
;	COMDAT ??I@YAMABVVLine3@@ABVVVec3@@@Z
_TEXT	SEGMENT PARA USE32 PUBLIC 'CODE'
_TEXT	ENDS
;	COMDAT ??0VPlane3@@QAE@ABVVVec3@@0@Z
_TEXT	SEGMENT PARA USE32 PUBLIC 'CODE'
_TEXT	ENDS
;	COMDAT ?Nearest@VPlane3@@QBE?AVVVec3@@ABV2@@Z
_TEXT	SEGMENT PARA USE32 PUBLIC 'CODE'
_TEXT	ENDS
;	COMDAT ?Intersection@VPlane3@@QBE?AVVVec3@@ABVVLine3@@PAM@Z
_TEXT	SEGMENT PARA USE32 PUBLIC 'CODE'
_TEXT	ENDS
;	COMDAT ??I@YAMABVVPlane3@@ABVVVec3@@@Z
_TEXT	SEGMENT PARA USE32 PUBLIC 'CODE'
_TEXT	ENDS
;	COMDAT ?Nearest@VSphere3@@QBE?AVVVec3@@ABV2@@Z
_TEXT	SEGMENT PARA USE32 PUBLIC 'CODE'
_TEXT	ENDS
;	COMDAT ??I@YAMABVVSphere3@@ABVVVec3@@@Z
_TEXT	SEGMENT PARA USE32 PUBLIC 'CODE'
_TEXT	ENDS
;	COMDAT ??0VBox3@@QAE@XZ
_TEXT	SEGMENT PARA USE32 PUBLIC 'CODE'
_TEXT	ENDS
;	COMDAT ??0VBox3@@QAE@ABV0@@Z
_TEXT	SEGMENT PARA USE32 PUBLIC 'CODE'
_TEXT	ENDS
;	COMDAT ??0VBox3@@QAE@ABVVVec3@@0@Z
_TEXT	SEGMENT PARA USE32 PUBLIC 'CODE'
_TEXT	ENDS
;	COMDAT ??4VBox3@@QAEAAV0@ABV0@@Z
_TEXT	SEGMENT PARA USE32 PUBLIC 'CODE'
_TEXT	ENDS
;	COMDAT ?Intersects@VBox3@@QBE_NABVVLine3@@PAM1@Z
_TEXT	SEGMENT PARA USE32 PUBLIC 'CODE'
_TEXT	ENDS
;	COMDAT ??0CMacBone@@QAE@XZ
_TEXT	SEGMENT PARA USE32 PUBLIC 'CODE'
_TEXT	ENDS
;	COMDAT ??0CMacBone@@QAE@ABV0@@Z
_TEXT	SEGMENT PARA USE32 PUBLIC 'CODE'
_TEXT	ENDS
;	COMDAT ??4CMacBone@@QAEAAV0@ABV0@@Z
_TEXT	SEGMENT PARA USE32 PUBLIC 'CODE'
_TEXT	ENDS
;	COMDAT ?Unlink@CMacActorLink@@AAEXXZ
_TEXT	SEGMENT PARA USE32 PUBLIC 'CODE'
_TEXT	ENDS
;	COMDAT ?Link@CMacActorLink@@AAEXPAV1@@Z
_TEXT	SEGMENT PARA USE32 PUBLIC 'CODE'
_TEXT	ENDS
;	COMDAT ??0CMacActorLink@@QAE@XZ
_TEXT	SEGMENT PARA USE32 PUBLIC 'CODE'
_TEXT	ENDS
;	COMDAT ??1CMacActorLink@@QAE@XZ
_TEXT	SEGMENT PARA USE32 PUBLIC 'CODE'
_TEXT	ENDS
;	COMDAT ?GetFirst@CMacActorLink@@SAPAV1@XZ
_TEXT	SEGMENT PARA USE32 PUBLIC 'CODE'
_TEXT	ENDS
;	COMDAT ?GetNext@CMacActorLink@@QAEPAV1@XZ
_TEXT	SEGMENT PARA USE32 PUBLIC 'CODE'
_TEXT	ENDS
;	COMDAT ?IsDone@CMacActorLink@@QAE_NXZ
_TEXT	SEGMENT PARA USE32 PUBLIC 'CODE'
_TEXT	ENDS
;	COMDAT ?GetActor@CMacActorLink@@QAEPAVOMacActor@@XZ
_TEXT	SEGMENT PARA USE32 PUBLIC 'CODE'
_TEXT	ENDS
;	COMDAT ?SetActor@CMacActorLink@@QAEXPAVOMacActor@@@Z
_TEXT	SEGMENT PARA USE32 PUBLIC 'CODE'
_TEXT	ENDS
;	COMDAT ??4CMacActorLink@@QAEAAV0@ABV0@@Z
_TEXT	SEGMENT PARA USE32 PUBLIC 'CODE'
_TEXT	ENDS
;	COMDAT ??2OMacActor@@CAPAXIPAVOObject@@PAVCObjClass@@@Z
_TEXT	SEGMENT PARA USE32 PUBLIC 'CODE'
_TEXT	ENDS
;	COMDAT ??3OMacActor@@CAXPAX@Z
_TEXT	SEGMENT PARA USE32 PUBLIC 'CODE'
_TEXT	ENDS
;	COMDAT ??3OMacActor@@CAXPAXPAVOObject@@PAVCObjClass@@@Z
_TEXT	SEGMENT PARA USE32 PUBLIC 'CODE'
_TEXT	ENDS
;	COMDAT ?GetStaticClass@OMacActor@@SAPAVCObjClass@@XZ
_TEXT	SEGMENT PARA USE32 PUBLIC 'CODE'
_TEXT	ENDS
;	COMDAT ?New@OMacActor@@SAPAV1@PAVOObject@@PAVCObjClass@@@Z
_TEXT	SEGMENT PARA USE32 PUBLIC 'CODE'
_TEXT	ENDS
;	COMDAT ?GetClass@OMacActor@@UAEPAVCObjClass@@XZ
_TEXT	SEGMENT PARA USE32 PUBLIC 'CODE'
_TEXT	ENDS
;	COMDAT ??0OMacActor@@QAE@XZ
_TEXT	SEGMENT PARA USE32 PUBLIC 'CODE'
_TEXT	ENDS
;	COMDAT ??0OMacActor@@QAE@AAV0@@Z
_TEXT	SEGMENT PARA USE32 PUBLIC 'CODE'
_TEXT	ENDS
;	COMDAT ??4OMacActor@@QAEAAV0@AAV0@@Z
_TEXT	SEGMENT PARA USE32 PUBLIC 'CODE'
_TEXT	ENDS
;	COMDAT ??1OMacActor@@UAE@XZ
_TEXT	SEGMENT PARA USE32 PUBLIC 'CODE'
_TEXT	ENDS
;	COMDAT ??_GOMacActor@@UAEPAXI@Z
_TEXT	SEGMENT PARA USE32 PUBLIC 'CODE'
_TEXT	ENDS
;	COMDAT ??_EOMacActor@@UAEPAXI@Z
_TEXT	SEGMENT PARA USE32 PUBLIC 'CODE'
_TEXT	ENDS
;	COMDAT ??2OMacChannel@@CAPAXIPAVOObject@@PAVCObjClass@@@Z
_TEXT	SEGMENT PARA USE32 PUBLIC 'CODE'
_TEXT	ENDS
;	COMDAT ??3OMacChannel@@CAXPAX@Z
_TEXT	SEGMENT PARA USE32 PUBLIC 'CODE'
_TEXT	ENDS
;	COMDAT ??3OMacChannel@@CAXPAXPAVOObject@@PAVCObjClass@@@Z
_TEXT	SEGMENT PARA USE32 PUBLIC 'CODE'
_TEXT	ENDS
;	COMDAT ?GetStaticClass@OMacChannel@@SAPAVCObjClass@@XZ
_TEXT	SEGMENT PARA USE32 PUBLIC 'CODE'
_TEXT	ENDS
;	COMDAT ?New@OMacChannel@@SAPAV1@PAVOObject@@PAVCObjClass@@@Z
_TEXT	SEGMENT PARA USE32 PUBLIC 'CODE'
_TEXT	ENDS
;	COMDAT ?GetClass@OMacChannel@@UAEPAVCObjClass@@XZ
_TEXT	SEGMENT PARA USE32 PUBLIC 'CODE'
_TEXT	ENDS
;	COMDAT ?EvalBones@OMacChannel@@UAE_NPAVOMacActor@@@Z
_TEXT	SEGMENT PARA USE32 PUBLIC 'CODE'
_TEXT	ENDS
;	COMDAT ?EvalVerts@OMacChannel@@UAE_NPAVOMacActor@@KPAGPAVVVec3@@@Z
_TEXT	SEGMENT PARA USE32 PUBLIC 'CODE'
_TEXT	ENDS
;	COMDAT ??0OMacChannel@@QAE@XZ
_TEXT	SEGMENT PARA USE32 PUBLIC 'CODE'
_TEXT	ENDS
;	COMDAT ??0OMacChannel@@QAE@ABV0@@Z
_TEXT	SEGMENT PARA USE32 PUBLIC 'CODE'
_TEXT	ENDS
;	COMDAT ??4OMacChannel@@QAEAAV0@ABV0@@Z
_TEXT	SEGMENT PARA USE32 PUBLIC 'CODE'
_TEXT	ENDS
;	COMDAT ??1OMacChannel@@UAE@XZ
_TEXT	SEGMENT PARA USE32 PUBLIC 'CODE'
_TEXT	ENDS
;	COMDAT ??_GOMacChannel@@UAEPAXI@Z
_TEXT	SEGMENT PARA USE32 PUBLIC 'CODE'
_TEXT	ENDS
;	COMDAT ??_EOMacChannel@@UAEPAXI@Z
_TEXT	SEGMENT PARA USE32 PUBLIC 'CODE'
_TEXT	ENDS
;	COMDAT ??2OMacSequenceChannel@@CAPAXIPAVOObject@@PAVCObjClass@@@Z
_TEXT	SEGMENT PARA USE32 PUBLIC 'CODE'
_TEXT	ENDS
;	COMDAT ??3OMacSequenceChannel@@CAXPAX@Z
_TEXT	SEGMENT PARA USE32 PUBLIC 'CODE'
_TEXT	ENDS
;	COMDAT ??3OMacSequenceChannel@@CAXPAXPAVOObject@@PAVCObjClass@@@Z
_TEXT	SEGMENT PARA USE32 PUBLIC 'CODE'
_TEXT	ENDS
;	COMDAT ?GetStaticClass@OMacSequenceChannel@@SAPAVCObjClass@@XZ
_TEXT	SEGMENT PARA USE32 PUBLIC 'CODE'
_TEXT	ENDS
;	COMDAT ?New@OMacSequenceChannel@@SAPAV1@PAVOObject@@PAVCObjClass@@@Z
_TEXT	SEGMENT PARA USE32 PUBLIC 'CODE'
_TEXT	ENDS
;	COMDAT ?GetClass@OMacSequenceChannel@@UAEPAVCObjClass@@XZ
_TEXT	SEGMENT PARA USE32 PUBLIC 'CODE'
_TEXT	ENDS
;	COMDAT ?Create@OMacSequenceChannel@@UAEXXZ
_TEXT	SEGMENT PARA USE32 PUBLIC 'CODE'
_TEXT	ENDS
;	COMDAT ??0OMacSequenceChannel@@QAE@XZ
_TEXT	SEGMENT PARA USE32 PUBLIC 'CODE'
_TEXT	ENDS
;	COMDAT ??0OMacSequenceChannel@@QAE@ABV0@@Z
_TEXT	SEGMENT PARA USE32 PUBLIC 'CODE'
_TEXT	ENDS
;	COMDAT ??4OMacSequenceChannel@@QAEAAV0@ABV0@@Z
_TEXT	SEGMENT PARA USE32 PUBLIC 'CODE'
_TEXT	ENDS
;	COMDAT ??1OMacSequenceChannel@@UAE@XZ
_TEXT	SEGMENT PARA USE32 PUBLIC 'CODE'
_TEXT	ENDS
;	COMDAT ??_GOMacSequenceChannel@@UAEPAXI@Z
_TEXT	SEGMENT PARA USE32 PUBLIC 'CODE'
_TEXT	ENDS
;	COMDAT ??_EOMacSequenceChannel@@UAEPAXI@Z
_TEXT	SEGMENT PARA USE32 PUBLIC 'CODE'
_TEXT	ENDS
;	COMDAT ??2OMacIKChannel@@CAPAXIPAVOObject@@PAVCObjClass@@@Z
_TEXT	SEGMENT PARA USE32 PUBLIC 'CODE'
_TEXT	ENDS
;	COMDAT ??3OMacIKChannel@@CAXPAX@Z
_TEXT	SEGMENT PARA USE32 PUBLIC 'CODE'
_TEXT	ENDS
;	COMDAT ??3OMacIKChannel@@CAXPAXPAVOObject@@PAVCObjClass@@@Z
_TEXT	SEGMENT PARA USE32 PUBLIC 'CODE'
_TEXT	ENDS
;	COMDAT ?GetStaticClass@OMacIKChannel@@SAPAVCObjClass@@XZ
_TEXT	SEGMENT PARA USE32 PUBLIC 'CODE'
_TEXT	ENDS
;	COMDAT ?New@OMacIKChannel@@SAPAV1@PAVOObject@@PAVCObjClass@@@Z
_TEXT	SEGMENT PARA USE32 PUBLIC 'CODE'
_TEXT	ENDS
;	COMDAT ?GetClass@OMacIKChannel@@UAEPAVCObjClass@@XZ
_TEXT	SEGMENT PARA USE32 PUBLIC 'CODE'
_TEXT	ENDS
;	COMDAT ?Create@OMacIKChannel@@UAEXXZ
_TEXT	SEGMENT PARA USE32 PUBLIC 'CODE'
_TEXT	ENDS
;	COMDAT ??0OMacIKChannel@@QAE@XZ
_TEXT	SEGMENT PARA USE32 PUBLIC 'CODE'
_TEXT	ENDS
;	COMDAT ??0OMacIKChannel@@QAE@ABV0@@Z
_TEXT	SEGMENT PARA USE32 PUBLIC 'CODE'
_TEXT	ENDS
;	COMDAT ??4OMacIKChannel@@QAEAAV0@ABV0@@Z
_TEXT	SEGMENT PARA USE32 PUBLIC 'CODE'
_TEXT	ENDS
;	COMDAT ??1OMacIKChannel@@UAE@XZ
_TEXT	SEGMENT PARA USE32 PUBLIC 'CODE'
_TEXT	ENDS
;	COMDAT ??_GOMacIKChannel@@UAEPAXI@Z
_TEXT	SEGMENT PARA USE32 PUBLIC 'CODE'
_TEXT	ENDS
;	COMDAT ??_EOMacIKChannel@@UAEPAXI@Z
_TEXT	SEGMENT PARA USE32 PUBLIC 'CODE'
_TEXT	ENDS
;	COMDAT ??0CMacTraceInfo@@QAE@XZ
_TEXT	SEGMENT PARA USE32 PUBLIC 'CODE'
_TEXT	ENDS
;	COMDAT ??0CMacTraceInfo@@QAE@AAV0@@Z
_TEXT	SEGMENT PARA USE32 PUBLIC 'CODE'
_TEXT	ENDS
;	COMDAT ??4CMacTraceInfo@@QAEAAV0@AAV0@@Z
_TEXT	SEGMENT PARA USE32 PUBLIC 'CODE'
_TEXT	ENDS
;	COMDAT ??1CMacTraceInfo@@QAE@XZ
_TEXT	SEGMENT PARA USE32 PUBLIC 'CODE'
_TEXT	ENDS
;	COMDAT _$E40
_TEXT	SEGMENT PARA USE32 PUBLIC 'CODE'
_TEXT	ENDS
;	COMDAT _$E41
_TEXT	SEGMENT PARA USE32 PUBLIC 'CODE'
_TEXT	ENDS
;	COMDAT _$E43
_TEXT	SEGMENT PARA USE32 PUBLIC 'CODE'
_TEXT	ENDS
;	COMDAT _$E44
_TEXT	SEGMENT PARA USE32 PUBLIC 'CODE'
_TEXT	ENDS
;	COMDAT _SetAuthor_msg_OMacActor
_TEXT	SEGMENT PARA USE32 PUBLIC 'CODE'
_TEXT	ENDS
;	COMDAT _$E46
_TEXT	SEGMENT PARA USE32 PUBLIC 'CODE'
_TEXT	ENDS
;	COMDAT _$E47
_TEXT	SEGMENT PARA USE32 PUBLIC 'CODE'
_TEXT	ENDS
;	COMDAT _SetDescription_msg_OMacActor
_TEXT	SEGMENT PARA USE32 PUBLIC 'CODE'
_TEXT	ENDS
;	COMDAT _$E49
_TEXT	SEGMENT PARA USE32 PUBLIC 'CODE'
_TEXT	ENDS
;	COMDAT _$E50
_TEXT	SEGMENT PARA USE32 PUBLIC 'CODE'
_TEXT	ENDS
;	COMDAT _SetOrigin_msg_OMacActor
_TEXT	SEGMENT PARA USE32 PUBLIC 'CODE'
_TEXT	ENDS
;	COMDAT _$E52
_TEXT	SEGMENT PARA USE32 PUBLIC 'CODE'
_TEXT	ENDS
;	COMDAT _$E53
_TEXT	SEGMENT PARA USE32 PUBLIC 'CODE'
_TEXT	ENDS
;	COMDAT _SetScale_msg_OMacActor
_TEXT	SEGMENT PARA USE32 PUBLIC 'CODE'
_TEXT	ENDS
;	COMDAT _$E55
_TEXT	SEGMENT PARA USE32 PUBLIC 'CODE'
_TEXT	ENDS
;	COMDAT _$E56
_TEXT	SEGMENT PARA USE32 PUBLIC 'CODE'
_TEXT	ENDS
;	COMDAT _SetRotation_msg_OMacActor
_TEXT	SEGMENT PARA USE32 PUBLIC 'CODE'
_TEXT	ENDS
;	COMDAT _$E58
_TEXT	SEGMENT PARA USE32 PUBLIC 'CODE'
_TEXT	ENDS
;	COMDAT _$E59
_TEXT	SEGMENT PARA USE32 PUBLIC 'CODE'
_TEXT	ENDS
;	COMDAT _SetBoundsMin_msg_OMacActor
_TEXT	SEGMENT PARA USE32 PUBLIC 'CODE'
_TEXT	ENDS
;	COMDAT _$E61
_TEXT	SEGMENT PARA USE32 PUBLIC 'CODE'
_TEXT	ENDS
;	COMDAT _$E62
_TEXT	SEGMENT PARA USE32 PUBLIC 'CODE'
_TEXT	ENDS
;	COMDAT _SetBoundsMax_msg_OMacActor
_TEXT	SEGMENT PARA USE32 PUBLIC 'CODE'
_TEXT	ENDS
;	COMDAT _$E64
_TEXT	SEGMENT PARA USE32 PUBLIC 'CODE'
_TEXT	ENDS
;	COMDAT _$E65
_TEXT	SEGMENT PARA USE32 PUBLIC 'CODE'
_TEXT	ENDS
;	COMDAT _SetGeometry_msg_OMacActor
_TEXT	SEGMENT PARA USE32 PUBLIC 'CODE'
_TEXT	ENDS
;	COMDAT _$E67
_TEXT	SEGMENT PARA USE32 PUBLIC 'CODE'
_TEXT	ENDS
;	COMDAT _$E68
_TEXT	SEGMENT PARA USE32 PUBLIC 'CODE'
_TEXT	ENDS
;	COMDAT _SetSurface_msg_OMacActor
_TEXT	SEGMENT PARA USE32 PUBLIC 'CODE'
_TEXT	ENDS
;	COMDAT _$E70
_TEXT	SEGMENT PARA USE32 PUBLIC 'CODE'
_TEXT	ENDS
;	COMDAT _$E71
_TEXT	SEGMENT PARA USE32 PUBLIC 'CODE'
_TEXT	ENDS
;	COMDAT _SetLodData_msg_OMacActor
_TEXT	SEGMENT PARA USE32 PUBLIC 'CODE'
_TEXT	ENDS
;	COMDAT _$E73
_TEXT	SEGMENT PARA USE32 PUBLIC 'CODE'
_TEXT	ENDS
;	COMDAT _$E74
_TEXT	SEGMENT PARA USE32 PUBLIC 'CODE'
_TEXT	ENDS
;	COMDAT _SetSkeleton_msg_OMacActor
_TEXT	SEGMENT PARA USE32 PUBLIC 'CODE'
_TEXT	ENDS
;	COMDAT _$E76
_TEXT	SEGMENT PARA USE32 PUBLIC 'CODE'
_TEXT	ENDS
;	COMDAT _$E77
_TEXT	SEGMENT PARA USE32 PUBLIC 'CODE'
_TEXT	ENDS
;	COMDAT _AddFrames_msg_OMacActor
_TEXT	SEGMENT PARA USE32 PUBLIC 'CODE'
_TEXT	ENDS
;	COMDAT _$E79
_TEXT	SEGMENT PARA USE32 PUBLIC 'CODE'
_TEXT	ENDS
;	COMDAT _$E80
_TEXT	SEGMENT PARA USE32 PUBLIC 'CODE'
_TEXT	ENDS
;	COMDAT _AddSequences_msg_OMacActor
_TEXT	SEGMENT PARA USE32 PUBLIC 'CODE'
_TEXT	ENDS
;	COMDAT ?Tick@OMacActor@@SAXXZ
_TEXT	SEGMENT PARA USE32 PUBLIC 'CODE'
_TEXT	ENDS
;	COMDAT ?ValidateAbs@CMacBone@@IAEX_N@Z
_TEXT	SEGMENT PARA USE32 PUBLIC 'CODE'
_TEXT	ENDS
;	COMDAT ?GetCoords@CMacBone@@QAE?AVVCoords3@@_N@Z
_TEXT	SEGMENT PARA USE32 PUBLIC 'CODE'
_TEXT	ENDS
;	COMDAT ?SetCoords@CMacBone@@QAEXABVVCoords3@@_N@Z
_TEXT	SEGMENT PARA USE32 PUBLIC 'CODE'
_TEXT	ENDS
;	COMDAT ?ResetCoords@CMacBone@@QAEXXZ
_TEXT	SEGMENT PARA USE32 PUBLIC 'CODE'
_TEXT	ENDS
;	COMDAT _$E82
_TEXT	SEGMENT PARA USE32 PUBLIC 'CODE'
_TEXT	ENDS
;	COMDAT _$E83
_TEXT	SEGMENT PARA USE32 PUBLIC 'CODE'
_TEXT	ENDS
;	COMDAT _$E84
_TEXT	SEGMENT PARA USE32 PUBLIC 'CODE'
_TEXT	ENDS
;	COMDAT _$E85
_TEXT	SEGMENT PARA USE32 PUBLIC 'CODE'
_TEXT	ENDS
;	COMDAT _$E87
_TEXT	SEGMENT PARA USE32 PUBLIC 'CODE'
_TEXT	ENDS
;	COMDAT _$E88
_TEXT	SEGMENT PARA USE32 PUBLIC 'CODE'
_TEXT	ENDS
;	COMDAT _$E90
_TEXT	SEGMENT PARA USE32 PUBLIC 'CODE'
_TEXT	ENDS
;	COMDAT _$E91
_TEXT	SEGMENT PARA USE32 PUBLIC 'CODE'
_TEXT	ENDS
;	COMDAT _$E93
_TEXT	SEGMENT PARA USE32 PUBLIC 'CODE'
_TEXT	ENDS
;	COMDAT _$E94
_TEXT	SEGMENT PARA USE32 PUBLIC 'CODE'
_TEXT	ENDS
;	COMDAT ?MsgGetChild@OMacActor@@UAEPAVIMsgTarget@@PAD@Z
_TEXT	SEGMENT PARA USE32 PUBLIC 'CODE'
_TEXT	ENDS
;	COMDAT ?Create@OMacActor@@UAEXXZ
_TEXT	SEGMENT PARA USE32 PUBLIC 'CODE'
_TEXT	ENDS
;	COMDAT ?FindBone@OMacActor@@QAEPAVCMacBone@@PBD@Z
_TEXT	SEGMENT PARA USE32 PUBLIC 'CODE'
_TEXT	ENDS
;	COMDAT ?FindFrame@OMacActor@@QAEPAVCCpjFrmFrame@@PBD@Z
_TEXT	SEGMENT PARA USE32 PUBLIC 'CODE'
_TEXT	ENDS
;	COMDAT ?FindSequence@OMacActor@@QAEPAVOCpjSequence@@PBD@Z
_TEXT	SEGMENT PARA USE32 PUBLIC 'CODE'
_TEXT	ENDS
;	COMDAT ?SetGeometry@OMacActor@@QAE_NPAVOCpjGeometry@@@Z
_TEXT	SEGMENT PARA USE32 PUBLIC 'CODE'
_TEXT	ENDS
;	COMDAT ?SetSkeleton@OMacActor@@QAE_NPAVOCpjSkeleton@@@Z
_TEXT	SEGMENT PARA USE32 PUBLIC 'CODE'
_TEXT	ENDS
;	COMDAT ?SetLodData@OMacActor@@QAE_NPAVOCpjLodData@@@Z
_TEXT	SEGMENT PARA USE32 PUBLIC 'CODE'
_TEXT	ENDS
;	COMDAT ?SetSurface@OMacActor@@QAE_NKPAVOCpjSurface@@@Z
_TEXT	SEGMENT PARA USE32 PUBLIC 'CODE'
_TEXT	ENDS
;	COMDAT ?AddFrames@OMacActor@@QAE_NPAVOCpjProject@@@Z
_TEXT	SEGMENT PARA USE32 PUBLIC 'CODE'
_TEXT	ENDS
;	COMDAT ?AddSequences@OMacActor@@QAE_NPAVOCpjProject@@@Z
_TEXT	SEGMENT PARA USE32 PUBLIC 'CODE'
_TEXT	ENDS
;	COMDAT ?LoadConfig@OMacActor@@QAE_NPAVOCpjConfig@@@Z
_TEXT	SEGMENT PARA USE32 PUBLIC 'CODE'
_TEXT	ENDS
;	COMDAT ?SaveConfig@OMacActor@@QAE_NPAVOCpjConfig@@@Z
_TEXT	SEGMENT PARA USE32 PUBLIC 'CODE'
_TEXT	ENDS
;	COMDAT ?GetLodInfo@OMacActor@@QAEPAVCCpjLodLevel@@M@Z
_TEXT	SEGMENT PARA USE32 PUBLIC 'CODE'
_TEXT	ENDS
;	COMDAT ?EvaluateTris@OMacActor@@QAEKMPAUSMacTri@@@Z
_TEXT	SEGMENT PARA USE32 PUBLIC 'CODE'
_TEXT	ENDS
;	COMDAT ?EvaluateVerts@OMacActor@@QAEKMMPAVVVec3@@@Z
_TEXT	SEGMENT PARA USE32 PUBLIC 'CODE'
_TEXT	ENDS
;	COMDAT ?EvaluateTriVerts@OMacActor@@QAE_NKMPAVVVec3@@@Z
_TEXT	SEGMENT PARA USE32 PUBLIC 'CODE'
_TEXT	ENDS
;	COMDAT ?RayTriIntersect@@YA_NABVVLine3@@ABVVVec3@@11AAMAAV2@@Z
_TEXT	SEGMENT PARA USE32 PUBLIC 'CODE'
_TEXT	ENDS
;	COMDAT ?TraceRay@OMacActor@@QAE_NKPAUSMacTri@@KPAVVVec3@@ABVVLine3@@PAKPAM1PAPAVCCpjSklBone@@@Z
_TEXT	SEGMENT PARA USE32 PUBLIC 'CODE'
_TEXT	ENDS
;	COMDAT ?RemoveReferencesTo@OMacActor@@QAE_NPAVOCpjChunk@@@Z
_TEXT	SEGMENT PARA USE32 PUBLIC 'CODE'
_TEXT	ENDS
;	COMDAT ?RemoveAllReferencesTo@OMacActor@@SA_NPAVOCpjChunk@@@Z
_TEXT	SEGMENT PARA USE32 PUBLIC 'CODE'
_TEXT	ENDS
;	COMDAT _$E96
_TEXT	SEGMENT PARA USE32 PUBLIC 'CODE'
_TEXT	ENDS
;	COMDAT _$E97
_TEXT	SEGMENT PARA USE32 PUBLIC 'CODE'
_TEXT	ENDS
;	COMDAT _$E98
_TEXT	SEGMENT PARA USE32 PUBLIC 'CODE'
_TEXT	ENDS
;	COMDAT _$E99
_TEXT	SEGMENT PARA USE32 PUBLIC 'CODE'
_TEXT	ENDS
;	COMDAT _$E101
_TEXT	SEGMENT PARA USE32 PUBLIC 'CODE'
_TEXT	ENDS
;	COMDAT _$E102
_TEXT	SEGMENT PARA USE32 PUBLIC 'CODE'
_TEXT	ENDS
;	COMDAT _$E104
_TEXT	SEGMENT PARA USE32 PUBLIC 'CODE'
_TEXT	ENDS
;	COMDAT _$E105
_TEXT	SEGMENT PARA USE32 PUBLIC 'CODE'
_TEXT	ENDS
;	COMDAT _$E106
_TEXT	SEGMENT PARA USE32 PUBLIC 'CODE'
_TEXT	ENDS
;	COMDAT _$E107
_TEXT	SEGMENT PARA USE32 PUBLIC 'CODE'
_TEXT	ENDS
;	COMDAT _$E109
_TEXT	SEGMENT PARA USE32 PUBLIC 'CODE'
_TEXT	ENDS
;	COMDAT _$E110
_TEXT	SEGMENT PARA USE32 PUBLIC 'CODE'
_TEXT	ENDS
;	COMDAT ?EvalBones@OMacSequenceChannel@@UAE_NPAVOMacActor@@@Z
_TEXT	SEGMENT PARA USE32 PUBLIC 'CODE'
_TEXT	ENDS
;	COMDAT _$E114
_TEXT	SEGMENT PARA USE32 PUBLIC 'CODE'
_TEXT	ENDS
;	COMDAT _$E113
_TEXT	SEGMENT PARA USE32 PUBLIC 'CODE'
_TEXT	ENDS
;	COMDAT ?EvalVerts@OMacSequenceChannel@@UAE_NPAVOMacActor@@KPAGPAVVVec3@@@Z
_TEXT	SEGMENT PARA USE32 PUBLIC 'CODE'
_TEXT	ENDS
;	COMDAT _$E115
_TEXT	SEGMENT PARA USE32 PUBLIC 'CODE'
_TEXT	ENDS
;	COMDAT _$E116
_TEXT	SEGMENT PARA USE32 PUBLIC 'CODE'
_TEXT	ENDS
;	COMDAT _$E117
_TEXT	SEGMENT PARA USE32 PUBLIC 'CODE'
_TEXT	ENDS
;	COMDAT _$E118
_TEXT	SEGMENT PARA USE32 PUBLIC 'CODE'
_TEXT	ENDS
;	COMDAT _$E120
_TEXT	SEGMENT PARA USE32 PUBLIC 'CODE'
_TEXT	ENDS
;	COMDAT _$E121
_TEXT	SEGMENT PARA USE32 PUBLIC 'CODE'
_TEXT	ENDS
;	COMDAT ?EvalBones@OMacIKChannel@@UAE_NPAVOMacActor@@@Z
_TEXT	SEGMENT PARA USE32 PUBLIC 'CODE'
_TEXT	ENDS
;	COMDAT _$E123
_TEXT	SEGMENT PARA USE32 PUBLIC 'CODE'
_TEXT	ENDS
;	COMDAT _$E124
_TEXT	SEGMENT PARA USE32 PUBLIC 'CODE'
_TEXT	ENDS
;	COMDAT _$E126
_TEXT	SEGMENT PARA USE32 PUBLIC 'CODE'
_TEXT	ENDS
;	COMDAT _$E127
_TEXT	SEGMENT PARA USE32 PUBLIC 'CODE'
_TEXT	ENDS
;	COMDAT ?StaticFindInfo@CMacTraceInfo@@SAPAV1@PAVOMacActor@@PAVOCpjGeometry@@PAVOCpjSkeleton@@@Z
_TEXT	SEGMENT PARA USE32 PUBLIC 'CODE'
_TEXT	ENDS
;	COMDAT ?Construct@CMacTraceInfo@@QAEXPAVOMacActor@@@Z
_TEXT	SEGMENT PARA USE32 PUBLIC 'CODE'
_TEXT	ENDS
;	COMDAT _$E131
_TEXT	SEGMENT PARA USE32 PUBLIC 'CODE'
_TEXT	ENDS
;	COMDAT _$E130
_TEXT	SEGMENT PARA USE32 PUBLIC 'CODE'
_TEXT	ENDS
;	COMDAT ??0?$XChain@VXStatistic@@@@QAE@XZ
_TEXT	SEGMENT PARA USE32 PUBLIC 'CODE'
_TEXT	ENDS
;	COMDAT ?get_head@?$XList@VXStatistic@@@@QAEPAVXStatistic@@XZ
_TEXT	SEGMENT PARA USE32 PUBLIC 'CODE'
_TEXT	ENDS
;	COMDAT ??0?$TCorArray@E@@QAE@K@Z
_TEXT	SEGMENT PARA USE32 PUBLIC 'CODE'
_TEXT	ENDS
;	COMDAT ??0?$TCorArray@E@@QAE@AAV0@@Z
_TEXT	SEGMENT PARA USE32 PUBLIC 'CODE'
_TEXT	ENDS
;	COMDAT ??4?$TCorArray@E@@QAEAAV0@AAV0@@Z
_TEXT	SEGMENT PARA USE32 PUBLIC 'CODE'
_TEXT	ENDS
;	COMDAT ??1?$TCorArray@E@@QAE@XZ
_TEXT	SEGMENT PARA USE32 PUBLIC 'CODE'
_TEXT	ENDS
;	COMDAT ??A?$TCorArray@E@@QAEAAEH@Z
_TEXT	SEGMENT PARA USE32 PUBLIC 'CODE'
_TEXT	ENDS
;	COMDAT ?GetCount@?$TCorArray@E@@QAEKXZ
_TEXT	SEGMENT PARA USE32 PUBLIC 'CODE'
_TEXT	ENDS
;	COMDAT ?Purge@?$TCorArray@E@@QAEXXZ
_TEXT	SEGMENT PARA USE32 PUBLIC 'CODE'
_TEXT	ENDS
;	COMDAT ?Shrink@?$TCorArray@E@@QAEXXZ
_TEXT	SEGMENT PARA USE32 PUBLIC 'CODE'
_TEXT	ENDS
;	COMDAT ?Add@?$TCorArray@E@@QAEKK@Z
_TEXT	SEGMENT PARA USE32 PUBLIC 'CODE'
_TEXT	ENDS
;	COMDAT ??0?$TCorArray@PAVCCpjGeoEdge@@@@QAE@K@Z
_TEXT	SEGMENT PARA USE32 PUBLIC 'CODE'
_TEXT	ENDS
;	COMDAT ??1?$TCorArray@PAVCCpjGeoEdge@@@@QAE@XZ
_TEXT	SEGMENT PARA USE32 PUBLIC 'CODE'
_TEXT	ENDS
;	COMDAT ??0?$TCorArray@PAVCCpjGeoTri@@@@QAE@K@Z
_TEXT	SEGMENT PARA USE32 PUBLIC 'CODE'
_TEXT	ENDS
;	COMDAT ??1?$TCorArray@PAVCCpjGeoTri@@@@QAE@XZ
_TEXT	SEGMENT PARA USE32 PUBLIC 'CODE'
_TEXT	ENDS
;	COMDAT ??0?$TCorArray@VCCpjGeoVert@@@@QAE@K@Z
_TEXT	SEGMENT PARA USE32 PUBLIC 'CODE'
_TEXT	ENDS
;	COMDAT ??0?$TCorArray@VCCpjGeoVert@@@@QAE@AAV0@@Z
_TEXT	SEGMENT PARA USE32 PUBLIC 'CODE'
_TEXT	ENDS
;	COMDAT ??4?$TCorArray@VCCpjGeoVert@@@@QAEAAV0@AAV0@@Z
_TEXT	SEGMENT PARA USE32 PUBLIC 'CODE'
_TEXT	ENDS
;	COMDAT ??1?$TCorArray@VCCpjGeoVert@@@@QAE@XZ
_TEXT	SEGMENT PARA USE32 PUBLIC 'CODE'
_TEXT	ENDS
;	COMDAT ??A?$TCorArray@VCCpjGeoVert@@@@QAEAAVCCpjGeoVert@@H@Z
_TEXT	SEGMENT PARA USE32 PUBLIC 'CODE'
_TEXT	ENDS
;	COMDAT ?GetCount@?$TCorArray@VCCpjGeoVert@@@@QAEKXZ
_TEXT	SEGMENT PARA USE32 PUBLIC 'CODE'
_TEXT	ENDS
;	COMDAT ??0?$TCorArray@VCCpjGeoEdge@@@@QAE@K@Z
_TEXT	SEGMENT PARA USE32 PUBLIC 'CODE'
_TEXT	ENDS
;	COMDAT ??0?$TCorArray@VCCpjGeoEdge@@@@QAE@AAV0@@Z
_TEXT	SEGMENT PARA USE32 PUBLIC 'CODE'
_TEXT	ENDS
;	COMDAT ??4?$TCorArray@VCCpjGeoEdge@@@@QAEAAV0@AAV0@@Z
_TEXT	SEGMENT PARA USE32 PUBLIC 'CODE'
_TEXT	ENDS
;	COMDAT ??1?$TCorArray@VCCpjGeoEdge@@@@QAE@XZ
_TEXT	SEGMENT PARA USE32 PUBLIC 'CODE'
_TEXT	ENDS
;	COMDAT ??0?$TCorArray@VCCpjGeoTri@@@@QAE@K@Z
_TEXT	SEGMENT PARA USE32 PUBLIC 'CODE'
_TEXT	ENDS
;	COMDAT ??0?$TCorArray@VCCpjGeoTri@@@@QAE@AAV0@@Z
_TEXT	SEGMENT PARA USE32 PUBLIC 'CODE'
_TEXT	ENDS
;	COMDAT ??4?$TCorArray@VCCpjGeoTri@@@@QAEAAV0@AAV0@@Z
_TEXT	SEGMENT PARA USE32 PUBLIC 'CODE'
_TEXT	ENDS
;	COMDAT ??1?$TCorArray@VCCpjGeoTri@@@@QAE@XZ
_TEXT	SEGMENT PARA USE32 PUBLIC 'CODE'
_TEXT	ENDS
;	COMDAT ??A?$TCorArray@VCCpjGeoTri@@@@QAEAAVCCpjGeoTri@@H@Z
_TEXT	SEGMENT PARA USE32 PUBLIC 'CODE'
_TEXT	ENDS
;	COMDAT ?GetCount@?$TCorArray@VCCpjGeoTri@@@@QAEKXZ
_TEXT	SEGMENT PARA USE32 PUBLIC 'CODE'
_TEXT	ENDS
;	COMDAT ??0?$TCorArray@VCCpjGeoMount@@@@QAE@K@Z
_TEXT	SEGMENT PARA USE32 PUBLIC 'CODE'
_TEXT	ENDS
;	COMDAT ??0?$TCorArray@VCCpjGeoMount@@@@QAE@AAV0@@Z
_TEXT	SEGMENT PARA USE32 PUBLIC 'CODE'
_TEXT	ENDS
;	COMDAT ??4?$TCorArray@VCCpjGeoMount@@@@QAEAAV0@AAV0@@Z
_TEXT	SEGMENT PARA USE32 PUBLIC 'CODE'
_TEXT	ENDS
;	COMDAT ??1?$TCorArray@VCCpjGeoMount@@@@QAE@XZ
_TEXT	SEGMENT PARA USE32 PUBLIC 'CODE'
_TEXT	ENDS
;	COMDAT ??0?$TCorArray@VCCpjSrfTex@@@@QAE@K@Z
_TEXT	SEGMENT PARA USE32 PUBLIC 'CODE'
_TEXT	ENDS
;	COMDAT ??0?$TCorArray@VCCpjSrfTex@@@@QAE@AAV0@@Z
_TEXT	SEGMENT PARA USE32 PUBLIC 'CODE'
_TEXT	ENDS
;	COMDAT ??4?$TCorArray@VCCpjSrfTex@@@@QAEAAV0@AAV0@@Z
_TEXT	SEGMENT PARA USE32 PUBLIC 'CODE'
_TEXT	ENDS
;	COMDAT ??1?$TCorArray@VCCpjSrfTex@@@@QAE@XZ
_TEXT	SEGMENT PARA USE32 PUBLIC 'CODE'
_TEXT	ENDS
;	COMDAT ??A?$TCorArray@VCCpjSrfTex@@@@QAEAAVCCpjSrfTex@@H@Z
_TEXT	SEGMENT PARA USE32 PUBLIC 'CODE'
_TEXT	ENDS
;	COMDAT ?GetCount@?$TCorArray@VCCpjSrfTex@@@@QAEKXZ
_TEXT	SEGMENT PARA USE32 PUBLIC 'CODE'
_TEXT	ENDS
;	COMDAT ??0?$TCorArray@VCCpjSrfTri@@@@QAE@K@Z
_TEXT	SEGMENT PARA USE32 PUBLIC 'CODE'
_TEXT	ENDS
;	COMDAT ??0?$TCorArray@VCCpjSrfTri@@@@QAE@AAV0@@Z
_TEXT	SEGMENT PARA USE32 PUBLIC 'CODE'
_TEXT	ENDS
;	COMDAT ??4?$TCorArray@VCCpjSrfTri@@@@QAEAAV0@AAV0@@Z
_TEXT	SEGMENT PARA USE32 PUBLIC 'CODE'
_TEXT	ENDS
;	COMDAT ??1?$TCorArray@VCCpjSrfTri@@@@QAE@XZ
_TEXT	SEGMENT PARA USE32 PUBLIC 'CODE'
_TEXT	ENDS
;	COMDAT ??A?$TCorArray@VCCpjSrfTri@@@@QAEAAVCCpjSrfTri@@H@Z
_TEXT	SEGMENT PARA USE32 PUBLIC 'CODE'
_TEXT	ENDS
;	COMDAT ?GetCount@?$TCorArray@VCCpjSrfTri@@@@QAEKXZ
_TEXT	SEGMENT PARA USE32 PUBLIC 'CODE'
_TEXT	ENDS
;	COMDAT ??0?$TCorArray@VVVec2@@@@QAE@K@Z
_TEXT	SEGMENT PARA USE32 PUBLIC 'CODE'
_TEXT	ENDS
;	COMDAT ??0?$TCorArray@VVVec2@@@@QAE@AAV0@@Z
_TEXT	SEGMENT PARA USE32 PUBLIC 'CODE'
_TEXT	ENDS
;	COMDAT ??4?$TCorArray@VVVec2@@@@QAEAAV0@AAV0@@Z
_TEXT	SEGMENT PARA USE32 PUBLIC 'CODE'
_TEXT	ENDS
;	COMDAT ??1?$TCorArray@VVVec2@@@@QAE@XZ
_TEXT	SEGMENT PARA USE32 PUBLIC 'CODE'
_TEXT	ENDS
;	COMDAT ??A?$TCorArray@VVVec2@@@@QAEAAVVVec2@@H@Z
_TEXT	SEGMENT PARA USE32 PUBLIC 'CODE'
_TEXT	ENDS
;	COMDAT ??0?$TCorArray@G@@QAE@K@Z
_TEXT	SEGMENT PARA USE32 PUBLIC 'CODE'
_TEXT	ENDS
;	COMDAT ??1?$TCorArray@G@@QAE@XZ
_TEXT	SEGMENT PARA USE32 PUBLIC 'CODE'
_TEXT	ENDS
;	COMDAT ??A?$TCorArray@G@@QAEAAGH@Z
_TEXT	SEGMENT PARA USE32 PUBLIC 'CODE'
_TEXT	ENDS
;	COMDAT ?GetCount@?$TCorArray@G@@QAEKXZ
_TEXT	SEGMENT PARA USE32 PUBLIC 'CODE'
_TEXT	ENDS
;	COMDAT ??0?$TCorArray@VCCpjLodTri@@@@QAE@K@Z
_TEXT	SEGMENT PARA USE32 PUBLIC 'CODE'
_TEXT	ENDS
;	COMDAT ??1?$TCorArray@VCCpjLodTri@@@@QAE@XZ
_TEXT	SEGMENT PARA USE32 PUBLIC 'CODE'
_TEXT	ENDS
;	COMDAT ??A?$TCorArray@VCCpjLodTri@@@@QAEAAVCCpjLodTri@@H@Z
_TEXT	SEGMENT PARA USE32 PUBLIC 'CODE'
_TEXT	ENDS
;	COMDAT ?GetCount@?$TCorArray@VCCpjLodTri@@@@QAEKXZ
_TEXT	SEGMENT PARA USE32 PUBLIC 'CODE'
_TEXT	ENDS
;	COMDAT ??0?$TCorArray@VCCpjLodLevel@@@@QAE@K@Z
_TEXT	SEGMENT PARA USE32 PUBLIC 'CODE'
_TEXT	ENDS
;	COMDAT ??0?$TCorArray@VCCpjLodLevel@@@@QAE@AAV0@@Z
_TEXT	SEGMENT PARA USE32 PUBLIC 'CODE'
_TEXT	ENDS
;	COMDAT ??4?$TCorArray@VCCpjLodLevel@@@@QAEAAV0@AAV0@@Z
_TEXT	SEGMENT PARA USE32 PUBLIC 'CODE'
_TEXT	ENDS
;	COMDAT ??1?$TCorArray@VCCpjLodLevel@@@@QAE@XZ
_TEXT	SEGMENT PARA USE32 PUBLIC 'CODE'
_TEXT	ENDS
;	COMDAT ??A?$TCorArray@VCCpjLodLevel@@@@QAEAAVCCpjLodLevel@@H@Z
_TEXT	SEGMENT PARA USE32 PUBLIC 'CODE'
_TEXT	ENDS
;	COMDAT ?GetCount@?$TCorArray@VCCpjLodLevel@@@@QAEKXZ
_TEXT	SEGMENT PARA USE32 PUBLIC 'CODE'
_TEXT	ENDS
;	COMDAT ??0?$TCorArray@VCCpjSklWeight@@@@QAE@K@Z
_TEXT	SEGMENT PARA USE32 PUBLIC 'CODE'
_TEXT	ENDS
;	COMDAT ??1?$TCorArray@VCCpjSklWeight@@@@QAE@XZ
_TEXT	SEGMENT PARA USE32 PUBLIC 'CODE'
_TEXT	ENDS
;	COMDAT ??A?$TCorArray@VCCpjSklWeight@@@@QAEAAVCCpjSklWeight@@H@Z
_TEXT	SEGMENT PARA USE32 PUBLIC 'CODE'
_TEXT	ENDS
;	COMDAT ?GetCount@?$TCorArray@VCCpjSklWeight@@@@QAEKXZ
_TEXT	SEGMENT PARA USE32 PUBLIC 'CODE'
_TEXT	ENDS
;	COMDAT ??0?$TCorArray@VCCpjSklBone@@@@QAE@K@Z
_TEXT	SEGMENT PARA USE32 PUBLIC 'CODE'
_TEXT	ENDS
;	COMDAT ??0?$TCorArray@VCCpjSklBone@@@@QAE@AAV0@@Z
_TEXT	SEGMENT PARA USE32 PUBLIC 'CODE'
_TEXT	ENDS
;	COMDAT ??4?$TCorArray@VCCpjSklBone@@@@QAEAAV0@AAV0@@Z
_TEXT	SEGMENT PARA USE32 PUBLIC 'CODE'
_TEXT	ENDS
;	COMDAT ??1?$TCorArray@VCCpjSklBone@@@@QAE@XZ
_TEXT	SEGMENT PARA USE32 PUBLIC 'CODE'
_TEXT	ENDS
;	COMDAT ??A?$TCorArray@VCCpjSklBone@@@@QAEAAVCCpjSklBone@@H@Z
_TEXT	SEGMENT PARA USE32 PUBLIC 'CODE'
_TEXT	ENDS
;	COMDAT ?GetCount@?$TCorArray@VCCpjSklBone@@@@QAEKXZ
_TEXT	SEGMENT PARA USE32 PUBLIC 'CODE'
_TEXT	ENDS
;	COMDAT ??0?$TCorArray@VCCpjSklVert@@@@QAE@K@Z
_TEXT	SEGMENT PARA USE32 PUBLIC 'CODE'
_TEXT	ENDS
;	COMDAT ??0?$TCorArray@VCCpjSklVert@@@@QAE@AAV0@@Z
_TEXT	SEGMENT PARA USE32 PUBLIC 'CODE'
_TEXT	ENDS
;	COMDAT ??4?$TCorArray@VCCpjSklVert@@@@QAEAAV0@AAV0@@Z
_TEXT	SEGMENT PARA USE32 PUBLIC 'CODE'
_TEXT	ENDS
;	COMDAT ??1?$TCorArray@VCCpjSklVert@@@@QAE@XZ
_TEXT	SEGMENT PARA USE32 PUBLIC 'CODE'
_TEXT	ENDS
;	COMDAT ??A?$TCorArray@VCCpjSklVert@@@@QAEAAVCCpjSklVert@@H@Z
_TEXT	SEGMENT PARA USE32 PUBLIC 'CODE'
_TEXT	ENDS
;	COMDAT ?GetCount@?$TCorArray@VCCpjSklVert@@@@QAEKXZ
_TEXT	SEGMENT PARA USE32 PUBLIC 'CODE'
_TEXT	ENDS
;	COMDAT ??0?$TCorArray@VCCpjSklMount@@@@QAE@K@Z
_TEXT	SEGMENT PARA USE32 PUBLIC 'CODE'
_TEXT	ENDS
;	COMDAT ??0?$TCorArray@VCCpjSklMount@@@@QAE@AAV0@@Z
_TEXT	SEGMENT PARA USE32 PUBLIC 'CODE'
_TEXT	ENDS
;	COMDAT ??4?$TCorArray@VCCpjSklMount@@@@QAEAAV0@AAV0@@Z
_TEXT	SEGMENT PARA USE32 PUBLIC 'CODE'
_TEXT	ENDS
;	COMDAT ??1?$TCorArray@VCCpjSklMount@@@@QAE@XZ
_TEXT	SEGMENT PARA USE32 PUBLIC 'CODE'
_TEXT	ENDS
;	COMDAT ??0?$TCorArray@VCCpjFrmGroup@@@@QAE@K@Z
_TEXT	SEGMENT PARA USE32 PUBLIC 'CODE'
_TEXT	ENDS
;	COMDAT ??0?$TCorArray@VCCpjFrmGroup@@@@QAE@AAV0@@Z
_TEXT	SEGMENT PARA USE32 PUBLIC 'CODE'
_TEXT	ENDS
;	COMDAT ??4?$TCorArray@VCCpjFrmGroup@@@@QAEAAV0@AAV0@@Z
_TEXT	SEGMENT PARA USE32 PUBLIC 'CODE'
_TEXT	ENDS
;	COMDAT ??1?$TCorArray@VCCpjFrmGroup@@@@QAE@XZ
_TEXT	SEGMENT PARA USE32 PUBLIC 'CODE'
_TEXT	ENDS
;	COMDAT ??A?$TCorArray@VCCpjFrmGroup@@@@QAEAAVCCpjFrmGroup@@H@Z
_TEXT	SEGMENT PARA USE32 PUBLIC 'CODE'
_TEXT	ENDS
;	COMDAT ??0?$TCorArray@VCCpjFrmBytePos@@@@QAE@K@Z
_TEXT	SEGMENT PARA USE32 PUBLIC 'CODE'
_TEXT	ENDS
;	COMDAT ??0?$TCorArray@VCCpjFrmBytePos@@@@QAE@AAV0@@Z
_TEXT	SEGMENT PARA USE32 PUBLIC 'CODE'
_TEXT	ENDS
;	COMDAT ??4?$TCorArray@VCCpjFrmBytePos@@@@QAEAAV0@AAV0@@Z
_TEXT	SEGMENT PARA USE32 PUBLIC 'CODE'
_TEXT	ENDS
;	COMDAT ??1?$TCorArray@VCCpjFrmBytePos@@@@QAE@XZ
_TEXT	SEGMENT PARA USE32 PUBLIC 'CODE'
_TEXT	ENDS
;	COMDAT ??A?$TCorArray@VCCpjFrmBytePos@@@@QAEAAVCCpjFrmBytePos@@H@Z
_TEXT	SEGMENT PARA USE32 PUBLIC 'CODE'
_TEXT	ENDS
;	COMDAT ??0?$TCorArray@VVVec3@@@@QAE@K@Z
_TEXT	SEGMENT PARA USE32 PUBLIC 'CODE'
_TEXT	ENDS
;	COMDAT ??0?$TCorArray@VVVec3@@@@QAE@AAV0@@Z
_TEXT	SEGMENT PARA USE32 PUBLIC 'CODE'
_TEXT	ENDS
;	COMDAT ??4?$TCorArray@VVVec3@@@@QAEAAV0@AAV0@@Z
_TEXT	SEGMENT PARA USE32 PUBLIC 'CODE'
_TEXT	ENDS
;	COMDAT ??1?$TCorArray@VVVec3@@@@QAE@XZ
_TEXT	SEGMENT PARA USE32 PUBLIC 'CODE'
_TEXT	ENDS
;	COMDAT ??A?$TCorArray@VVVec3@@@@QAEAAVVVec3@@H@Z
_TEXT	SEGMENT PARA USE32 PUBLIC 'CODE'
_TEXT	ENDS
;	COMDAT ??0?$TCorArray@VCCpjFrmFrame@@@@QAE@K@Z
_TEXT	SEGMENT PARA USE32 PUBLIC 'CODE'
_TEXT	ENDS
;	COMDAT ??0?$TCorArray@VCCpjFrmFrame@@@@QAE@AAV0@@Z
_TEXT	SEGMENT PARA USE32 PUBLIC 'CODE'
_TEXT	ENDS
;	COMDAT ??4?$TCorArray@VCCpjFrmFrame@@@@QAEAAV0@AAV0@@Z
_TEXT	SEGMENT PARA USE32 PUBLIC 'CODE'
_TEXT	ENDS
;	COMDAT ??1?$TCorArray@VCCpjFrmFrame@@@@QAE@XZ
_TEXT	SEGMENT PARA USE32 PUBLIC 'CODE'
_TEXT	ENDS
;	COMDAT ??A?$TCorArray@VCCpjFrmFrame@@@@QAEAAVCCpjFrmFrame@@H@Z
_TEXT	SEGMENT PARA USE32 PUBLIC 'CODE'
_TEXT	ENDS
;	COMDAT ?GetCount@?$TCorArray@VCCpjFrmFrame@@@@QAEKXZ
_TEXT	SEGMENT PARA USE32 PUBLIC 'CODE'
_TEXT	ENDS
;	COMDAT ??0?$TCorArray@VCCpjSeqTranslate@@@@QAE@K@Z
_TEXT	SEGMENT PARA USE32 PUBLIC 'CODE'
_TEXT	ENDS
;	COMDAT ??1?$TCorArray@VCCpjSeqTranslate@@@@QAE@XZ
_TEXT	SEGMENT PARA USE32 PUBLIC 'CODE'
_TEXT	ENDS
;	COMDAT ??A?$TCorArray@VCCpjSeqTranslate@@@@QAEAAVCCpjSeqTranslate@@H@Z
_TEXT	SEGMENT PARA USE32 PUBLIC 'CODE'
_TEXT	ENDS
;	COMDAT ?GetCount@?$TCorArray@VCCpjSeqTranslate@@@@QAEKXZ
_TEXT	SEGMENT PARA USE32 PUBLIC 'CODE'
_TEXT	ENDS
;	COMDAT ??0?$TCorArray@VCCpjSeqRotate@@@@QAE@K@Z
_TEXT	SEGMENT PARA USE32 PUBLIC 'CODE'
_TEXT	ENDS
;	COMDAT ??1?$TCorArray@VCCpjSeqRotate@@@@QAE@XZ
_TEXT	SEGMENT PARA USE32 PUBLIC 'CODE'
_TEXT	ENDS
;	COMDAT ??A?$TCorArray@VCCpjSeqRotate@@@@QAEAAVCCpjSeqRotate@@H@Z
_TEXT	SEGMENT PARA USE32 PUBLIC 'CODE'
_TEXT	ENDS
;	COMDAT ?GetCount@?$TCorArray@VCCpjSeqRotate@@@@QAEKXZ
_TEXT	SEGMENT PARA USE32 PUBLIC 'CODE'
_TEXT	ENDS
;	COMDAT ??0?$TCorArray@VCCpjSeqScale@@@@QAE@K@Z
_TEXT	SEGMENT PARA USE32 PUBLIC 'CODE'
_TEXT	ENDS
;	COMDAT ??1?$TCorArray@VCCpjSeqScale@@@@QAE@XZ
_TEXT	SEGMENT PARA USE32 PUBLIC 'CODE'
_TEXT	ENDS
;	COMDAT ??A?$TCorArray@VCCpjSeqScale@@@@QAEAAVCCpjSeqScale@@H@Z
_TEXT	SEGMENT PARA USE32 PUBLIC 'CODE'
_TEXT	ENDS
;	COMDAT ?GetCount@?$TCorArray@VCCpjSeqScale@@@@QAEKXZ
_TEXT	SEGMENT PARA USE32 PUBLIC 'CODE'
_TEXT	ENDS
;	COMDAT ??0?$TCorArray@VCCpjSeqFrame@@@@QAE@K@Z
_TEXT	SEGMENT PARA USE32 PUBLIC 'CODE'
_TEXT	ENDS
;	COMDAT ??0?$TCorArray@VCCpjSeqFrame@@@@QAE@AAV0@@Z
_TEXT	SEGMENT PARA USE32 PUBLIC 'CODE'
_TEXT	ENDS
;	COMDAT ??4?$TCorArray@VCCpjSeqFrame@@@@QAEAAV0@AAV0@@Z
_TEXT	SEGMENT PARA USE32 PUBLIC 'CODE'
_TEXT	ENDS
;	COMDAT ??1?$TCorArray@VCCpjSeqFrame@@@@QAE@XZ
_TEXT	SEGMENT PARA USE32 PUBLIC 'CODE'
_TEXT	ENDS
;	COMDAT ??A?$TCorArray@VCCpjSeqFrame@@@@QAEAAVCCpjSeqFrame@@H@Z
_TEXT	SEGMENT PARA USE32 PUBLIC 'CODE'
_TEXT	ENDS
;	COMDAT ?GetCount@?$TCorArray@VCCpjSeqFrame@@@@QAEKXZ
_TEXT	SEGMENT PARA USE32 PUBLIC 'CODE'
_TEXT	ENDS
;	COMDAT ??0?$TCorArray@VCCpjSeqEvent@@@@QAE@K@Z
_TEXT	SEGMENT PARA USE32 PUBLIC 'CODE'
_TEXT	ENDS
;	COMDAT ??0?$TCorArray@VCCpjSeqEvent@@@@QAE@AAV0@@Z
_TEXT	SEGMENT PARA USE32 PUBLIC 'CODE'
_TEXT	ENDS
;	COMDAT ??4?$TCorArray@VCCpjSeqEvent@@@@QAEAAV0@AAV0@@Z
_TEXT	SEGMENT PARA USE32 PUBLIC 'CODE'
_TEXT	ENDS
;	COMDAT ??1?$TCorArray@VCCpjSeqEvent@@@@QAE@XZ
_TEXT	SEGMENT PARA USE32 PUBLIC 'CODE'
_TEXT	ENDS
;	COMDAT ??0?$TCorArray@VCCpjSeqBoneInfo@@@@QAE@K@Z
_TEXT	SEGMENT PARA USE32 PUBLIC 'CODE'
_TEXT	ENDS
;	COMDAT ??0?$TCorArray@VCCpjSeqBoneInfo@@@@QAE@AAV0@@Z
_TEXT	SEGMENT PARA USE32 PUBLIC 'CODE'
_TEXT	ENDS
;	COMDAT ??4?$TCorArray@VCCpjSeqBoneInfo@@@@QAEAAV0@AAV0@@Z
_TEXT	SEGMENT PARA USE32 PUBLIC 'CODE'
_TEXT	ENDS
;	COMDAT ??1?$TCorArray@VCCpjSeqBoneInfo@@@@QAE@XZ
_TEXT	SEGMENT PARA USE32 PUBLIC 'CODE'
_TEXT	ENDS
;	COMDAT ??A?$TCorArray@VCCpjSeqBoneInfo@@@@QAEAAVCCpjSeqBoneInfo@@H@Z
_TEXT	SEGMENT PARA USE32 PUBLIC 'CODE'
_TEXT	ENDS
;	COMDAT ?GetCount@?$TCorArray@VCCpjSeqBoneInfo@@@@QAEKXZ
_TEXT	SEGMENT PARA USE32 PUBLIC 'CODE'
_TEXT	ENDS
;	COMDAT ??0?$TCorArray@VCCorString@@@@QAE@K@Z
_TEXT	SEGMENT PARA USE32 PUBLIC 'CODE'
_TEXT	ENDS
;	COMDAT ??0?$TCorArray@VCCorString@@@@QAE@AAV0@@Z
_TEXT	SEGMENT PARA USE32 PUBLIC 'CODE'
_TEXT	ENDS
;	COMDAT ??4?$TCorArray@VCCorString@@@@QAEAAV0@AAV0@@Z
_TEXT	SEGMENT PARA USE32 PUBLIC 'CODE'
_TEXT	ENDS
;	COMDAT ??1?$TCorArray@VCCorString@@@@QAE@XZ
_TEXT	SEGMENT PARA USE32 PUBLIC 'CODE'
_TEXT	ENDS
;	COMDAT ??A?$TCorArray@VCCorString@@@@QAEAAVCCorString@@H@Z
_TEXT	SEGMENT PARA USE32 PUBLIC 'CODE'
_TEXT	ENDS
;	COMDAT ?GetCount@?$TCorArray@VCCorString@@@@QAEKXZ
_TEXT	SEGMENT PARA USE32 PUBLIC 'CODE'
_TEXT	ENDS
;	COMDAT ?Purge@?$TCorArray@VCCorString@@@@QAEXXZ
_TEXT	SEGMENT PARA USE32 PUBLIC 'CODE'
_TEXT	ENDS
;	COMDAT ?Shrink@?$TCorArray@VCCorString@@@@QAEXXZ
_TEXT	SEGMENT PARA USE32 PUBLIC 'CODE'
_TEXT	ENDS
;	COMDAT ?AddItem@?$TCorArray@VCCorString@@@@QAEKABVCCorString@@@Z
_TEXT	SEGMENT PARA USE32 PUBLIC 'CODE'
_TEXT	ENDS
;	COMDAT ??0?$TCorArray@VCCpjMacSection@@@@QAE@K@Z
_TEXT	SEGMENT PARA USE32 PUBLIC 'CODE'
_TEXT	ENDS
;	COMDAT ??0?$TCorArray@VCCpjMacSection@@@@QAE@AAV0@@Z
_TEXT	SEGMENT PARA USE32 PUBLIC 'CODE'
_TEXT	ENDS
;	COMDAT ??4?$TCorArray@VCCpjMacSection@@@@QAEAAV0@AAV0@@Z
_TEXT	SEGMENT PARA USE32 PUBLIC 'CODE'
_TEXT	ENDS
;	COMDAT ??1?$TCorArray@VCCpjMacSection@@@@QAE@XZ
_TEXT	SEGMENT PARA USE32 PUBLIC 'CODE'
_TEXT	ENDS
;	COMDAT ??A?$TCorArray@VCCpjMacSection@@@@QAEAAVCCpjMacSection@@H@Z
_TEXT	SEGMENT PARA USE32 PUBLIC 'CODE'
_TEXT	ENDS
;	COMDAT ?GetCount@?$TCorArray@VCCpjMacSection@@@@QAEKXZ
_TEXT	SEGMENT PARA USE32 PUBLIC 'CODE'
_TEXT	ENDS
;	COMDAT ?Add@?$TCorArray@VCCpjMacSection@@@@QAEKK@Z
_TEXT	SEGMENT PARA USE32 PUBLIC 'CODE'
_TEXT	ENDS
;	COMDAT ??0?$TCorArray@PAVOCpjSurface@@@@QAE@K@Z
_TEXT	SEGMENT PARA USE32 PUBLIC 'CODE'
_TEXT	ENDS
;	COMDAT ??0?$TCorArray@PAVOCpjSurface@@@@QAE@AAV0@@Z
_TEXT	SEGMENT PARA USE32 PUBLIC 'CODE'
_TEXT	ENDS
;	COMDAT ??4?$TCorArray@PAVOCpjSurface@@@@QAEAAV0@AAV0@@Z
_TEXT	SEGMENT PARA USE32 PUBLIC 'CODE'
_TEXT	ENDS
;	COMDAT ??1?$TCorArray@PAVOCpjSurface@@@@QAE@XZ
_TEXT	SEGMENT PARA USE32 PUBLIC 'CODE'
_TEXT	ENDS
;	COMDAT ??A?$TCorArray@PAVOCpjSurface@@@@QAEAAPAVOCpjSurface@@H@Z
_TEXT	SEGMENT PARA USE32 PUBLIC 'CODE'
_TEXT	ENDS
;	COMDAT ?GetCount@?$TCorArray@PAVOCpjSurface@@@@QAEKXZ
_TEXT	SEGMENT PARA USE32 PUBLIC 'CODE'
_TEXT	ENDS
;	COMDAT ?Purge@?$TCorArray@PAVOCpjSurface@@@@QAEXXZ
_TEXT	SEGMENT PARA USE32 PUBLIC 'CODE'
_TEXT	ENDS
;	COMDAT ?Shrink@?$TCorArray@PAVOCpjSurface@@@@QAEXXZ
_TEXT	SEGMENT PARA USE32 PUBLIC 'CODE'
_TEXT	ENDS
;	COMDAT ?AddZeroed@?$TCorArray@PAVOCpjSurface@@@@QAEKK@Z
_TEXT	SEGMENT PARA USE32 PUBLIC 'CODE'
_TEXT	ENDS
;	COMDAT ??0?$TCorArray@PAVOCpjFrames@@@@QAE@K@Z
_TEXT	SEGMENT PARA USE32 PUBLIC 'CODE'
_TEXT	ENDS
;	COMDAT ??0?$TCorArray@PAVOCpjFrames@@@@QAE@AAV0@@Z
_TEXT	SEGMENT PARA USE32 PUBLIC 'CODE'
_TEXT	ENDS
;	COMDAT ??4?$TCorArray@PAVOCpjFrames@@@@QAEAAV0@AAV0@@Z
_TEXT	SEGMENT PARA USE32 PUBLIC 'CODE'
_TEXT	ENDS
;	COMDAT ??1?$TCorArray@PAVOCpjFrames@@@@QAE@XZ
_TEXT	SEGMENT PARA USE32 PUBLIC 'CODE'
_TEXT	ENDS
;	COMDAT ??A?$TCorArray@PAVOCpjFrames@@@@QAEAAPAVOCpjFrames@@H@Z
_TEXT	SEGMENT PARA USE32 PUBLIC 'CODE'
_TEXT	ENDS
;	COMDAT ?GetCount@?$TCorArray@PAVOCpjFrames@@@@QAEKXZ
_TEXT	SEGMENT PARA USE32 PUBLIC 'CODE'
_TEXT	ENDS
;	COMDAT ?Purge@?$TCorArray@PAVOCpjFrames@@@@QAEXXZ
_TEXT	SEGMENT PARA USE32 PUBLIC 'CODE'
_TEXT	ENDS
;	COMDAT ?Shrink@?$TCorArray@PAVOCpjFrames@@@@QAEXXZ
_TEXT	SEGMENT PARA USE32 PUBLIC 'CODE'
_TEXT	ENDS
;	COMDAT ?AddItem@?$TCorArray@PAVOCpjFrames@@@@QAEKABQAVOCpjFrames@@@Z
_TEXT	SEGMENT PARA USE32 PUBLIC 'CODE'
_TEXT	ENDS
;	COMDAT ??0?$TCorArray@PAVOCpjSequence@@@@QAE@K@Z
_TEXT	SEGMENT PARA USE32 PUBLIC 'CODE'
_TEXT	ENDS
;	COMDAT ??0?$TCorArray@PAVOCpjSequence@@@@QAE@AAV0@@Z
_TEXT	SEGMENT PARA USE32 PUBLIC 'CODE'
_TEXT	ENDS
;	COMDAT ??4?$TCorArray@PAVOCpjSequence@@@@QAEAAV0@AAV0@@Z
_TEXT	SEGMENT PARA USE32 PUBLIC 'CODE'
_TEXT	ENDS
;	COMDAT ??1?$TCorArray@PAVOCpjSequence@@@@QAE@XZ
_TEXT	SEGMENT PARA USE32 PUBLIC 'CODE'
_TEXT	ENDS
;	COMDAT ??A?$TCorArray@PAVOCpjSequence@@@@QAEAAPAVOCpjSequence@@H@Z
_TEXT	SEGMENT PARA USE32 PUBLIC 'CODE'
_TEXT	ENDS
;	COMDAT ?GetCount@?$TCorArray@PAVOCpjSequence@@@@QAEKXZ
_TEXT	SEGMENT PARA USE32 PUBLIC 'CODE'
_TEXT	ENDS
;	COMDAT ?Purge@?$TCorArray@PAVOCpjSequence@@@@QAEXXZ
_TEXT	SEGMENT PARA USE32 PUBLIC 'CODE'
_TEXT	ENDS
;	COMDAT ?Shrink@?$TCorArray@PAVOCpjSequence@@@@QAEXXZ
_TEXT	SEGMENT PARA USE32 PUBLIC 'CODE'
_TEXT	ENDS
;	COMDAT ?AddItem@?$TCorArray@PAVOCpjSequence@@@@QAEKABQAVOCpjSequence@@@Z
_TEXT	SEGMENT PARA USE32 PUBLIC 'CODE'
_TEXT	ENDS
;	COMDAT ??0?$TCorArray@VCMacBone@@@@QAE@K@Z
_TEXT	SEGMENT PARA USE32 PUBLIC 'CODE'
_TEXT	ENDS
;	COMDAT ??0?$TCorArray@VCMacBone@@@@QAE@AAV0@@Z
_TEXT	SEGMENT PARA USE32 PUBLIC 'CODE'
_TEXT	ENDS
;	COMDAT ??4?$TCorArray@VCMacBone@@@@QAEAAV0@AAV0@@Z
_TEXT	SEGMENT PARA USE32 PUBLIC 'CODE'
_TEXT	ENDS
;	COMDAT ??1?$TCorArray@VCMacBone@@@@QAE@XZ
_TEXT	SEGMENT PARA USE32 PUBLIC 'CODE'
_TEXT	ENDS
;	COMDAT ??A?$TCorArray@VCMacBone@@@@QAEAAVCMacBone@@H@Z
_TEXT	SEGMENT PARA USE32 PUBLIC 'CODE'
_TEXT	ENDS
;	COMDAT ?GetCount@?$TCorArray@VCMacBone@@@@QAEKXZ
_TEXT	SEGMENT PARA USE32 PUBLIC 'CODE'
_TEXT	ENDS
;	COMDAT ?Purge@?$TCorArray@VCMacBone@@@@QAEXXZ
_TEXT	SEGMENT PARA USE32 PUBLIC 'CODE'
_TEXT	ENDS
;	COMDAT ?Shrink@?$TCorArray@VCMacBone@@@@QAEXXZ
_TEXT	SEGMENT PARA USE32 PUBLIC 'CODE'
_TEXT	ENDS
;	COMDAT ?Add@?$TCorArray@VCMacBone@@@@QAEKK@Z
_TEXT	SEGMENT PARA USE32 PUBLIC 'CODE'
_TEXT	ENDS
;	COMDAT ??0?$TCorArray@PAVOMacChannel@@@@QAE@K@Z
_TEXT	SEGMENT PARA USE32 PUBLIC 'CODE'
_TEXT	ENDS
;	COMDAT ??0?$TCorArray@PAVOMacChannel@@@@QAE@AAV0@@Z
_TEXT	SEGMENT PARA USE32 PUBLIC 'CODE'
_TEXT	ENDS
;	COMDAT ??4?$TCorArray@PAVOMacChannel@@@@QAEAAV0@AAV0@@Z
_TEXT	SEGMENT PARA USE32 PUBLIC 'CODE'
_TEXT	ENDS
;	COMDAT ??1?$TCorArray@PAVOMacChannel@@@@QAE@XZ
_TEXT	SEGMENT PARA USE32 PUBLIC 'CODE'
_TEXT	ENDS
;	COMDAT ??A?$TCorArray@PAVOMacChannel@@@@QAEAAPAVOMacChannel@@H@Z
_TEXT	SEGMENT PARA USE32 PUBLIC 'CODE'
_TEXT	ENDS
;	COMDAT ?GetCount@?$TCorArray@PAVOMacChannel@@@@QAEKXZ
_TEXT	SEGMENT PARA USE32 PUBLIC 'CODE'
_TEXT	ENDS
;	COMDAT ?Purge@?$TCorArray@PAVOMacChannel@@@@QAEXXZ
_TEXT	SEGMENT PARA USE32 PUBLIC 'CODE'
_TEXT	ENDS
;	COMDAT ?Shrink@?$TCorArray@PAVOMacChannel@@@@QAEXXZ
_TEXT	SEGMENT PARA USE32 PUBLIC 'CODE'
_TEXT	ENDS
;	COMDAT ?AddZeroed@?$TCorArray@PAVOMacChannel@@@@QAEKK@Z
_TEXT	SEGMENT PARA USE32 PUBLIC 'CODE'
_TEXT	ENDS
;	COMDAT ??0?$TCorArray@VCMacTraceInfo@@@@QAE@K@Z
_TEXT	SEGMENT PARA USE32 PUBLIC 'CODE'
_TEXT	ENDS
;	COMDAT ??1?$TCorArray@VCMacTraceInfo@@@@QAE@XZ
_TEXT	SEGMENT PARA USE32 PUBLIC 'CODE'
_TEXT	ENDS
;	COMDAT ??A?$TCorArray@VCMacTraceInfo@@@@QAEAAVCMacTraceInfo@@H@Z
_TEXT	SEGMENT PARA USE32 PUBLIC 'CODE'
_TEXT	ENDS
;	COMDAT ?GetCount@?$TCorArray@VCMacTraceInfo@@@@QAEKXZ
_TEXT	SEGMENT PARA USE32 PUBLIC 'CODE'
_TEXT	ENDS
;	COMDAT ?Add@?$TCorArray@VCMacTraceInfo@@@@QAEKK@Z
_TEXT	SEGMENT PARA USE32 PUBLIC 'CODE'
_TEXT	ENDS
;	COMDAT ??0?$TCorArray@VVBox3@@@@QAE@K@Z
_TEXT	SEGMENT PARA USE32 PUBLIC 'CODE'
_TEXT	ENDS
;	COMDAT ??0?$TCorArray@VVBox3@@@@QAE@AAV0@@Z
_TEXT	SEGMENT PARA USE32 PUBLIC 'CODE'
_TEXT	ENDS
;	COMDAT ??4?$TCorArray@VVBox3@@@@QAEAAV0@AAV0@@Z
_TEXT	SEGMENT PARA USE32 PUBLIC 'CODE'
_TEXT	ENDS
;	COMDAT ??1?$TCorArray@VVBox3@@@@QAE@XZ
_TEXT	SEGMENT PARA USE32 PUBLIC 'CODE'
_TEXT	ENDS
;	COMDAT ??A?$TCorArray@VVBox3@@@@QAEAAVVBox3@@H@Z
_TEXT	SEGMENT PARA USE32 PUBLIC 'CODE'
_TEXT	ENDS
;	COMDAT ?GetCount@?$TCorArray@VVBox3@@@@QAEKXZ
_TEXT	SEGMENT PARA USE32 PUBLIC 'CODE'
_TEXT	ENDS
;	COMDAT ?Add@?$TCorArray@VVBox3@@@@QAEKK@Z
_TEXT	SEGMENT PARA USE32 PUBLIC 'CODE'
_TEXT	ENDS
;	COMDAT ??0?$TObjIter@VOCpjFrames@@@@QAE@PAVOObject@@_N@Z
_TEXT	SEGMENT PARA USE32 PUBLIC 'CODE'
_TEXT	ENDS
;	COMDAT ??E?$TObjIter@VOCpjFrames@@@@QAEXH@Z
_TEXT	SEGMENT PARA USE32 PUBLIC 'CODE'
_TEXT	ENDS
;	COMDAT ??D?$TObjIter@VOCpjFrames@@@@QAEPAVOCpjFrames@@XZ
_TEXT	SEGMENT PARA USE32 PUBLIC 'CODE'
_TEXT	ENDS
;	COMDAT ??0?$TObjIter@VOCpjSequence@@@@QAE@PAVOObject@@_N@Z
_TEXT	SEGMENT PARA USE32 PUBLIC 'CODE'
_TEXT	ENDS
;	COMDAT ??E?$TObjIter@VOCpjSequence@@@@QAEXH@Z
_TEXT	SEGMENT PARA USE32 PUBLIC 'CODE'
_TEXT	ENDS
;	COMDAT ??D?$TObjIter@VOCpjSequence@@@@QAEPAVOCpjSequence@@XZ
_TEXT	SEGMENT PARA USE32 PUBLIC 'CODE'
_TEXT	ENDS
;	COMDAT ??0?$TCorArray@PAVOCpjProject@@@@QAE@K@Z
_TEXT	SEGMENT PARA USE32 PUBLIC 'CODE'
_TEXT	ENDS
;	COMDAT ??1?$TCorArray@PAVOCpjProject@@@@QAE@XZ
_TEXT	SEGMENT PARA USE32 PUBLIC 'CODE'
_TEXT	ENDS
;	COMDAT ??A?$TCorArray@PAVOCpjProject@@@@QAEAAPAVOCpjProject@@H@Z
_TEXT	SEGMENT PARA USE32 PUBLIC 'CODE'
_TEXT	ENDS
;	COMDAT ?GetCount@?$TCorArray@PAVOCpjProject@@@@QAEKXZ
_TEXT	SEGMENT PARA USE32 PUBLIC 'CODE'
_TEXT	ENDS
;	COMDAT ?AddUnique@?$TCorArray@PAVOCpjProject@@@@QAEKABQAVOCpjProject@@@Z
_TEXT	SEGMENT PARA USE32 PUBLIC 'CODE'
_TEXT	ENDS
;	COMDAT ??0CCpjGeoVert@@QAE@AAV0@@Z
_TEXT	SEGMENT PARA USE32 PUBLIC 'CODE'
_TEXT	ENDS
;	COMDAT ??0CCpjGeoEdge@@QAE@AAV0@@Z
_TEXT	SEGMENT PARA USE32 PUBLIC 'CODE'
_TEXT	ENDS
;	COMDAT ??0CCpjGeoMount@@QAE@ABV0@@Z
_TEXT	SEGMENT PARA USE32 PUBLIC 'CODE'
_TEXT	ENDS
;	COMDAT ??0CCpjLodLevel@@QAE@AAV0@@Z
_TEXT	SEGMENT PARA USE32 PUBLIC 'CODE'
_TEXT	ENDS
;	COMDAT ??0CCpjSklBone@@QAE@ABV0@@Z
_TEXT	SEGMENT PARA USE32 PUBLIC 'CODE'
_TEXT	ENDS
;	COMDAT ??0CCpjSklVert@@QAE@AAV0@@Z
_TEXT	SEGMENT PARA USE32 PUBLIC 'CODE'
_TEXT	ENDS
;	COMDAT ??0CCpjSklMount@@QAE@ABV0@@Z
_TEXT	SEGMENT PARA USE32 PUBLIC 'CODE'
_TEXT	ENDS
;	COMDAT ??0CCpjFrmGroup@@QAE@ABV0@@Z
_TEXT	SEGMENT PARA USE32 PUBLIC 'CODE'
_TEXT	ENDS
;	COMDAT ??0CCpjSeqFrame@@QAE@AAV0@@Z
_TEXT	SEGMENT PARA USE32 PUBLIC 'CODE'
_TEXT	ENDS
;	COMDAT ??0CCpjSeqEvent@@QAE@ABV0@@Z
_TEXT	SEGMENT PARA USE32 PUBLIC 'CODE'
_TEXT	ENDS
;	COMDAT ??0CCpjSeqBoneInfo@@QAE@ABV0@@Z
_TEXT	SEGMENT PARA USE32 PUBLIC 'CODE'
_TEXT	ENDS
;	COMDAT ??0CCpjMacSection@@QAE@AAV0@@Z
_TEXT	SEGMENT PARA USE32 PUBLIC 'CODE'
_TEXT	ENDS
;	COMDAT ??0CCpjMacSection@@QAE@XZ
_TEXT	SEGMENT PARA USE32 PUBLIC 'CODE'
_TEXT	ENDS
;	COMDAT ?AddNoConstruct@?$TCorArray@E@@QAEKK@Z
_TEXT	SEGMENT PARA USE32 PUBLIC 'CODE'
_TEXT	ENDS
;	COMDAT ?Remove@?$TCorArray@E@@QAEXKK@Z
_TEXT	SEGMENT PARA USE32 PUBLIC 'CODE'
_TEXT	ENDS
;	COMDAT ??0?$TCorArray@PAVCCpjGeoEdge@@@@QAE@AAV0@@Z
_TEXT	SEGMENT PARA USE32 PUBLIC 'CODE'
_TEXT	ENDS
;	COMDAT ?Purge@?$TCorArray@PAVCCpjGeoEdge@@@@QAEXXZ
_TEXT	SEGMENT PARA USE32 PUBLIC 'CODE'
_TEXT	ENDS
;	COMDAT ??0?$TCorArray@PAVCCpjGeoTri@@@@QAE@AAV0@@Z
_TEXT	SEGMENT PARA USE32 PUBLIC 'CODE'
_TEXT	ENDS
;	COMDAT ?Purge@?$TCorArray@PAVCCpjGeoTri@@@@QAEXXZ
_TEXT	SEGMENT PARA USE32 PUBLIC 'CODE'
_TEXT	ENDS
;	COMDAT ?Purge@?$TCorArray@VCCpjGeoVert@@@@QAEXXZ
_TEXT	SEGMENT PARA USE32 PUBLIC 'CODE'
_TEXT	ENDS
;	COMDAT ?AddNoConstruct@?$TCorArray@VCCpjGeoVert@@@@QAEKK@Z
_TEXT	SEGMENT PARA USE32 PUBLIC 'CODE'
_TEXT	ENDS
;	COMDAT ??A?$TCorArray@VCCpjGeoEdge@@@@QAEAAVCCpjGeoEdge@@H@Z
_TEXT	SEGMENT PARA USE32 PUBLIC 'CODE'
_TEXT	ENDS
;	COMDAT ?Purge@?$TCorArray@VCCpjGeoEdge@@@@QAEXXZ
_TEXT	SEGMENT PARA USE32 PUBLIC 'CODE'
_TEXT	ENDS
;	COMDAT ?AddNoConstruct@?$TCorArray@VCCpjGeoEdge@@@@QAEKK@Z
_TEXT	SEGMENT PARA USE32 PUBLIC 'CODE'
_TEXT	ENDS
;	COMDAT ?Purge@?$TCorArray@VCCpjGeoTri@@@@QAEXXZ
_TEXT	SEGMENT PARA USE32 PUBLIC 'CODE'
_TEXT	ENDS
;	COMDAT ?AddNoConstruct@?$TCorArray@VCCpjGeoTri@@@@QAEKK@Z
_TEXT	SEGMENT PARA USE32 PUBLIC 'CODE'
_TEXT	ENDS
;	COMDAT ??A?$TCorArray@VCCpjGeoMount@@@@QAEAAVCCpjGeoMount@@H@Z
_TEXT	SEGMENT PARA USE32 PUBLIC 'CODE'
_TEXT	ENDS
;	COMDAT ?Purge@?$TCorArray@VCCpjGeoMount@@@@QAEXXZ
_TEXT	SEGMENT PARA USE32 PUBLIC 'CODE'
_TEXT	ENDS
;	COMDAT ?AddNoConstruct@?$TCorArray@VCCpjGeoMount@@@@QAEKK@Z
_TEXT	SEGMENT PARA USE32 PUBLIC 'CODE'
_TEXT	ENDS
;	COMDAT ?Purge@?$TCorArray@VCCpjSrfTex@@@@QAEXXZ
_TEXT	SEGMENT PARA USE32 PUBLIC 'CODE'
_TEXT	ENDS
;	COMDAT ?AddNoConstruct@?$TCorArray@VCCpjSrfTex@@@@QAEKK@Z
_TEXT	SEGMENT PARA USE32 PUBLIC 'CODE'
_TEXT	ENDS
;	COMDAT ?Purge@?$TCorArray@VCCpjSrfTri@@@@QAEXXZ
_TEXT	SEGMENT PARA USE32 PUBLIC 'CODE'
_TEXT	ENDS
;	COMDAT ?AddNoConstruct@?$TCorArray@VCCpjSrfTri@@@@QAEKK@Z
_TEXT	SEGMENT PARA USE32 PUBLIC 'CODE'
_TEXT	ENDS
;	COMDAT ?Purge@?$TCorArray@VVVec2@@@@QAEXXZ
_TEXT	SEGMENT PARA USE32 PUBLIC 'CODE'
_TEXT	ENDS
;	COMDAT ?AddNoConstruct@?$TCorArray@VVVec2@@@@QAEKK@Z
_TEXT	SEGMENT PARA USE32 PUBLIC 'CODE'
_TEXT	ENDS
;	COMDAT ??0?$TCorArray@G@@QAE@AAV0@@Z
_TEXT	SEGMENT PARA USE32 PUBLIC 'CODE'
_TEXT	ENDS
;	COMDAT ?Purge@?$TCorArray@G@@QAEXXZ
_TEXT	SEGMENT PARA USE32 PUBLIC 'CODE'
_TEXT	ENDS
;	COMDAT ??0?$TCorArray@VCCpjLodTri@@@@QAE@AAV0@@Z
_TEXT	SEGMENT PARA USE32 PUBLIC 'CODE'
_TEXT	ENDS
;	COMDAT ?Purge@?$TCorArray@VCCpjLodTri@@@@QAEXXZ
_TEXT	SEGMENT PARA USE32 PUBLIC 'CODE'
_TEXT	ENDS
;	COMDAT ?Purge@?$TCorArray@VCCpjLodLevel@@@@QAEXXZ
_TEXT	SEGMENT PARA USE32 PUBLIC 'CODE'
_TEXT	ENDS
;	COMDAT ?AddNoConstruct@?$TCorArray@VCCpjLodLevel@@@@QAEKK@Z
_TEXT	SEGMENT PARA USE32 PUBLIC 'CODE'
_TEXT	ENDS
;	COMDAT ??0?$TCorArray@VCCpjSklWeight@@@@QAE@AAV0@@Z
_TEXT	SEGMENT PARA USE32 PUBLIC 'CODE'
_TEXT	ENDS
;	COMDAT ?Purge@?$TCorArray@VCCpjSklWeight@@@@QAEXXZ
_TEXT	SEGMENT PARA USE32 PUBLIC 'CODE'
_TEXT	ENDS
;	COMDAT ?Purge@?$TCorArray@VCCpjSklBone@@@@QAEXXZ
_TEXT	SEGMENT PARA USE32 PUBLIC 'CODE'
_TEXT	ENDS
;	COMDAT ?AddNoConstruct@?$TCorArray@VCCpjSklBone@@@@QAEKK@Z
_TEXT	SEGMENT PARA USE32 PUBLIC 'CODE'
_TEXT	ENDS
;	COMDAT ?Purge@?$TCorArray@VCCpjSklVert@@@@QAEXXZ
_TEXT	SEGMENT PARA USE32 PUBLIC 'CODE'
_TEXT	ENDS
;	COMDAT ?AddNoConstruct@?$TCorArray@VCCpjSklVert@@@@QAEKK@Z
_TEXT	SEGMENT PARA USE32 PUBLIC 'CODE'
_TEXT	ENDS
;	COMDAT ??A?$TCorArray@VCCpjSklMount@@@@QAEAAVCCpjSklMount@@H@Z
_TEXT	SEGMENT PARA USE32 PUBLIC 'CODE'
_TEXT	ENDS
;	COMDAT ?Purge@?$TCorArray@VCCpjSklMount@@@@QAEXXZ
_TEXT	SEGMENT PARA USE32 PUBLIC 'CODE'
_TEXT	ENDS
;	COMDAT ?AddNoConstruct@?$TCorArray@VCCpjSklMount@@@@QAEKK@Z
_TEXT	SEGMENT PARA USE32 PUBLIC 'CODE'
_TEXT	ENDS
;	COMDAT ?Purge@?$TCorArray@VCCpjFrmGroup@@@@QAEXXZ
_TEXT	SEGMENT PARA USE32 PUBLIC 'CODE'
_TEXT	ENDS
;	COMDAT ?AddNoConstruct@?$TCorArray@VCCpjFrmGroup@@@@QAEKK@Z
_TEXT	SEGMENT PARA USE32 PUBLIC 'CODE'
_TEXT	ENDS
;	COMDAT ?Purge@?$TCorArray@VCCpjFrmBytePos@@@@QAEXXZ
_TEXT	SEGMENT PARA USE32 PUBLIC 'CODE'
_TEXT	ENDS
;	COMDAT ?AddNoConstruct@?$TCorArray@VCCpjFrmBytePos@@@@QAEKK@Z
_TEXT	SEGMENT PARA USE32 PUBLIC 'CODE'
_TEXT	ENDS
;	COMDAT ?Purge@?$TCorArray@VVVec3@@@@QAEXXZ
_TEXT	SEGMENT PARA USE32 PUBLIC 'CODE'
_TEXT	ENDS
;	COMDAT ?AddNoConstruct@?$TCorArray@VVVec3@@@@QAEKK@Z
_TEXT	SEGMENT PARA USE32 PUBLIC 'CODE'
_TEXT	ENDS
;	COMDAT ?Purge@?$TCorArray@VCCpjFrmFrame@@@@QAEXXZ
_TEXT	SEGMENT PARA USE32 PUBLIC 'CODE'
_TEXT	ENDS
;	COMDAT ?AddNoConstruct@?$TCorArray@VCCpjFrmFrame@@@@QAEKK@Z
_TEXT	SEGMENT PARA USE32 PUBLIC 'CODE'
_TEXT	ENDS
;	COMDAT ??0?$TCorArray@VCCpjSeqTranslate@@@@QAE@AAV0@@Z
_TEXT	SEGMENT PARA USE32 PUBLIC 'CODE'
_TEXT	ENDS
;	COMDAT ?Purge@?$TCorArray@VCCpjSeqTranslate@@@@QAEXXZ
_TEXT	SEGMENT PARA USE32 PUBLIC 'CODE'
_TEXT	ENDS
;	COMDAT ??0?$TCorArray@VCCpjSeqRotate@@@@QAE@AAV0@@Z
_TEXT	SEGMENT PARA USE32 PUBLIC 'CODE'
_TEXT	ENDS
;	COMDAT ?Purge@?$TCorArray@VCCpjSeqRotate@@@@QAEXXZ
_TEXT	SEGMENT PARA USE32 PUBLIC 'CODE'
_TEXT	ENDS
;	COMDAT ??0?$TCorArray@VCCpjSeqScale@@@@QAE@AAV0@@Z
_TEXT	SEGMENT PARA USE32 PUBLIC 'CODE'
_TEXT	ENDS
;	COMDAT ?Purge@?$TCorArray@VCCpjSeqScale@@@@QAEXXZ
_TEXT	SEGMENT PARA USE32 PUBLIC 'CODE'
_TEXT	ENDS
;	COMDAT ?Purge@?$TCorArray@VCCpjSeqFrame@@@@QAEXXZ
_TEXT	SEGMENT PARA USE32 PUBLIC 'CODE'
_TEXT	ENDS
;	COMDAT ?AddNoConstruct@?$TCorArray@VCCpjSeqFrame@@@@QAEKK@Z
_TEXT	SEGMENT PARA USE32 PUBLIC 'CODE'
_TEXT	ENDS
;	COMDAT ??A?$TCorArray@VCCpjSeqEvent@@@@QAEAAVCCpjSeqEvent@@H@Z
_TEXT	SEGMENT PARA USE32 PUBLIC 'CODE'
_TEXT	ENDS
;	COMDAT ?Purge@?$TCorArray@VCCpjSeqEvent@@@@QAEXXZ
_TEXT	SEGMENT PARA USE32 PUBLIC 'CODE'
_TEXT	ENDS
;	COMDAT ?AddNoConstruct@?$TCorArray@VCCpjSeqEvent@@@@QAEKK@Z
_TEXT	SEGMENT PARA USE32 PUBLIC 'CODE'
_TEXT	ENDS
;	COMDAT ?Purge@?$TCorArray@VCCpjSeqBoneInfo@@@@QAEXXZ
_TEXT	SEGMENT PARA USE32 PUBLIC 'CODE'
_TEXT	ENDS
;	COMDAT ?AddNoConstruct@?$TCorArray@VCCpjSeqBoneInfo@@@@QAEKK@Z
_TEXT	SEGMENT PARA USE32 PUBLIC 'CODE'
_TEXT	ENDS
;	COMDAT ?AddNoConstruct@?$TCorArray@VCCorString@@@@QAEKK@Z
_TEXT	SEGMENT PARA USE32 PUBLIC 'CODE'
_TEXT	ENDS
;	COMDAT ?Add@?$TCorArray@VCCorString@@@@QAEKK@Z
_TEXT	SEGMENT PARA USE32 PUBLIC 'CODE'
_TEXT	ENDS
;	COMDAT ?Remove@?$TCorArray@VCCorString@@@@QAEXKK@Z
_TEXT	SEGMENT PARA USE32 PUBLIC 'CODE'
_TEXT	ENDS
;	COMDAT ?Purge@?$TCorArray@VCCpjMacSection@@@@QAEXXZ
_TEXT	SEGMENT PARA USE32 PUBLIC 'CODE'
_TEXT	ENDS
;	COMDAT ?AddNoConstruct@?$TCorArray@VCCpjMacSection@@@@QAEKK@Z
_TEXT	SEGMENT PARA USE32 PUBLIC 'CODE'
_TEXT	ENDS
;	COMDAT ?AddNoConstruct@?$TCorArray@PAVOCpjSurface@@@@QAEKK@Z
_TEXT	SEGMENT PARA USE32 PUBLIC 'CODE'
_TEXT	ENDS
;	COMDAT ?Remove@?$TCorArray@PAVOCpjSurface@@@@QAEXKK@Z
_TEXT	SEGMENT PARA USE32 PUBLIC 'CODE'
_TEXT	ENDS
;	COMDAT ?AddNoConstruct@?$TCorArray@PAVOCpjFrames@@@@QAEKK@Z
_TEXT	SEGMENT PARA USE32 PUBLIC 'CODE'
_TEXT	ENDS
;	COMDAT ?Add@?$TCorArray@PAVOCpjFrames@@@@QAEKK@Z
_TEXT	SEGMENT PARA USE32 PUBLIC 'CODE'
_TEXT	ENDS
;	COMDAT ?Remove@?$TCorArray@PAVOCpjFrames@@@@QAEXKK@Z
_TEXT	SEGMENT PARA USE32 PUBLIC 'CODE'
_TEXT	ENDS
;	COMDAT ?AddNoConstruct@?$TCorArray@PAVOCpjSequence@@@@QAEKK@Z
_TEXT	SEGMENT PARA USE32 PUBLIC 'CODE'
_TEXT	ENDS
;	COMDAT ?Add@?$TCorArray@PAVOCpjSequence@@@@QAEKK@Z
_TEXT	SEGMENT PARA USE32 PUBLIC 'CODE'
_TEXT	ENDS
;	COMDAT ?Remove@?$TCorArray@PAVOCpjSequence@@@@QAEXKK@Z
_TEXT	SEGMENT PARA USE32 PUBLIC 'CODE'
_TEXT	ENDS
;	COMDAT ?AddNoConstruct@?$TCorArray@VCMacBone@@@@QAEKK@Z
_TEXT	SEGMENT PARA USE32 PUBLIC 'CODE'
_TEXT	ENDS
;	COMDAT ?Remove@?$TCorArray@VCMacBone@@@@QAEXKK@Z
_TEXT	SEGMENT PARA USE32 PUBLIC 'CODE'
_TEXT	ENDS
;	COMDAT ?AddNoConstruct@?$TCorArray@PAVOMacChannel@@@@QAEKK@Z
_TEXT	SEGMENT PARA USE32 PUBLIC 'CODE'
_TEXT	ENDS
;	COMDAT ?Remove@?$TCorArray@PAVOMacChannel@@@@QAEXKK@Z
_TEXT	SEGMENT PARA USE32 PUBLIC 'CODE'
_TEXT	ENDS
;	COMDAT ?Purge@?$TCorArray@VCMacTraceInfo@@@@QAEXXZ
_TEXT	SEGMENT PARA USE32 PUBLIC 'CODE'
_TEXT	ENDS
;	COMDAT ?AddNoConstruct@?$TCorArray@VCMacTraceInfo@@@@QAEKK@Z
_TEXT	SEGMENT PARA USE32 PUBLIC 'CODE'
_TEXT	ENDS
;	COMDAT ?Purge@?$TCorArray@VVBox3@@@@QAEXXZ
_TEXT	SEGMENT PARA USE32 PUBLIC 'CODE'
_TEXT	ENDS
;	COMDAT ?AddNoConstruct@?$TCorArray@VVBox3@@@@QAEKK@Z
_TEXT	SEGMENT PARA USE32 PUBLIC 'CODE'
_TEXT	ENDS
;	COMDAT ?AdvanceToType@?$TObjIter@VOCpjFrames@@@@IAEXXZ
_TEXT	SEGMENT PARA USE32 PUBLIC 'CODE'
_TEXT	ENDS
;	COMDAT ?Reset@?$TObjIter@VOCpjFrames@@@@QAEXPAVOObject@@_N@Z
_TEXT	SEGMENT PARA USE32 PUBLIC 'CODE'
_TEXT	ENDS
;	COMDAT ?AdvanceToType@?$TObjIter@VOCpjSequence@@@@IAEXXZ
_TEXT	SEGMENT PARA USE32 PUBLIC 'CODE'
_TEXT	ENDS
;	COMDAT ?Reset@?$TObjIter@VOCpjSequence@@@@QAEXPAVOObject@@_N@Z
_TEXT	SEGMENT PARA USE32 PUBLIC 'CODE'
_TEXT	ENDS
;	COMDAT ?Purge@?$TCorArray@PAVOCpjProject@@@@QAEXXZ
_TEXT	SEGMENT PARA USE32 PUBLIC 'CODE'
_TEXT	ENDS
;	COMDAT ?AddItem@?$TCorArray@PAVOCpjProject@@@@QAEKABQAVOCpjProject@@@Z
_TEXT	SEGMENT PARA USE32 PUBLIC 'CODE'
_TEXT	ENDS
;	COMDAT ?FindItem@?$TCorArray@PAVOCpjProject@@@@QBE_NABQAVOCpjProject@@PAK@Z
_TEXT	SEGMENT PARA USE32 PUBLIC 'CODE'
_TEXT	ENDS
;	COMDAT ??0CCpjSklWeight@@QAE@ABV0@@Z
_TEXT	SEGMENT PARA USE32 PUBLIC 'CODE'
_TEXT	ENDS
;	COMDAT ??0CCpjSeqTranslate@@QAE@ABV0@@Z
_TEXT	SEGMENT PARA USE32 PUBLIC 'CODE'
_TEXT	ENDS
;	COMDAT ??0CCpjSeqRotate@@QAE@ABV0@@Z
_TEXT	SEGMENT PARA USE32 PUBLIC 'CODE'
_TEXT	ENDS
;	COMDAT ??0CCpjSeqScale@@QAE@ABV0@@Z
_TEXT	SEGMENT PARA USE32 PUBLIC 'CODE'
_TEXT	ENDS
;	COMDAT ??_GCCorString@@QAEPAXI@Z
_TEXT	SEGMENT PARA USE32 PUBLIC 'CODE'
_TEXT	ENDS
;	COMDAT ??A?$TCorArray@PAVCCpjGeoEdge@@@@QAEAAPAVCCpjGeoEdge@@H@Z
_TEXT	SEGMENT PARA USE32 PUBLIC 'CODE'
_TEXT	ENDS
;	COMDAT ?AddNoConstruct@?$TCorArray@PAVCCpjGeoEdge@@@@QAEKK@Z
_TEXT	SEGMENT PARA USE32 PUBLIC 'CODE'
_TEXT	ENDS
;	COMDAT ?Remove@?$TCorArray@PAVCCpjGeoEdge@@@@QAEXKK@Z
_TEXT	SEGMENT PARA USE32 PUBLIC 'CODE'
_TEXT	ENDS
;	COMDAT ??A?$TCorArray@PAVCCpjGeoTri@@@@QAEAAPAVCCpjGeoTri@@H@Z
_TEXT	SEGMENT PARA USE32 PUBLIC 'CODE'
_TEXT	ENDS
;	COMDAT ?AddNoConstruct@?$TCorArray@PAVCCpjGeoTri@@@@QAEKK@Z
_TEXT	SEGMENT PARA USE32 PUBLIC 'CODE'
_TEXT	ENDS
;	COMDAT ?Remove@?$TCorArray@PAVCCpjGeoTri@@@@QAEXKK@Z
_TEXT	SEGMENT PARA USE32 PUBLIC 'CODE'
_TEXT	ENDS
;	COMDAT ?Remove@?$TCorArray@VCCpjGeoVert@@@@QAEXKK@Z
_TEXT	SEGMENT PARA USE32 PUBLIC 'CODE'
_TEXT	ENDS
;	COMDAT ?Remove@?$TCorArray@VCCpjGeoEdge@@@@QAEXKK@Z
_TEXT	SEGMENT PARA USE32 PUBLIC 'CODE'
_TEXT	ENDS
;	COMDAT ?Remove@?$TCorArray@VCCpjGeoTri@@@@QAEXKK@Z
_TEXT	SEGMENT PARA USE32 PUBLIC 'CODE'
_TEXT	ENDS
;	COMDAT ?Remove@?$TCorArray@VCCpjGeoMount@@@@QAEXKK@Z
_TEXT	SEGMENT PARA USE32 PUBLIC 'CODE'
_TEXT	ENDS
;	COMDAT ?Remove@?$TCorArray@VCCpjSrfTex@@@@QAEXKK@Z
_TEXT	SEGMENT PARA USE32 PUBLIC 'CODE'
_TEXT	ENDS
;	COMDAT ?Remove@?$TCorArray@VCCpjSrfTri@@@@QAEXKK@Z
_TEXT	SEGMENT PARA USE32 PUBLIC 'CODE'
_TEXT	ENDS
;	COMDAT ?Remove@?$TCorArray@VVVec2@@@@QAEXKK@Z
_TEXT	SEGMENT PARA USE32 PUBLIC 'CODE'
_TEXT	ENDS
;	COMDAT ?AddNoConstruct@?$TCorArray@G@@QAEKK@Z
_TEXT	SEGMENT PARA USE32 PUBLIC 'CODE'
_TEXT	ENDS
;	COMDAT ?Remove@?$TCorArray@G@@QAEXKK@Z
_TEXT	SEGMENT PARA USE32 PUBLIC 'CODE'
_TEXT	ENDS
;	COMDAT ?AddNoConstruct@?$TCorArray@VCCpjLodTri@@@@QAEKK@Z
_TEXT	SEGMENT PARA USE32 PUBLIC 'CODE'
_TEXT	ENDS
;	COMDAT ?Remove@?$TCorArray@VCCpjLodTri@@@@QAEXKK@Z
_TEXT	SEGMENT PARA USE32 PUBLIC 'CODE'
_TEXT	ENDS
;	COMDAT ?Remove@?$TCorArray@VCCpjLodLevel@@@@QAEXKK@Z
_TEXT	SEGMENT PARA USE32 PUBLIC 'CODE'
_TEXT	ENDS
;	COMDAT ?AddNoConstruct@?$TCorArray@VCCpjSklWeight@@@@QAEKK@Z
_TEXT	SEGMENT PARA USE32 PUBLIC 'CODE'
_TEXT	ENDS
;	COMDAT ?Remove@?$TCorArray@VCCpjSklWeight@@@@QAEXKK@Z
_TEXT	SEGMENT PARA USE32 PUBLIC 'CODE'
_TEXT	ENDS
;	COMDAT ?Remove@?$TCorArray@VCCpjSklBone@@@@QAEXKK@Z
_TEXT	SEGMENT PARA USE32 PUBLIC 'CODE'
_TEXT	ENDS
;	COMDAT ?Remove@?$TCorArray@VCCpjSklVert@@@@QAEXKK@Z
_TEXT	SEGMENT PARA USE32 PUBLIC 'CODE'
_TEXT	ENDS
;	COMDAT ?Remove@?$TCorArray@VCCpjSklMount@@@@QAEXKK@Z
_TEXT	SEGMENT PARA USE32 PUBLIC 'CODE'
_TEXT	ENDS
;	COMDAT ?Remove@?$TCorArray@VCCpjFrmGroup@@@@QAEXKK@Z
_TEXT	SEGMENT PARA USE32 PUBLIC 'CODE'
_TEXT	ENDS
;	COMDAT ?Remove@?$TCorArray@VCCpjFrmBytePos@@@@QAEXKK@Z
_TEXT	SEGMENT PARA USE32 PUBLIC 'CODE'
_TEXT	ENDS
;	COMDAT ?Remove@?$TCorArray@VVVec3@@@@QAEXKK@Z
_TEXT	SEGMENT PARA USE32 PUBLIC 'CODE'
_TEXT	ENDS
;	COMDAT ?Remove@?$TCorArray@VCCpjFrmFrame@@@@QAEXKK@Z
_TEXT	SEGMENT PARA USE32 PUBLIC 'CODE'
_TEXT	ENDS
;	COMDAT ?AddNoConstruct@?$TCorArray@VCCpjSeqTranslate@@@@QAEKK@Z
_TEXT	SEGMENT PARA USE32 PUBLIC 'CODE'
_TEXT	ENDS
;	COMDAT ?Remove@?$TCorArray@VCCpjSeqTranslate@@@@QAEXKK@Z
_TEXT	SEGMENT PARA USE32 PUBLIC 'CODE'
_TEXT	ENDS
;	COMDAT ?AddNoConstruct@?$TCorArray@VCCpjSeqRotate@@@@QAEKK@Z
_TEXT	SEGMENT PARA USE32 PUBLIC 'CODE'
_TEXT	ENDS
;	COMDAT ?Remove@?$TCorArray@VCCpjSeqRotate@@@@QAEXKK@Z
_TEXT	SEGMENT PARA USE32 PUBLIC 'CODE'
_TEXT	ENDS
;	COMDAT ?AddNoConstruct@?$TCorArray@VCCpjSeqScale@@@@QAEKK@Z
_TEXT	SEGMENT PARA USE32 PUBLIC 'CODE'
_TEXT	ENDS
;	COMDAT ?Remove@?$TCorArray@VCCpjSeqScale@@@@QAEXKK@Z
_TEXT	SEGMENT PARA USE32 PUBLIC 'CODE'
_TEXT	ENDS
;	COMDAT ?Remove@?$TCorArray@VCCpjSeqFrame@@@@QAEXKK@Z
_TEXT	SEGMENT PARA USE32 PUBLIC 'CODE'
_TEXT	ENDS
;	COMDAT ?Remove@?$TCorArray@VCCpjSeqEvent@@@@QAEXKK@Z
_TEXT	SEGMENT PARA USE32 PUBLIC 'CODE'
_TEXT	ENDS
;	COMDAT ?Remove@?$TCorArray@VCCpjSeqBoneInfo@@@@QAEXKK@Z
_TEXT	SEGMENT PARA USE32 PUBLIC 'CODE'
_TEXT	ENDS
;	COMDAT ?Remove@?$TCorArray@VCCpjMacSection@@@@QAEXKK@Z
_TEXT	SEGMENT PARA USE32 PUBLIC 'CODE'
_TEXT	ENDS
;	COMDAT ?Remove@?$TCorArray@VCMacTraceInfo@@@@QAEXKK@Z
_TEXT	SEGMENT PARA USE32 PUBLIC 'CODE'
_TEXT	ENDS
;	COMDAT ?Remove@?$TCorArray@VVBox3@@@@QAEXKK@Z
_TEXT	SEGMENT PARA USE32 PUBLIC 'CODE'
_TEXT	ENDS
;	COMDAT ?Add@?$TCorArray@PAVOCpjProject@@@@QAEKK@Z
_TEXT	SEGMENT PARA USE32 PUBLIC 'CODE'
_TEXT	ENDS
;	COMDAT ?Remove@?$TCorArray@PAVOCpjProject@@@@QAEXKK@Z
_TEXT	SEGMENT PARA USE32 PUBLIC 'CODE'
_TEXT	ENDS
;	COMDAT ??_GCCpjGeoVert@@QAEPAXI@Z
_TEXT	SEGMENT PARA USE32 PUBLIC 'CODE'
_TEXT	ENDS
;	COMDAT ??_GCCpjGeoEdge@@QAEPAXI@Z
_TEXT	SEGMENT PARA USE32 PUBLIC 'CODE'
_TEXT	ENDS
;	COMDAT ??_GCCpjLodLevel@@QAEPAXI@Z
_TEXT	SEGMENT PARA USE32 PUBLIC 'CODE'
_TEXT	ENDS
;	COMDAT ??_GCCpjSklBone@@QAEPAXI@Z
_TEXT	SEGMENT PARA USE32 PUBLIC 'CODE'
_TEXT	ENDS
;	COMDAT ??_GCCpjSklVert@@QAEPAXI@Z
_TEXT	SEGMENT PARA USE32 PUBLIC 'CODE'
_TEXT	ENDS
;	COMDAT ??_GCCpjSklMount@@QAEPAXI@Z
_TEXT	SEGMENT PARA USE32 PUBLIC 'CODE'
_TEXT	ENDS
;	COMDAT ??_GCCpjFrmFrame@@QAEPAXI@Z
_TEXT	SEGMENT PARA USE32 PUBLIC 'CODE'
_TEXT	ENDS
;	COMDAT ??_GCCpjSeqFrame@@QAEPAXI@Z
_TEXT	SEGMENT PARA USE32 PUBLIC 'CODE'
_TEXT	ENDS
;	COMDAT ??_GCCpjSeqEvent@@QAEPAXI@Z
_TEXT	SEGMENT PARA USE32 PUBLIC 'CODE'
_TEXT	ENDS
;	COMDAT ??_GCCpjSeqBoneInfo@@QAEPAXI@Z
_TEXT	SEGMENT PARA USE32 PUBLIC 'CODE'
_TEXT	ENDS
;	COMDAT ??_GCCpjMacSection@@QAEPAXI@Z
_TEXT	SEGMENT PARA USE32 PUBLIC 'CODE'
_TEXT	ENDS
;	COMDAT ??_GCMacTraceInfo@@QAEPAXI@Z
_TEXT	SEGMENT PARA USE32 PUBLIC 'CODE'
_TEXT	ENDS
;	COMDAT ??1CCpjGeoVert@@QAE@XZ
_TEXT	SEGMENT PARA USE32 PUBLIC 'CODE'
_TEXT	ENDS
;	COMDAT ??1CCpjGeoEdge@@QAE@XZ
_TEXT	SEGMENT PARA USE32 PUBLIC 'CODE'
_TEXT	ENDS
;	COMDAT ??1CCpjLodLevel@@QAE@XZ
_TEXT	SEGMENT PARA USE32 PUBLIC 'CODE'
_TEXT	ENDS
;	COMDAT ??1CCpjSklBone@@QAE@XZ
_TEXT	SEGMENT PARA USE32 PUBLIC 'CODE'
_TEXT	ENDS
;	COMDAT ??1CCpjSklVert@@QAE@XZ
_TEXT	SEGMENT PARA USE32 PUBLIC 'CODE'
_TEXT	ENDS
;	COMDAT ??1CCpjSklMount@@QAE@XZ
_TEXT	SEGMENT PARA USE32 PUBLIC 'CODE'
_TEXT	ENDS
;	COMDAT ??1CCpjSeqFrame@@QAE@XZ
_TEXT	SEGMENT PARA USE32 PUBLIC 'CODE'
_TEXT	ENDS
;	COMDAT ??1CCpjSeqEvent@@QAE@XZ
_TEXT	SEGMENT PARA USE32 PUBLIC 'CODE'
_TEXT	ENDS
;	COMDAT ??1CCpjSeqBoneInfo@@QAE@XZ
_TEXT	SEGMENT PARA USE32 PUBLIC 'CODE'
_TEXT	ENDS
;	COMDAT ??1CCpjMacSection@@QAE@XZ
_TEXT	SEGMENT PARA USE32 PUBLIC 'CODE'
_TEXT	ENDS
;	COMDAT ?AddNoConstruct@?$TCorArray@PAVOCpjProject@@@@QAEKK@Z
_TEXT	SEGMENT PARA USE32 PUBLIC 'CODE'
_TEXT	ENDS
;	COMDAT ??1?$XChain@VXStatistic@@@@QAE@XZ
_TEXT	SEGMENT PARA USE32 PUBLIC 'CODE'
_TEXT	ENDS
;	COMDAT ?free_list@?$XChain@VXStatistic@@@@QAEXXZ
_TEXT	SEGMENT PARA USE32 PUBLIC 'CODE'
_TEXT	ENDS
;	COMDAT ??0?$XList@VXStatistic@@@@QAE@XZ
_TEXT	SEGMENT PARA USE32 PUBLIC 'CODE'
_TEXT	ENDS
;	COMDAT ??1?$XList@VXStatistic@@@@QAE@XZ
_TEXT	SEGMENT PARA USE32 PUBLIC 'CODE'
_TEXT	ENDS
;	COMDAT ?free_list@?$XList@VXStatistic@@@@QAEXXZ
_TEXT	SEGMENT PARA USE32 PUBLIC 'CODE'
_TEXT	ENDS
;	COMDAT ?add_head@?$XList@VXStatistic@@@@QAEPAU_XPos@@PAVXStatistic@@@Z
_TEXT	SEGMENT PARA USE32 PUBLIC 'CODE'
_TEXT	ENDS
;	COMDAT ?remove_head@?$XList@VXStatistic@@@@QAEPAVXStatistic@@XZ
_TEXT	SEGMENT PARA USE32 PUBLIC 'CODE'
_TEXT	ENDS
;	COMDAT ??0?$XRcBase@VCStrObj@@@@QAE@XZ
_TEXT	SEGMENT PARA USE32 PUBLIC 'CODE'
_TEXT	ENDS
;	COMDAT ??1?$XRcBase@VCStrObj@@@@QAE@XZ
_TEXT	SEGMENT PARA USE32 PUBLIC 'CODE'
_TEXT	ENDS
;	COMDAT ??0?$XRcPtr@VCPathObj@@@@QAE@XZ
_TEXT	SEGMENT PARA USE32 PUBLIC 'CODE'
_TEXT	ENDS
;	COMDAT ??1?$XRcPtr@VCPathObj@@@@QAE@XZ
_TEXT	SEGMENT PARA USE32 PUBLIC 'CODE'
_TEXT	ENDS
;	COMDAT ??0?$XList@VXFindLevel@@@@QAE@XZ
_TEXT	SEGMENT PARA USE32 PUBLIC 'CODE'
_TEXT	ENDS
;	COMDAT ??1?$XList@VXFindLevel@@@@QAE@XZ
_TEXT	SEGMENT PARA USE32 PUBLIC 'CODE'
_TEXT	ENDS
;	COMDAT ??_GCSysObj@@QAEPAXI@Z
_TEXT	SEGMENT PARA USE32 PUBLIC 'CODE'
_TEXT	ENDS
;	COMDAT ??_GXFindLevel@@QAEPAXI@Z
_TEXT	SEGMENT PARA USE32 PUBLIC 'CODE'
_TEXT	ENDS
;	COMDAT __imp_??1XFindLevel@@QAE@XZ
_TEXT	SEGMENT PARA USE32 PUBLIC 'CODE'
_TEXT	ENDS
;	COMDAT ?new_node@?$XList@VXStatistic@@@@IAEPAUXNode@1@XZ
_TEXT	SEGMENT PARA USE32 PUBLIC 'CODE'
_TEXT	ENDS
;	COMDAT ?free_nodes@?$XList@VXStatistic@@@@IAEXXZ
_TEXT	SEGMENT PARA USE32 PUBLIC 'CODE'
_TEXT	ENDS
;	COMDAT ?free_nodes@?$XList@VXFindLevel@@@@IAEXXZ
_TEXT	SEGMENT PARA USE32 PUBLIC 'CODE'
_TEXT	ENDS
;	COMDAT ?DelRef@?$XRcBase@VCStrObj@@@@QAEXXZ
_TEXT	SEGMENT PARA USE32 PUBLIC 'CODE'
_TEXT	ENDS
;	COMDAT ?DelRef@?$XRcPtr@VCPathObj@@@@QAEXXZ
_TEXT	SEGMENT PARA USE32 PUBLIC 'CODE'
_TEXT	ENDS
;	COMDAT ??_GCStrObj@@QAEPAXI@Z
_TEXT	SEGMENT PARA USE32 PUBLIC 'CODE'
_TEXT	ENDS
;	COMDAT ??_GCPathObj@@QAEPAXI@Z
_TEXT	SEGMENT PARA USE32 PUBLIC 'CODE'
_TEXT	ENDS
;	COMDAT ??_7IMsgRouter@@6B@
CONST	SEGMENT DWORD USE32 PUBLIC 'CONST'
CONST	ENDS
;	COMDAT ??_7OCpjFrames@@6B@
CONST	SEGMENT DWORD USE32 PUBLIC 'CONST'
CONST	ENDS
;	COMDAT ??_7OCpjConfig@@6B@
CONST	SEGMENT DWORD USE32 PUBLIC 'CONST'
CONST	ENDS
;	COMDAT ??_7OCpjRes@@6B@
CONST	SEGMENT DWORD USE32 PUBLIC 'CONST'
CONST	ENDS
;	COMDAT ?rot1@?1???0VQuat3@@QAE@ABVVAxes3@@@Z@4PAHA
_DATA	SEGMENT DWORD USE32 PUBLIC 'DATA'
_DATA	ENDS
;	COMDAT ??_7OMacActor@@6B@
CONST	SEGMENT DWORD USE32 PUBLIC 'CONST'
CONST	ENDS
;	COMDAT ??_7OCpjSkeleton@@6B@
CONST	SEGMENT DWORD USE32 PUBLIC 'CONST'
CONST	ENDS
;	COMDAT ??_7OCpjImporter@@6B@
CONST	SEGMENT DWORD USE32 PUBLIC 'CONST'
CONST	ENDS
;	COMDAT ??_7OMacChannel@@6B@
CONST	SEGMENT DWORD USE32 PUBLIC 'CONST'
CONST	ENDS
;	COMDAT ??_7OCpjUnkChunk@@6B@
CONST	SEGMENT DWORD USE32 PUBLIC 'CONST'
CONST	ENDS
;	COMDAT ??_7OCpjLodData@@6B@
CONST	SEGMENT DWORD USE32 PUBLIC 'CONST'
CONST	ENDS
;	COMDAT ??_7CMemMap@@6B@
CONST	SEGMENT DWORD USE32 PUBLIC 'CONST'
CONST	ENDS
;	COMDAT ??_7OCpjSequence@@6B@
CONST	SEGMENT DWORD USE32 PUBLIC 'CONST'
CONST	ENDS
;	COMDAT ??_7OCpjExporter@@6B@
CONST	SEGMENT DWORD USE32 PUBLIC 'CONST'
CONST	ENDS
;	COMDAT ??_7OObject@@6B@
CONST	SEGMENT DWORD USE32 PUBLIC 'CONST'
CONST	ENDS
;	COMDAT ??_7OCpjGeometry@@6B@
CONST	SEGMENT DWORD USE32 PUBLIC 'CONST'
CONST	ENDS
;	COMDAT ??_7IMsgTarget@@6B@
CONST	SEGMENT DWORD USE32 PUBLIC 'CONST'
CONST	ENDS
;	COMDAT ??_7OCpjSurface@@6B@
CONST	SEGMENT DWORD USE32 PUBLIC 'CONST'
CONST	ENDS
;	COMDAT ?rot1@?1??Intersection@VPlane3@@QAE?AVVLine3@@AAV2@@Z@4PAHA
_DATA	SEGMENT DWORD USE32 PUBLIC 'DATA'
_DATA	ENDS
;	COMDAT ??_7OCpjChunk@@6B@
CONST	SEGMENT DWORD USE32 PUBLIC 'CONST'
CONST	ENDS
;	COMDAT ??_7OCpjProject@@6B@
CONST	SEGMENT DWORD USE32 PUBLIC 'CONST'
CONST	ENDS
;	COMDAT ??_7OMacSequenceChannel@@6B@
CONST	SEGMENT DWORD USE32 PUBLIC 'CONST'
CONST	ENDS
;	COMDAT ?rot2@?1??Intersection@VPlane3@@QAE?AVVLine3@@AAV2@@Z@4PAHA
_DATA	SEGMENT DWORD USE32 PUBLIC 'DATA'
_DATA	ENDS
;	COMDAT ??_7OMacIKChannel@@6B@
CONST	SEGMENT DWORD USE32 PUBLIC 'CONST'
CONST	ENDS
;	COMDAT ??_7XMutex@@6B@
CONST	SEGMENT DWORD USE32 PUBLIC 'CONST'
CONST	ENDS
FLAT	GROUP _DATA, CONST, _BSS, CRT$XCA, CRT$XCU, CRT$XCL, CRT$XCC, CRT$XCZ
	ASSUME	CS: FLAT, DS: FLAT, SS: FLAT
endif

INCLUDELIB MSVCRT
INCLUDELIB OLDNAMES

PUBLIC	?OMacActor_objClassInstance@@3VCObjClass@@A	; OMacActor_objClassInstance
PUBLIC	?staticObjClass@OMacIKChannel@@0PAVCObjClass@@A	; OMacIKChannel::staticObjClass
PUBLIC	?OMacIKChannel_objClassInstance@@3VCObjClass@@A	; OMacIKChannel_objClassInstance
PUBLIC	?sTraceInfoList@CMacTraceInfo@@2V?$TCorArray@VCMacTraceInfo@@@@A ; CMacTraceInfo::sTraceInfoList
PUBLIC	?sHeadLink@CMacActorLink@@0V1@A			; CMacActorLink::sHeadLink
PUBLIC	?staticObjClass@OMacActor@@0PAVCObjClass@@A	; OMacActor::staticObjClass
PUBLIC	?FrameCount@OMacActor@@2KA			; OMacActor::FrameCount
PUBLIC	?Evaluations@OMacActor@@2KA			; OMacActor::Evaluations
PUBLIC	?SetAuthor_msg_OMacActor_dummy@@3_NA		; SetAuthor_msg_OMacActor_dummy
PUBLIC	?SetDescription_msg_OMacActor_dummy@@3_NA	; SetDescription_msg_OMacActor_dummy
PUBLIC	?SetOrigin_msg_OMacActor_dummy@@3_NA		; SetOrigin_msg_OMacActor_dummy
PUBLIC	?SetScale_msg_OMacActor_dummy@@3_NA		; SetScale_msg_OMacActor_dummy
PUBLIC	?SetRotation_msg_OMacActor_dummy@@3_NA		; SetRotation_msg_OMacActor_dummy
PUBLIC	?OMacChannel_objClassInstance@@3VCObjClass@@A	; OMacChannel_objClassInstance
PUBLIC	?SetBoundsMin_msg_OMacActor_dummy@@3_NA		; SetBoundsMin_msg_OMacActor_dummy
PUBLIC	?OMacSequenceChannel_objClassInstance@@3VCObjClass@@A ; OMacSequenceChannel_objClassInstance
PUBLIC	?SetBoundsMax_msg_OMacActor_dummy@@3_NA		; SetBoundsMax_msg_OMacActor_dummy
PUBLIC	?SetGeometry_msg_OMacActor_dummy@@3_NA		; SetGeometry_msg_OMacActor_dummy
PUBLIC	?staticObjClass@OMacChannel@@0PAVCObjClass@@A	; OMacChannel::staticObjClass
PUBLIC	?SetSurface_msg_OMacActor_dummy@@3_NA		; SetSurface_msg_OMacActor_dummy
PUBLIC	?SetLodData_msg_OMacActor_dummy@@3_NA		; SetLodData_msg_OMacActor_dummy
PUBLIC	?SetSkeleton_msg_OMacActor_dummy@@3_NA		; SetSkeleton_msg_OMacActor_dummy
PUBLIC	?AddFrames_msg_OMacActor_dummy@@3_NA		; AddFrames_msg_OMacActor_dummy
PUBLIC	?staticObjClass@OMacSequenceChannel@@0PAVCObjClass@@A ; OMacSequenceChannel::staticObjClass
PUBLIC	?AddSequences_msg_OMacActor_dummy@@3_NA		; AddSequences_msg_OMacActor_dummy
_BSS	SEGMENT
?OMacActor_objClassInstance@@3VCObjClass@@A DB 024H DUP (?) ; OMacActor_objClassInstance
?staticObjClass@OMacIKChannel@@0PAVCObjClass@@A DD 01H DUP (?) ; OMacIKChannel::staticObjClass
?OMacIKChannel_objClassInstance@@3VCObjClass@@A DB 024H DUP (?) ; OMacIKChannel_objClassInstance
?sTraceInfoList@CMacTraceInfo@@2V?$TCorArray@VCMacTraceInfo@@@@A DB 010H DUP (?) ; CMacTraceInfo::sTraceInfoList
?sHeadLink@CMacActorLink@@0V1@A DB 0cH DUP (?)		; CMacActorLink::sHeadLink
?staticObjClass@OMacActor@@0PAVCObjClass@@A DD 01H DUP (?) ; OMacActor::staticObjClass
?FrameCount@OMacActor@@2KA DD 01H DUP (?)		; OMacActor::FrameCount
?Evaluations@OMacActor@@2KA DD 01H DUP (?)		; OMacActor::Evaluations
?SetAuthor_msg_OMacActor_dummy@@3_NA DB 01H DUP (?)	; SetAuthor_msg_OMacActor_dummy
	ALIGN	4

?SetDescription_msg_OMacActor_dummy@@3_NA DB 01H DUP (?) ; SetDescription_msg_OMacActor_dummy
	ALIGN	4

?SetOrigin_msg_OMacActor_dummy@@3_NA DB 01H DUP (?)	; SetOrigin_msg_OMacActor_dummy
	ALIGN	4

?SetScale_msg_OMacActor_dummy@@3_NA DB 01H DUP (?)	; SetScale_msg_OMacActor_dummy
	ALIGN	4

?SetRotation_msg_OMacActor_dummy@@3_NA DB 01H DUP (?)	; SetRotation_msg_OMacActor_dummy
	ALIGN	4

?OMacChannel_objClassInstance@@3VCObjClass@@A DB 024H DUP (?) ; OMacChannel_objClassInstance
?SetBoundsMin_msg_OMacActor_dummy@@3_NA DB 01H DUP (?)	; SetBoundsMin_msg_OMacActor_dummy
	ALIGN	4

?OMacSequenceChannel_objClassInstance@@3VCObjClass@@A DB 024H DUP (?) ; OMacSequenceChannel_objClassInstance
?SetBoundsMax_msg_OMacActor_dummy@@3_NA DB 01H DUP (?)	; SetBoundsMax_msg_OMacActor_dummy
	ALIGN	4

?SetGeometry_msg_OMacActor_dummy@@3_NA DB 01H DUP (?)	; SetGeometry_msg_OMacActor_dummy
	ALIGN	4

?staticObjClass@OMacChannel@@0PAVCObjClass@@A DD 01H DUP (?) ; OMacChannel::staticObjClass
?SetSurface_msg_OMacActor_dummy@@3_NA DB 01H DUP (?)	; SetSurface_msg_OMacActor_dummy
	ALIGN	4

?SetLodData_msg_OMacActor_dummy@@3_NA DB 01H DUP (?)	; SetLodData_msg_OMacActor_dummy
	ALIGN	4

?SetSkeleton_msg_OMacActor_dummy@@3_NA DB 01H DUP (?)	; SetSkeleton_msg_OMacActor_dummy
	ALIGN	4

?AddFrames_msg_OMacActor_dummy@@3_NA DB 01H DUP (?)	; AddFrames_msg_OMacActor_dummy
	ALIGN	4

?staticObjClass@OMacSequenceChannel@@0PAVCObjClass@@A DD 01H DUP (?) ; OMacSequenceChannel::staticObjClass
?AddSequences_msg_OMacActor_dummy@@3_NA DB 01H DUP (?)	; AddSequences_msg_OMacActor_dummy
	ALIGN	4

?defaultRelayInitialized@?BC@??EvalVerts@OMacSequenceChannel@@UAE_NPAVOMacActor@@KPAGPAVVVec3@@@Z@4_NA DB 01H DUP (?) ; defaultRelayInitialized
_BSS	ENDS
CRT$XCU	SEGMENT
_$S42	DD	FLAT:_$E41
_$S45	DD	FLAT:_$E44
_$S48	DD	FLAT:_$E47
_$S51	DD	FLAT:_$E50
_$S54	DD	FLAT:_$E53
_$S57	DD	FLAT:_$E56
_$S60	DD	FLAT:_$E59
_$S63	DD	FLAT:_$E62
_$S66	DD	FLAT:_$E65
_$S69	DD	FLAT:_$E68
_$S72	DD	FLAT:_$E71
_$S75	DD	FLAT:_$E74
_$S78	DD	FLAT:_$E77
_$S81	DD	FLAT:_$E80
_$S86	DD	FLAT:_$E85
_$S89	DD	FLAT:_$E88
_$S95	DD	FLAT:_$E94
CRT$XCU	ENDS
_DATA	SEGMENT
?rot1@?1??EvaluateTris@OMacActor@@QAEKMPAUSMacTri@@@Z@4PAHA DD 01H ; rot1
	DD	02H
	DD	00H
?rot2@?1??EvaluateTris@OMacActor@@QAEKMPAUSMacTri@@@Z@4PAHA DD 02H ; rot2
	DD	00H
	DD	01H
_DATA	ENDS
CRT$XCU	SEGMENT
_$S100	DD	FLAT:_$E99
_$S103	DD	FLAT:_$E102
_$S108	DD	FLAT:_$E107
_$S111	DD	FLAT:_$E110
_$S119	DD	FLAT:_$E118
_$S122	DD	FLAT:_$E121
_$S128	DD	FLAT:_$E127
; Function compile flags: /Ogty
CRT$XCU	ENDS
;	COMDAT _$E41
_TEXT	SEGMENT
_$E41	PROC NEAR					; COMDAT
	ret	0
_$E41	ENDP
_TEXT	ENDS
PUBLIC	_SetAuthor_msg_OMacActor
PUBLIC	??_C@_01KBOJ@s?$AA@				; `string'
PUBLIC	??_C@_09KJDM@SetAuthor?$AA@			; `string'
PUBLIC	??_C@_09OANE@OMacActor?$AA@			; `string'
EXTRN	?MSG_RegisterHandlerC@@YA_NPBD0PAX0@Z:NEAR	; MSG_RegisterHandlerC
;	COMDAT ??_C@_01KBOJ@s?$AA@
; File C:\duke4\Cannibal\MacMain.cpp
_DATA	SEGMENT
??_C@_01KBOJ@s?$AA@ DB 's', 00H				; `string'
_DATA	ENDS
;	COMDAT ??_C@_09KJDM@SetAuthor?$AA@
_DATA	SEGMENT
??_C@_09KJDM@SetAuthor?$AA@ DB 'SetAuthor', 00H		; `string'
_DATA	ENDS
;	COMDAT ??_C@_09OANE@OMacActor?$AA@
_DATA	SEGMENT
??_C@_09OANE@OMacActor?$AA@ DB 'OMacActor', 00H		; `string'
; Function compile flags: /Ogty
_DATA	ENDS
;	COMDAT _$E44
_TEXT	SEGMENT
_$E44	PROC NEAR					; COMDAT
	push	OFFSET FLAT:??_C@_01KBOJ@s?$AA@		; `string'
	push	OFFSET FLAT:_SetAuthor_msg_OMacActor
	push	OFFSET FLAT:??_C@_09KJDM@SetAuthor?$AA@	; `string'
	push	OFFSET FLAT:??_C@_09OANE@OMacActor?$AA@	; `string'
	call	?MSG_RegisterHandlerC@@YA_NPBD0PAX0@Z	; MSG_RegisterHandlerC
	add	esp, 16					; 00000010H
	mov	BYTE PTR ?SetAuthor_msg_OMacActor_dummy@@3_NA, al ; SetAuthor_msg_OMacActor_dummy
	ret	0
_$E44	ENDP
_TEXT	ENDS
EXTRN	?MEM_GetAlloc@@YAPAVIMemAlloc@@XZ:NEAR		; MEM_GetAlloc
EXTRN	?sMemTotal@CCorString@@0KA:DWORD		; CCorString::sMemTotal
; Function compile flags: /Ogty
;	COMDAT _SetAuthor_msg_OMacActor
_TEXT	SEGMENT
_This$ = 8
_inAuthor$ = 16
_SetAuthor_msg_OMacActor PROC NEAR			; COMDAT

; 42   : MSG_FUNC_C(OMacActor, SetAuthor, "s", (OMacActor* This, IMsg*, NChar* inAuthor)) { This->mAuthor = inAuthor; return(1); }

	push	ebx
	mov	ebx, DWORD PTR _This$[esp]
	push	ebp
	mov	ebp, DWORD PTR _inAuthor$[esp+4]
	push	esi
	push	edi
	test	ebp, ebp
	je	SHORT $L16992
	cmp	BYTE PTR [ebp], 0
	jne	SHORT $L16992
	xor	ebp, ebp
$L16992:
	mov	edi, DWORD PTR [ebx+72]
	test	edi, edi
	je	SHORT $L16993
	or	ecx, -1
	xor	eax, eax
	repne scasb
	mov	edi, DWORD PTR ?sMemTotal@CCorString@@0KA ; CCorString::sMemTotal
	or	eax, -1
	not	ecx
	dec	ecx
	sub	eax, ecx
	add	edi, eax
	mov	DWORD PTR ?sMemTotal@CCorString@@0KA, edi ; CCorString::sMemTotal
	call	?MEM_GetAlloc@@YAPAVIMemAlloc@@XZ	; MEM_GetAlloc
	mov	ecx, DWORD PTR [ebx+72]
	mov	edx, DWORD PTR [eax]
	push	ecx
	mov	ecx, eax
	call	DWORD PTR [edx+8]
$L16993:
	test	ebp, ebp
	mov	DWORD PTR [ebx+72], 0
	je	SHORT $L17002
	mov	edi, ebp
	or	ecx, -1
	xor	eax, eax
	repne scasb
	not	ecx
	dec	ecx
	mov	esi, ecx
	inc	esi
	call	?MEM_GetAlloc@@YAPAVIMemAlloc@@XZ	; MEM_GetAlloc
	mov	edx, DWORD PTR [eax]
	push	esi
	mov	ecx, eax
	call	DWORD PTR [edx]
	test	eax, eax
	mov	DWORD PTR [ebx+72], eax
	je	SHORT $L17002
	mov	edx, ebp
$L16998:
	mov	cl, BYTE PTR [edx]
	inc	edx
	mov	BYTE PTR [eax], cl
	inc	eax
	test	cl, cl
	jne	SHORT $L16998
	add	DWORD PTR ?sMemTotal@CCorString@@0KA, esi ; CCorString::sMemTotal
$L17002:
	pop	edi
	pop	esi
	pop	ebp
	mov	al, 1
	pop	ebx
	ret	0
_SetAuthor_msg_OMacActor ENDP
_TEXT	ENDS
PUBLIC	_SetDescription_msg_OMacActor
PUBLIC	??_C@_0P@HBI@SetDescription?$AA@		; `string'
;	COMDAT ??_C@_0P@HBI@SetDescription?$AA@
_DATA	SEGMENT
??_C@_0P@HBI@SetDescription?$AA@ DB 'SetDescription', 00H ; `string'
; Function compile flags: /Ogty
_DATA	ENDS
;	COMDAT _$E47
_TEXT	SEGMENT
_$E47	PROC NEAR					; COMDAT
	push	OFFSET FLAT:??_C@_01KBOJ@s?$AA@		; `string'
	push	OFFSET FLAT:_SetDescription_msg_OMacActor
	push	OFFSET FLAT:??_C@_0P@HBI@SetDescription?$AA@ ; `string'
	push	OFFSET FLAT:??_C@_09OANE@OMacActor?$AA@	; `string'
	call	?MSG_RegisterHandlerC@@YA_NPBD0PAX0@Z	; MSG_RegisterHandlerC
	add	esp, 16					; 00000010H
	mov	BYTE PTR ?SetDescription_msg_OMacActor_dummy@@3_NA, al ; SetDescription_msg_OMacActor_dummy
	ret	0
_$E47	ENDP
; Function compile flags: /Ogty
_TEXT	ENDS
;	COMDAT _SetDescription_msg_OMacActor
_TEXT	SEGMENT
_This$ = 8
_inDesc$ = 16
_SetDescription_msg_OMacActor PROC NEAR			; COMDAT

; 43   : MSG_FUNC_C(OMacActor, SetDescription, "s", (OMacActor* This, IMsg*, NChar* inDesc)) { This->mDescription = inDesc; return(1); }

	push	ebx
	mov	ebx, DWORD PTR _This$[esp]
	push	ebp
	mov	ebp, DWORD PTR _inDesc$[esp+4]
	push	esi
	push	edi
	test	ebp, ebp
	je	SHORT $L17027
	cmp	BYTE PTR [ebp], 0
	jne	SHORT $L17027
	xor	ebp, ebp
$L17027:
	mov	edi, DWORD PTR [ebx+76]
	test	edi, edi
	je	SHORT $L17028
	or	ecx, -1
	xor	eax, eax
	repne scasb
	mov	edi, DWORD PTR ?sMemTotal@CCorString@@0KA ; CCorString::sMemTotal
	or	eax, -1
	not	ecx
	dec	ecx
	sub	eax, ecx
	add	edi, eax
	mov	DWORD PTR ?sMemTotal@CCorString@@0KA, edi ; CCorString::sMemTotal
	call	?MEM_GetAlloc@@YAPAVIMemAlloc@@XZ	; MEM_GetAlloc
	mov	ecx, DWORD PTR [ebx+76]
	mov	edx, DWORD PTR [eax]
	push	ecx
	mov	ecx, eax
	call	DWORD PTR [edx+8]
$L17028:
	test	ebp, ebp
	mov	DWORD PTR [ebx+76], 0
	je	SHORT $L17037
	mov	edi, ebp
	or	ecx, -1
	xor	eax, eax
	repne scasb
	not	ecx
	dec	ecx
	mov	esi, ecx
	inc	esi
	call	?MEM_GetAlloc@@YAPAVIMemAlloc@@XZ	; MEM_GetAlloc
	mov	edx, DWORD PTR [eax]
	push	esi
	mov	ecx, eax
	call	DWORD PTR [edx]
	test	eax, eax
	mov	DWORD PTR [ebx+76], eax
	je	SHORT $L17037
	mov	edx, ebp
$L17033:
	mov	cl, BYTE PTR [edx]
	inc	edx
	mov	BYTE PTR [eax], cl
	inc	eax
	test	cl, cl
	jne	SHORT $L17033
	add	DWORD PTR ?sMemTotal@CCorString@@0KA, esi ; CCorString::sMemTotal
$L17037:
	pop	edi
	pop	esi
	pop	ebp
	mov	al, 1
	pop	ebx
	ret	0
_SetDescription_msg_OMacActor ENDP
_TEXT	ENDS
PUBLIC	_SetOrigin_msg_OMacActor
PUBLIC	??_C@_03CLFC@fff?$AA@				; `string'
PUBLIC	??_C@_09NIBD@SetOrigin?$AA@			; `string'
;	COMDAT ??_C@_03CLFC@fff?$AA@
_DATA	SEGMENT
??_C@_03CLFC@fff?$AA@ DB 'fff', 00H			; `string'
_DATA	ENDS
;	COMDAT ??_C@_09NIBD@SetOrigin?$AA@
_DATA	SEGMENT
??_C@_09NIBD@SetOrigin?$AA@ DB 'SetOrigin', 00H		; `string'
; Function compile flags: /Ogty
_DATA	ENDS
;	COMDAT _$E50
_TEXT	SEGMENT
_$E50	PROC NEAR					; COMDAT
	push	OFFSET FLAT:??_C@_03CLFC@fff?$AA@	; `string'
	push	OFFSET FLAT:_SetOrigin_msg_OMacActor
	push	OFFSET FLAT:??_C@_09NIBD@SetOrigin?$AA@	; `string'
	push	OFFSET FLAT:??_C@_09OANE@OMacActor?$AA@	; `string'
	call	?MSG_RegisterHandlerC@@YA_NPBD0PAX0@Z	; MSG_RegisterHandlerC
	add	esp, 16					; 00000010H
	mov	BYTE PTR ?SetOrigin_msg_OMacActor_dummy@@3_NA, al ; SetOrigin_msg_OMacActor_dummy
	ret	0
_$E50	ENDP
_TEXT	ENDS
EXTRN	__fltused:NEAR
; Function compile flags: /Ogty
;	COMDAT _SetOrigin_msg_OMacActor
_TEXT	SEGMENT
_This$ = 8
_inX$ = 16
_inY$ = 20
_inZ$ = 24
_SetOrigin_msg_OMacActor PROC NEAR			; COMDAT

; 44   : MSG_FUNC_C(OMacActor, SetOrigin, "fff", (OMacActor* This, IMsg*, NFloat inX, NFloat inY, NFloat inZ)) { This->mOrigin = VVec3(inX,inY,inZ); return(1); }

	mov	eax, DWORD PTR _This$[esp-4]
	mov	ecx, DWORD PTR _inX$[esp-4]
	mov	edx, DWORD PTR _inY$[esp-4]
	mov	DWORD PTR [eax+80], ecx
	mov	ecx, DWORD PTR _inZ$[esp-4]
	mov	DWORD PTR [eax+84], edx
	mov	DWORD PTR [eax+88], ecx
	mov	al, 1
	ret	0
_SetOrigin_msg_OMacActor ENDP
_TEXT	ENDS
PUBLIC	_SetScale_msg_OMacActor
PUBLIC	??_C@_08OKHL@SetScale?$AA@			; `string'
;	COMDAT ??_C@_08OKHL@SetScale?$AA@
_DATA	SEGMENT
??_C@_08OKHL@SetScale?$AA@ DB 'SetScale', 00H		; `string'
; Function compile flags: /Ogty
_DATA	ENDS
;	COMDAT _$E53
_TEXT	SEGMENT
_$E53	PROC NEAR					; COMDAT
	push	OFFSET FLAT:??_C@_03CLFC@fff?$AA@	; `string'
	push	OFFSET FLAT:_SetScale_msg_OMacActor
	push	OFFSET FLAT:??_C@_08OKHL@SetScale?$AA@	; `string'
	push	OFFSET FLAT:??_C@_09OANE@OMacActor?$AA@	; `string'
	call	?MSG_RegisterHandlerC@@YA_NPBD0PAX0@Z	; MSG_RegisterHandlerC
	add	esp, 16					; 00000010H
	mov	BYTE PTR ?SetScale_msg_OMacActor_dummy@@3_NA, al ; SetScale_msg_OMacActor_dummy
	ret	0
_$E53	ENDP
; Function compile flags: /Ogty
_TEXT	ENDS
;	COMDAT _SetScale_msg_OMacActor
_TEXT	SEGMENT
_This$ = 8
_inX$ = 16
_inY$ = 20
_inZ$ = 24
_SetScale_msg_OMacActor PROC NEAR			; COMDAT

; 45   : MSG_FUNC_C(OMacActor, SetScale, "fff", (OMacActor* This, IMsg*, NFloat inX, NFloat inY, NFloat inZ)) { This->mScale = VVec3(inX,inY,inZ); return(1); }

	mov	eax, DWORD PTR _This$[esp-4]
	mov	ecx, DWORD PTR _inX$[esp-4]
	mov	edx, DWORD PTR _inY$[esp-4]
	mov	DWORD PTR [eax+92], ecx
	mov	ecx, DWORD PTR _inZ$[esp-4]
	mov	DWORD PTR [eax+96], edx
	mov	DWORD PTR [eax+100], ecx
	mov	al, 1
	ret	0
_SetScale_msg_OMacActor ENDP
_TEXT	ENDS
PUBLIC	_SetRotation_msg_OMacActor
PUBLIC	??_C@_0M@BIJC@SetRotation?$AA@			; `string'
;	COMDAT ??_C@_0M@BIJC@SetRotation?$AA@
_DATA	SEGMENT
??_C@_0M@BIJC@SetRotation?$AA@ DB 'SetRotation', 00H	; `string'
; Function compile flags: /Ogty
_DATA	ENDS
;	COMDAT _$E56
_TEXT	SEGMENT
_$E56	PROC NEAR					; COMDAT
	push	OFFSET FLAT:??_C@_03CLFC@fff?$AA@	; `string'
	push	OFFSET FLAT:_SetRotation_msg_OMacActor
	push	OFFSET FLAT:??_C@_0M@BIJC@SetRotation?$AA@ ; `string'
	push	OFFSET FLAT:??_C@_09OANE@OMacActor?$AA@	; `string'
	call	?MSG_RegisterHandlerC@@YA_NPBD0PAX0@Z	; MSG_RegisterHandlerC
	add	esp, 16					; 00000010H
	mov	BYTE PTR ?SetRotation_msg_OMacActor_dummy@@3_NA, al ; SetRotation_msg_OMacActor_dummy
	ret	0
_$E56	ENDP
_TEXT	ENDS
PUBLIC	__real@40490fdb
PUBLIC	__real@3bb60b61
;	COMDAT __real@40490fdb
; File C:\duke4\Cannibal\VecMain.h
CONST	SEGMENT
__real@40490fdb DD 040490fdbr			; 3.14159
CONST	ENDS
;	COMDAT __real@3bb60b61
CONST	SEGMENT
__real@3bb60b61 DD 03bb60b61r			; 0.00555556
; Function compile flags: /Ogty
; File C:\duke4\Cannibal\MacMain.cpp
CONST	ENDS
;	COMDAT _SetRotation_msg_OMacActor
_TEXT	SEGMENT
_This$ = 8
_inRoll$ = 16
_inPitch$ = 20
_inYaw$ = 24
$T17082 = -12
_SetRotation_msg_OMacActor PROC NEAR			; COMDAT

; 47   : {

	sub	esp, 12					; 0000000cH

; 48   : 	This->mRotation = VEulers3(M_DEGTORAD(inRoll),M_DEGTORAD(inPitch),M_DEGTORAD(inYaw));

	fld	DWORD PTR _inRoll$[esp+8]
	fmul	DWORD PTR __real@40490fdb
	mov	eax, DWORD PTR _This$[esp+8]
	fmul	DWORD PTR __real@3bb60b61
	fld	DWORD PTR _inPitch$[esp+8]
	fmul	DWORD PTR __real@40490fdb
	fmul	DWORD PTR __real@3bb60b61
	fld	DWORD PTR _inYaw$[esp+8]
	fmul	DWORD PTR __real@40490fdb
	fmul	DWORD PTR __real@3bb60b61
	fstp	DWORD PTR $T17082[esp+20]
	mov	ecx, DWORD PTR $T17082[esp+20]
	fxch	ST(1)
	fstp	DWORD PTR [eax+104]
	mov	DWORD PTR [eax+112], ecx
	fstp	DWORD PTR [eax+108]

; 49   : 	return(1);

	mov	al, 1

; 50   : }

	add	esp, 12					; 0000000cH
	ret	0
_SetRotation_msg_OMacActor ENDP
_TEXT	ENDS
PUBLIC	_SetBoundsMin_msg_OMacActor
PUBLIC	??_C@_0N@KGJ@SetBoundsMin?$AA@			; `string'
;	COMDAT ??_C@_0N@KGJ@SetBoundsMin?$AA@
_DATA	SEGMENT
??_C@_0N@KGJ@SetBoundsMin?$AA@ DB 'SetBoundsMin', 00H	; `string'
; Function compile flags: /Ogty
_DATA	ENDS
;	COMDAT _$E59
_TEXT	SEGMENT
_$E59	PROC NEAR					; COMDAT
	push	OFFSET FLAT:??_C@_03CLFC@fff?$AA@	; `string'
	push	OFFSET FLAT:_SetBoundsMin_msg_OMacActor
	push	OFFSET FLAT:??_C@_0N@KGJ@SetBoundsMin?$AA@ ; `string'
	push	OFFSET FLAT:??_C@_09OANE@OMacActor?$AA@	; `string'
	call	?MSG_RegisterHandlerC@@YA_NPBD0PAX0@Z	; MSG_RegisterHandlerC
	add	esp, 16					; 00000010H
	mov	BYTE PTR ?SetBoundsMin_msg_OMacActor_dummy@@3_NA, al ; SetBoundsMin_msg_OMacActor_dummy
	ret	0
_$E59	ENDP
; Function compile flags: /Ogty
_TEXT	ENDS
;	COMDAT _SetBoundsMin_msg_OMacActor
_TEXT	SEGMENT
_This$ = 8
_inX$ = 16
_inY$ = 20
_inZ$ = 24
_SetBoundsMin_msg_OMacActor PROC NEAR			; COMDAT

; 51   : MSG_FUNC_C(OMacActor, SetBoundsMin, "fff", (OMacActor* This, IMsg*, NFloat inX, NFloat inY, NFloat inZ)) { This->mBounds[0] = VVec3(inX,inY,inZ); return(1); }

	mov	eax, DWORD PTR _This$[esp-4]
	mov	ecx, DWORD PTR _inX$[esp-4]
	mov	edx, DWORD PTR _inY$[esp-4]
	mov	DWORD PTR [eax+116], ecx
	mov	ecx, DWORD PTR _inZ$[esp-4]
	mov	DWORD PTR [eax+120], edx
	mov	DWORD PTR [eax+124], ecx
	mov	al, 1
	ret	0
_SetBoundsMin_msg_OMacActor ENDP
_TEXT	ENDS
PUBLIC	_SetBoundsMax_msg_OMacActor
PUBLIC	??_C@_0N@OJDP@SetBoundsMax?$AA@			; `string'
;	COMDAT ??_C@_0N@OJDP@SetBoundsMax?$AA@
_DATA	SEGMENT
??_C@_0N@OJDP@SetBoundsMax?$AA@ DB 'SetBoundsMax', 00H	; `string'
; Function compile flags: /Ogty
_DATA	ENDS
;	COMDAT _$E62
_TEXT	SEGMENT
_$E62	PROC NEAR					; COMDAT
	push	OFFSET FLAT:??_C@_03CLFC@fff?$AA@	; `string'
	push	OFFSET FLAT:_SetBoundsMax_msg_OMacActor
	push	OFFSET FLAT:??_C@_0N@OJDP@SetBoundsMax?$AA@ ; `string'
	push	OFFSET FLAT:??_C@_09OANE@OMacActor?$AA@	; `string'
	call	?MSG_RegisterHandlerC@@YA_NPBD0PAX0@Z	; MSG_RegisterHandlerC
	add	esp, 16					; 00000010H
	mov	BYTE PTR ?SetBoundsMax_msg_OMacActor_dummy@@3_NA, al ; SetBoundsMax_msg_OMacActor_dummy
	ret	0
_$E62	ENDP
; Function compile flags: /Ogty
_TEXT	ENDS
;	COMDAT _SetBoundsMax_msg_OMacActor
_TEXT	SEGMENT
_This$ = 8
_inX$ = 16
_inY$ = 20
_inZ$ = 24
_SetBoundsMax_msg_OMacActor PROC NEAR			; COMDAT

; 52   : MSG_FUNC_C(OMacActor, SetBoundsMax, "fff", (OMacActor* This, IMsg*, NFloat inX, NFloat inY, NFloat inZ)) { This->mBounds[1] = VVec3(inX,inY,inZ); return(1); }

	mov	eax, DWORD PTR _This$[esp-4]
	mov	ecx, DWORD PTR _inX$[esp-4]
	mov	edx, DWORD PTR _inY$[esp-4]
	mov	DWORD PTR [eax+128], ecx
	mov	ecx, DWORD PTR _inZ$[esp-4]
	mov	DWORD PTR [eax+132], edx
	mov	DWORD PTR [eax+136], ecx
	mov	al, 1
	ret	0
_SetBoundsMax_msg_OMacActor ENDP
_TEXT	ENDS
PUBLIC	_SetGeometry_msg_OMacActor
PUBLIC	??_C@_0M@KHLN@SetGeometry?$AA@			; `string'
;	COMDAT ??_C@_0M@KHLN@SetGeometry?$AA@
_DATA	SEGMENT
??_C@_0M@KHLN@SetGeometry?$AA@ DB 'SetGeometry', 00H	; `string'
; Function compile flags: /Ogty
_DATA	ENDS
;	COMDAT _$E65
_TEXT	SEGMENT
_$E65	PROC NEAR					; COMDAT
	push	OFFSET FLAT:??_C@_01KBOJ@s?$AA@		; `string'
	push	OFFSET FLAT:_SetGeometry_msg_OMacActor
	push	OFFSET FLAT:??_C@_0M@KHLN@SetGeometry?$AA@ ; `string'
	push	OFFSET FLAT:??_C@_09OANE@OMacActor?$AA@	; `string'
	call	?MSG_RegisterHandlerC@@YA_NPBD0PAX0@Z	; MSG_RegisterHandlerC
	add	esp, 16					; 00000010H
	mov	BYTE PTR ?SetGeometry_msg_OMacActor_dummy@@3_NA, al ; SetGeometry_msg_OMacActor_dummy
	ret	0
_$E65	ENDP
_TEXT	ENDS
EXTRN	?CacheIn@OCpjChunk@@QAE_NXZ:NEAR		; OCpjChunk::CacheIn
EXTRN	?CPJ_FindChunk@@YAPAVOCpjChunk@@PAVOCpjProject@@PAVCObjClass@@PBD@Z:NEAR ; CPJ_FindChunk
EXTRN	?staticObjClass@OCpjGeometry@@0PAVCObjClass@@A:DWORD ; OCpjGeometry::staticObjClass
; Function compile flags: /Ogty
;	COMDAT _SetGeometry_msg_OMacActor
_TEXT	SEGMENT
_This$ = 8
_inChunkPath$ = 16
_SetGeometry_msg_OMacActor PROC NEAR			; COMDAT

; 56   : 	This->SetGeometry((OCpjGeometry*)CPJ_FindChunk(This->mLoadProject, OCpjGeometry::GetStaticClass(), inChunkPath));

	mov	eax, DWORD PTR _inChunkPath$[esp-4]
	mov	ecx, DWORD PTR ?staticObjClass@OCpjGeometry@@0PAVCObjClass@@A ; OCpjGeometry::staticObjClass
	push	esi
	mov	esi, DWORD PTR _This$[esp]
	push	eax
	push	ecx
	mov	edx, DWORD PTR [esi+68]
	push	edx
	call	?CPJ_FindChunk@@YAPAVOCpjChunk@@PAVOCpjProject@@PAVCObjClass@@PBD@Z ; CPJ_FindChunk
	add	esp, 12					; 0000000cH
	mov	DWORD PTR [esi+140], eax
	test	eax, eax
	pop	esi
	je	SHORT $L17145
	mov	ecx, eax
	call	?CacheIn@OCpjChunk@@QAE_NXZ		; OCpjChunk::CacheIn
$L17145:

; 57   : 	return(1);

	mov	al, 1

; 58   : }

	ret	0
_SetGeometry_msg_OMacActor ENDP
_TEXT	ENDS
PUBLIC	_SetSurface_msg_OMacActor
PUBLIC	??_C@_02HNOA@is?$AA@				; `string'
PUBLIC	??_C@_0L@BCFB@SetSurface?$AA@			; `string'
;	COMDAT ??_C@_02HNOA@is?$AA@
_DATA	SEGMENT
??_C@_02HNOA@is?$AA@ DB 'is', 00H			; `string'
_DATA	ENDS
;	COMDAT ??_C@_0L@BCFB@SetSurface?$AA@
_DATA	SEGMENT
??_C@_0L@BCFB@SetSurface?$AA@ DB 'SetSurface', 00H	; `string'
; Function compile flags: /Ogty
_DATA	ENDS
;	COMDAT _$E68
_TEXT	SEGMENT
_$E68	PROC NEAR					; COMDAT
	push	OFFSET FLAT:??_C@_02HNOA@is?$AA@	; `string'
	push	OFFSET FLAT:_SetSurface_msg_OMacActor
	push	OFFSET FLAT:??_C@_0L@BCFB@SetSurface?$AA@ ; `string'
	push	OFFSET FLAT:??_C@_09OANE@OMacActor?$AA@	; `string'
	call	?MSG_RegisterHandlerC@@YA_NPBD0PAX0@Z	; MSG_RegisterHandlerC
	add	esp, 16					; 00000010H
	mov	BYTE PTR ?SetSurface_msg_OMacActor_dummy@@3_NA, al ; SetSurface_msg_OMacActor_dummy
	ret	0
_$E68	ENDP
_TEXT	ENDS
PUBLIC	?Realloc@CCorArray@@IAEXK@Z			; CCorArray::Realloc
EXTRN	?staticObjClass@OCpjSurface@@0PAVCObjClass@@A:DWORD ; OCpjSurface::staticObjClass
; Function compile flags: /Ogty
;	COMDAT _SetSurface_msg_OMacActor
_TEXT	SEGMENT
_This$ = 8
_inIndex$ = 16
_inChunkPath$ = 20
$T17209 = 20
_SetSurface_msg_OMacActor PROC NEAR			; COMDAT

; 61   : 	This->SetSurface(inIndex, (OCpjSurface*)CPJ_FindChunk(This->mLoadProject, OCpjSurface::GetStaticClass(), inChunkPath));

	mov	eax, DWORD PTR _inChunkPath$[esp-4]
	mov	ecx, DWORD PTR ?staticObjClass@OCpjSurface@@0PAVCObjClass@@A ; OCpjSurface::staticObjClass
	push	ebp
	mov	ebp, DWORD PTR _This$[esp]
	push	eax
	push	ecx
	mov	edx, DWORD PTR [ebp+68]
	push	edx
	call	?CPJ_FindChunk@@YAPAVOCpjChunk@@PAVOCpjProject@@PAVCObjClass@@PBD@Z ; CPJ_FindChunk
	mov	edx, DWORD PTR _inIndex$[esp+12]
	mov	ecx, eax
	mov	eax, DWORD PTR [ebp+156]
	add	esp, 12					; 0000000cH
	cmp	eax, edx
	mov	DWORD PTR $T17209[esp], ecx
	ja	SHORT $L17198
	push	ebx
	mov	ebx, DWORD PTR [ebp+156]
	push	esi
	mov	ecx, DWORD PTR [ebp+160]
	push	edi
	mov	esi, edx
	lea	edi, DWORD PTR [ebp+152]
	sub	esi, eax
	inc	esi
	lea	eax, DWORD PTR [ebx+esi]
	cmp	eax, ecx
	mov	DWORD PTR [edi+4], eax
	jbe	SHORT $L17203
	mov	ecx, eax
	push	4
	shr	ecx, 2
	lea	edx, DWORD PTR [ecx+eax+32]
	mov	ecx, edi
	mov	DWORD PTR [edi+8], edx
	call	?Realloc@CCorArray@@IAEXK@Z		; CCorArray::Realloc
	mov	edx, DWORD PTR _inIndex$[esp+12]
$L17203:
	mov	ecx, esi
	mov	esi, DWORD PTR [edi]
	xor	eax, eax
	lea	edi, DWORD PTR [esi+ebx*4]
	rep stosd
	mov	ecx, DWORD PTR $T17209[esp+12]
	pop	edi
	pop	esi
	pop	ebx
$L17198:
	mov	eax, DWORD PTR [ebp+152]
	pop	ebp
	test	ecx, ecx
	mov	DWORD PTR [eax+edx*4], ecx
	je	SHORT $L17210
	call	?CacheIn@OCpjChunk@@QAE_NXZ		; OCpjChunk::CacheIn
$L17210:

; 62   : 	return(1);

	mov	al, 1

; 63   : }

	ret	0
_SetSurface_msg_OMacActor ENDP
_TEXT	ENDS
PUBLIC	_SetLodData_msg_OMacActor
PUBLIC	??_C@_0L@BJMB@SetLodData?$AA@			; `string'
;	COMDAT ??_C@_0L@BJMB@SetLodData?$AA@
_DATA	SEGMENT
??_C@_0L@BJMB@SetLodData?$AA@ DB 'SetLodData', 00H	; `string'
; Function compile flags: /Ogty
_DATA	ENDS
;	COMDAT _$E71
_TEXT	SEGMENT
_$E71	PROC NEAR					; COMDAT
	push	OFFSET FLAT:??_C@_01KBOJ@s?$AA@		; `string'
	push	OFFSET FLAT:_SetLodData_msg_OMacActor
	push	OFFSET FLAT:??_C@_0L@BJMB@SetLodData?$AA@ ; `string'
	push	OFFSET FLAT:??_C@_09OANE@OMacActor?$AA@	; `string'
	call	?MSG_RegisterHandlerC@@YA_NPBD0PAX0@Z	; MSG_RegisterHandlerC
	add	esp, 16					; 00000010H
	mov	BYTE PTR ?SetLodData_msg_OMacActor_dummy@@3_NA, al ; SetLodData_msg_OMacActor_dummy
	ret	0
_$E71	ENDP
_TEXT	ENDS
EXTRN	?staticObjClass@OCpjLodData@@0PAVCObjClass@@A:DWORD ; OCpjLodData::staticObjClass
; Function compile flags: /Ogty
;	COMDAT _SetLodData_msg_OMacActor
_TEXT	SEGMENT
_This$ = 8
_inChunkPath$ = 16
_SetLodData_msg_OMacActor PROC NEAR			; COMDAT

; 66   : 	This->SetLodData((OCpjLodData*)CPJ_FindChunk(This->mLoadProject, OCpjLodData::GetStaticClass(), inChunkPath));

	mov	eax, DWORD PTR _inChunkPath$[esp-4]
	mov	ecx, DWORD PTR ?staticObjClass@OCpjLodData@@0PAVCObjClass@@A ; OCpjLodData::staticObjClass
	push	esi
	mov	esi, DWORD PTR _This$[esp]
	push	eax
	push	ecx
	mov	edx, DWORD PTR [esi+68]
	push	edx
	call	?CPJ_FindChunk@@YAPAVOCpjChunk@@PAVOCpjProject@@PAVCObjClass@@PBD@Z ; CPJ_FindChunk
	add	esp, 12					; 0000000cH
	mov	DWORD PTR [esi+148], eax
	test	eax, eax
	pop	esi
	je	SHORT $L17228
	mov	ecx, eax
	call	?CacheIn@OCpjChunk@@QAE_NXZ		; OCpjChunk::CacheIn
$L17228:

; 67   : 	return(1);

	mov	al, 1

; 68   : }

	ret	0
_SetLodData_msg_OMacActor ENDP
_TEXT	ENDS
PUBLIC	_SetSkeleton_msg_OMacActor
PUBLIC	??_C@_0M@NPDC@SetSkeleton?$AA@			; `string'
;	COMDAT ??_C@_0M@NPDC@SetSkeleton?$AA@
_DATA	SEGMENT
??_C@_0M@NPDC@SetSkeleton?$AA@ DB 'SetSkeleton', 00H	; `string'
; Function compile flags: /Ogty
_DATA	ENDS
;	COMDAT _$E74
_TEXT	SEGMENT
_$E74	PROC NEAR					; COMDAT
	push	OFFSET FLAT:??_C@_01KBOJ@s?$AA@		; `string'
	push	OFFSET FLAT:_SetSkeleton_msg_OMacActor
	push	OFFSET FLAT:??_C@_0M@NPDC@SetSkeleton?$AA@ ; `string'
	push	OFFSET FLAT:??_C@_09OANE@OMacActor?$AA@	; `string'
	call	?MSG_RegisterHandlerC@@YA_NPBD0PAX0@Z	; MSG_RegisterHandlerC
	add	esp, 16					; 00000010H
	mov	BYTE PTR ?SetSkeleton_msg_OMacActor_dummy@@3_NA, al ; SetSkeleton_msg_OMacActor_dummy
	ret	0
_$E74	ENDP
_TEXT	ENDS
PUBLIC	?SetSkeleton@OMacActor@@QAE_NPAVOCpjSkeleton@@@Z ; OMacActor::SetSkeleton
EXTRN	?staticObjClass@OCpjSkeleton@@0PAVCObjClass@@A:DWORD ; OCpjSkeleton::staticObjClass
; Function compile flags: /Ogty
;	COMDAT _SetSkeleton_msg_OMacActor
_TEXT	SEGMENT
_This$ = 8
_inChunkPath$ = 16
_SetSkeleton_msg_OMacActor PROC NEAR			; COMDAT

; 71   : 	This->SetSkeleton((OCpjSkeleton*)CPJ_FindChunk(This->mLoadProject, OCpjSkeleton::GetStaticClass(), inChunkPath));

	mov	eax, DWORD PTR _inChunkPath$[esp-4]
	mov	ecx, DWORD PTR ?staticObjClass@OCpjSkeleton@@0PAVCObjClass@@A ; OCpjSkeleton::staticObjClass
	push	esi
	mov	esi, DWORD PTR _This$[esp]
	push	eax
	push	ecx
	mov	edx, DWORD PTR [esi+68]
	push	edx
	call	?CPJ_FindChunk@@YAPAVOCpjChunk@@PAVOCpjProject@@PAVCObjClass@@PBD@Z ; CPJ_FindChunk
	add	esp, 12					; 0000000cH
	mov	ecx, esi
	push	eax
	call	?SetSkeleton@OMacActor@@QAE_NPAVOCpjSkeleton@@@Z ; OMacActor::SetSkeleton

; 72   : 	return(1);

	mov	al, 1
	pop	esi

; 73   : }

	ret	0
_SetSkeleton_msg_OMacActor ENDP
_TEXT	ENDS
PUBLIC	_AddFrames_msg_OMacActor
PUBLIC	??_C@_09ONCB@AddFrames?$AA@			; `string'
;	COMDAT ??_C@_09ONCB@AddFrames?$AA@
_DATA	SEGMENT
??_C@_09ONCB@AddFrames?$AA@ DB 'AddFrames', 00H		; `string'
; Function compile flags: /Ogty
_DATA	ENDS
;	COMDAT _$E77
_TEXT	SEGMENT
_$E77	PROC NEAR					; COMDAT
	push	OFFSET FLAT:??_C@_01KBOJ@s?$AA@		; `string'
	push	OFFSET FLAT:_AddFrames_msg_OMacActor
	push	OFFSET FLAT:??_C@_09ONCB@AddFrames?$AA@	; `string'
	push	OFFSET FLAT:??_C@_09OANE@OMacActor?$AA@	; `string'
	call	?MSG_RegisterHandlerC@@YA_NPBD0PAX0@Z	; MSG_RegisterHandlerC
	add	esp, 16					; 00000010H
	mov	BYTE PTR ?AddFrames_msg_OMacActor_dummy@@3_NA, al ; AddFrames_msg_OMacActor_dummy
	ret	0
_$E77	ENDP
_TEXT	ENDS
PUBLIC	?AdvanceToType@?$TObjIter@VOCpjFrames@@@@IAEXXZ	; TObjIter<OCpjFrames>::AdvanceToType
PUBLIC	?Reset@?$TObjIter@VOCpjFrames@@@@QAEXPAVOObject@@_N@Z ; TObjIter<OCpjFrames>::Reset
PUBLIC	??0?$TObjIter@VOCpjFrames@@@@QAE@PAVOObject@@_N@Z ; TObjIter<OCpjFrames>::TObjIter<OCpjFrames>
PUBLIC	?Set@CCorString@@QAEXPAD@Z			; CCorString::Set
PUBLIC	?AddItem@?$TCorArray@PAVOCpjFrames@@@@QAEKABQAVOCpjFrames@@@Z ; TCorArray<OCpjFrames *>::AddItem
PUBLIC	?Add@?$TCorArray@PAVOCpjFrames@@@@QAEKK@Z	; TCorArray<OCpjFrames *>::Add
PUBLIC	??H@YA?AVCCorString@@ABV0@PBD@Z			; operator+
PUBLIC	??_C@_00A@?$AA@					; `string'
PUBLIC	?Add@?$TCorArray@VCCorString@@@@QAEKK@Z		; TCorArray<CCorString>::Add
PUBLIC	?GetObject@CObjIter@@IAEPAVOObject@@XZ		; CObjIter::GetObject
PUBLIC	?GetNext@CObjIter@@IAEXXZ			; CObjIter::GetNext
PUBLIC	??0CObjIter@@QAE@PAVOObject@@_N@Z		; CObjIter::CObjIter
PUBLIC	??_C@_04BAK@NULL?$AA@				; `string'
EXTRN	__imp__strchr:NEAR
EXTRN	?STR_FileFind@@YAPADPADPAHPAK@Z:NEAR		; STR_FileFind
EXTRN	__imp__stricmp:NEAR
EXTRN	?CPJ_SetBasePath@@YAXPBD@Z:NEAR			; CPJ_SetBasePath
EXTRN	?CPJ_GetBasePath@@YAPBDXZ:NEAR			; CPJ_GetBasePath
EXTRN	?CPJ_FindProject@@YAPAVOCpjProject@@PBD@Z:NEAR	; CPJ_FindProject
;	COMDAT ??_C@_00A@?$AA@
; File C:\duke4\Cannibal\CorMain.h
_BSS	SEGMENT
??_C@_00A@?$AA@ DB 01H DUP (?)				; `string'
_BSS	ENDS
;	COMDAT ??_C@_04BAK@NULL?$AA@
_DATA	SEGMENT
??_C@_04BAK@NULL?$AA@ DB 'NULL', 00H			; `string'
; Function compile flags: /Ogty
; File C:\duke4\Cannibal\MacMain.cpp
_DATA	ENDS
;	COMDAT _AddFrames_msg_OMacActor
_TEXT	SEGMENT
$T17275 = 8
$T17347 = 8
_it$17358 = -12
_it$17471 = -12
_This$ = 8
_inProjectPath$ = 16
_oldBasePath$12126 = 8
_spec$12127 = 16
$T17250 = 8
$T17251 = -16
_it$17270 = -12
_AddFrames_msg_OMacActor PROC NEAR			; COMDAT

; 75   : {

	sub	esp, 16					; 00000010H
	push	ebx

; 76   : 	if (!stricmp(inProjectPath, "NULL"))

	mov	ebx, DWORD PTR _inProjectPath$[esp+16]
	push	ebp
	mov	ebp, DWORD PTR __imp__stricmp
	push	esi
	push	edi
	push	OFFSET FLAT:??_C@_04BAK@NULL?$AA@	; `string'
	push	ebx
	call	ebp
	add	esp, 8
	test	eax, eax
	jne	SHORT $L12109

; 77   : 	{
; 78   : 		This->AddFrames(This->mLoadProject);

	mov	esi, DWORD PTR _This$[esp+28]
	mov	eax, DWORD PTR [esi+68]
	test	eax, eax
	je	$L17526
	push	0
	push	eax
	lea	ecx, DWORD PTR _it$17270[esp+40]
	call	??0?$TObjIter@VOCpjFrames@@@@QAE@PAVOObject@@_N@Z ; TObjIter<OCpjFrames>::TObjIter<OCpjFrames>
	lea	ecx, DWORD PTR _it$17270[esp+32]
	call	?GetObject@CObjIter@@IAEPAVOObject@@XZ	; CObjIter::GetObject
	test	eax, eax
	je	$L17526
	add	esi, 168				; 000000a8H
$L17276:
	lea	ecx, DWORD PTR _it$17270[esp+32]
	call	?GetObject@CObjIter@@IAEPAVOObject@@XZ	; CObjIter::GetObject
	mov	DWORD PTR $T17275[esp+28], eax
	lea	eax, DWORD PTR $T17275[esp+28]
	push	eax
	mov	ecx, esi
	call	?AddItem@?$TCorArray@PAVOCpjFrames@@@@QAEKABQAVOCpjFrames@@@Z ; TCorArray<OCpjFrames *>::AddItem
	mov	ecx, DWORD PTR _it$17270[esp+36]
	mov	DWORD PTR _it$17270[esp+32], ecx
	lea	ecx, DWORD PTR _it$17270[esp+32]
	call	?GetNext@CObjIter@@IAEXXZ		; CObjIter::GetNext
	lea	ecx, DWORD PTR _it$17270[esp+32]
	call	?AdvanceToType@?$TObjIter@VOCpjFrames@@@@IAEXXZ ; TObjIter<OCpjFrames>::AdvanceToType
	lea	ecx, DWORD PTR _it$17270[esp+32]
	call	?GetObject@CObjIter@@IAEPAVOObject@@XZ	; CObjIter::GetObject
	test	eax, eax
	jne	SHORT $L17276
	pop	edi
	pop	esi
	pop	ebp

; 115  : 	return(1);

	mov	al, 1
	pop	ebx

; 116  : }

	add	esp, 16					; 00000010H
	ret	0
$L12109:

; 79   : 		return(1);
; 80   : 	}
; 81   : 	if (!strchr(inProjectPath, '*'))

	push	42					; 0000002aH
	push	ebx
	call	DWORD PTR __imp__strchr
	add	esp, 8

; 82   : 	{
; 83   : 		for (NDword i=0;i<This->mFramesFiles.GetCount();i++)

	xor	esi, esi
	test	eax, eax
	jne	$L12111
	mov	edi, DWORD PTR _This$[esp+28]
	mov	eax, DWORD PTR [edi+204]
	test	eax, eax
	jbe	SHORT $L17539
$L12113:
	mov	edx, DWORD PTR [edi+200]
	lea	eax, DWORD PTR [edx+esi*4]

; 84   : 		{
; 85   : 			if (!stricmp(*This->mFramesFiles[i], inProjectPath))

	mov	eax, DWORD PTR [edx+esi*4]
	test	eax, eax
	jne	SHORT $L17300
	mov	eax, OFFSET FLAT:??_C@_00A@?$AA@	; `string'
$L17300:
	push	ebx
	push	eax
	call	ebp
	add	esp, 8
	test	eax, eax
	je	SHORT $L17539
	mov	eax, DWORD PTR [edi+204]
	inc	esi
	cmp	esi, eax
	jb	SHORT $L12113
$L17539:

; 86   : 				break;
; 87   : 		}
; 88   : 		if (i==This->mFramesFiles.GetCount())

	cmp	esi, DWORD PTR [edi+204]
	jne	$L17526

; 89   : 		{
; 90   : 			This->mFramesFiles.AddItem(inProjectPath);

	push	ebx
	lea	ecx, DWORD PTR $T17250[esp+32]
	mov	DWORD PTR $T17250[esp+32], 0
	call	?Set@CCorString@@QAEXPAD@Z		; CCorString::Set
	lea	esi, DWORD PTR [edi+200]
	push	1
	mov	ecx, esi
	call	?Add@?$TCorArray@VCCorString@@@@QAEKK@Z	; TCorArray<CCorString>::Add
	mov	ecx, DWORD PTR $T17250[esp+28]
	mov	edx, DWORD PTR [esi]
	push	ecx
	lea	ecx, DWORD PTR [edx+eax*4]
	call	?Set@CCorString@@QAEXPAD@Z		; CCorString::Set
	push	0
	lea	ecx, DWORD PTR $T17250[esp+32]
	call	?Set@CCorString@@QAEXPAD@Z		; CCorString::Set

; 91   : 			This->AddFrames(CPJ_FindProject(inProjectPath));

	push	ebx
	call	?CPJ_FindProject@@YAPAVOCpjProject@@PBD@Z ; CPJ_FindProject
	add	esp, 4
	test	eax, eax
	je	$L17526
	push	0
	push	eax
	lea	ecx, DWORD PTR _it$17358[esp+40]
	call	??0?$TObjIter@VOCpjFrames@@@@QAE@PAVOObject@@_N@Z ; TObjIter<OCpjFrames>::TObjIter<OCpjFrames>
	lea	ecx, DWORD PTR _it$17358[esp+32]
	call	?GetObject@CObjIter@@IAEPAVOObject@@XZ	; CObjIter::GetObject
	test	eax, eax
	je	$L17526
	lea	esi, DWORD PTR [edi+168]
$L17351:
	lea	ecx, DWORD PTR _it$17358[esp+32]
	call	?GetObject@CObjIter@@IAEPAVOObject@@XZ	; CObjIter::GetObject
	mov	DWORD PTR $T17347[esp+28], eax
	lea	eax, DWORD PTR $T17347[esp+28]
	push	eax
	mov	ecx, esi
	call	?AddItem@?$TCorArray@PAVOCpjFrames@@@@QAEKABQAVOCpjFrames@@@Z ; TCorArray<OCpjFrames *>::AddItem
	mov	ecx, DWORD PTR _it$17358[esp+36]
	mov	DWORD PTR _it$17358[esp+32], ecx
	lea	ecx, DWORD PTR _it$17358[esp+32]
	call	?GetNext@CObjIter@@IAEXXZ		; CObjIter::GetNext
	lea	ecx, DWORD PTR _it$17358[esp+32]
	call	?AdvanceToType@?$TObjIter@VOCpjFrames@@@@IAEXXZ ; TObjIter<OCpjFrames>::AdvanceToType
	lea	ecx, DWORD PTR _it$17358[esp+32]
	call	?GetObject@CObjIter@@IAEPAVOObject@@XZ	; CObjIter::GetObject
	test	eax, eax
	jne	SHORT $L17351
	pop	edi
	pop	esi
	pop	ebp

; 115  : 	return(1);

	mov	al, 1
	pop	ebx

; 116  : }

	add	esp, 16					; 00000010H
	ret	0
$L12111:

; 92   : 		}
; 93   : 		return(1);
; 94   : 	}
; 95   : 
; 96   : 	for (NDword i=0;i<This->mFramesStarFiles.GetCount();i++)

	mov	ebp, DWORD PTR _This$[esp+28]
	mov	eax, DWORD PTR [ebp+220]
	test	eax, eax
	jbe	SHORT $L17540
$L12120:
	mov	edx, DWORD PTR [ebp+216]
	lea	eax, DWORD PTR [edx+esi*4]

; 97   : 	{
; 98   : 		if (!stricmp(*This->mFramesStarFiles[i], inProjectPath))

	mov	eax, DWORD PTR [edx+esi*4]
	test	eax, eax
	jne	SHORT $L17378
	mov	eax, OFFSET FLAT:??_C@_00A@?$AA@	; `string'
$L17378:
	push	ebx
	push	eax
	call	DWORD PTR __imp__stricmp
	add	esp, 8
	test	eax, eax
	je	SHORT $L17540
	mov	eax, DWORD PTR [ebp+220]
	inc	esi
	cmp	esi, eax
	jb	SHORT $L12120
$L17540:

; 99   : 			break;
; 100  : 	}
; 101  : 	if (i==This->mFramesStarFiles.GetCount())

	cmp	esi, DWORD PTR [ebp+220]
	jne	$L17526

; 102  : 	{
; 103  : 		This->mFramesStarFiles.AddItem(inProjectPath); // record the star path for later

	push	ebx
	lea	ecx, DWORD PTR $T17251[esp+36]
	mov	DWORD PTR $T17251[esp+36], 0
	call	?Set@CCorString@@QAEXPAD@Z		; CCorString::Set
	lea	esi, DWORD PTR [ebp+216]
	push	1
	mov	ecx, esi
	call	?Add@?$TCorArray@VCCorString@@@@QAEKK@Z	; TCorArray<CCorString>::Add
	mov	ecx, DWORD PTR $T17251[esp+32]
	mov	edx, DWORD PTR [esi]
	push	ecx
	lea	ecx, DWORD PTR [edx+eax*4]
	call	?Set@CCorString@@QAEXPAD@Z		; CCorString::Set
	push	0
	lea	ecx, DWORD PTR $T17251[esp+36]
	call	?Set@CCorString@@QAEXPAD@Z		; CCorString::Set

; 104  : 		CCorString oldBasePath = CPJ_GetBasePath();

	call	?CPJ_GetBasePath@@YAPBDXZ		; CPJ_GetBasePath
	push	eax
	lea	ecx, DWORD PTR _oldBasePath$12126[esp+32]
	mov	DWORD PTR _oldBasePath$12126[esp+32], 0
	call	?Set@CCorString@@QAEXPAD@Z		; CCorString::Set

; 105  : 		CPJ_SetBasePath(""); // since the file find uses absolute paths but findproject doesn't

	push	OFFSET FLAT:??_C@_00A@?$AA@		; `string'
	call	?CPJ_SetBasePath@@YAXPBD@Z		; CPJ_SetBasePath

; 106  : 		CCorString spec = oldBasePath + inProjectPath;

	lea	eax, DWORD PTR _oldBasePath$12126[esp+32]
	push	ebx
	lea	ecx, DWORD PTR _spec$12127[esp+36]
	push	eax
	push	ecx
	call	??H@YA?AVCCorString@@ABV0@PBD@Z		; operator+

; 107  : 		NChar* fileName = STR_FileFind(*spec, NULL, NULL);

	mov	eax, DWORD PTR _spec$12127[esp+44]
	add	esp, 16					; 00000010H
	test	eax, eax
	jne	SHORT $L17420
	mov	eax, OFFSET FLAT:??_C@_00A@?$AA@	; `string'
$L17420:
	push	0
	push	0
	push	eax
	call	?STR_FileFind@@YAPADPADPAHPAK@Z		; STR_FileFind
	add	esp, 12					; 0000000cH

; 108  : 		while (fileName)

	test	eax, eax
	je	$L12132
$L12131:

; 109  : 		{
; 110  : 			This->AddFrames(CPJ_FindProject(fileName));

	push	eax
	call	?CPJ_FindProject@@YAPAVOCpjProject@@PBD@Z ; CPJ_FindProject
	mov	esi, eax
	add	esp, 4
	test	esi, esi
	je	SHORT $L17474
	push	0
	push	esi
	lea	ecx, DWORD PTR _it$17471[esp+40]
	call	??0CObjIter@@QAE@PAVOObject@@_N@Z	; CObjIter::CObjIter
	push	0
	push	esi
	lea	ecx, DWORD PTR _it$17471[esp+40]
	call	?Reset@?$TObjIter@VOCpjFrames@@@@QAEXPAVOObject@@_N@Z ; TObjIter<OCpjFrames>::Reset
	lea	ecx, DWORD PTR _it$17471[esp+32]
	call	?GetObject@CObjIter@@IAEPAVOObject@@XZ	; CObjIter::GetObject
	test	eax, eax
	je	SHORT $L17474
	lea	esi, DWORD PTR [ebp+168]
$L17459:
	lea	ecx, DWORD PTR _it$17471[esp+32]
	call	?GetObject@CObjIter@@IAEPAVOObject@@XZ	; CObjIter::GetObject
	push	1
	mov	ecx, esi
	mov	edi, eax
	call	?Add@?$TCorArray@PAVOCpjFrames@@@@QAEKK@Z ; TCorArray<OCpjFrames *>::Add
	mov	edx, DWORD PTR [esi]
	lea	ecx, DWORD PTR _it$17471[esp+32]
	mov	DWORD PTR [edx+eax*4], edi
	mov	eax, DWORD PTR _it$17471[esp+36]
	mov	DWORD PTR _it$17471[esp+32], eax
	call	?GetNext@CObjIter@@IAEXXZ		; CObjIter::GetNext
	lea	ecx, DWORD PTR _it$17471[esp+32]
	call	?AdvanceToType@?$TObjIter@VOCpjFrames@@@@IAEXXZ ; TObjIter<OCpjFrames>::AdvanceToType
	lea	ecx, DWORD PTR _it$17471[esp+32]
	call	?GetObject@CObjIter@@IAEPAVOObject@@XZ	; CObjIter::GetObject
	test	eax, eax
	jne	SHORT $L17459
$L17474:

; 111  : 			fileName = STR_FileFind(NULL, NULL, NULL);

	push	0
	push	0
	push	0
	call	?STR_FileFind@@YAPADPADPAHPAK@Z		; STR_FileFind
	add	esp, 12					; 0000000cH
	test	eax, eax
	jne	$L12131
$L12132:

; 112  : 		}
; 113  : 		CPJ_SetBasePath(*oldBasePath);

	mov	eax, DWORD PTR _oldBasePath$12126[esp+28]
	test	eax, eax
	jne	SHORT $L17484
	mov	eax, OFFSET FLAT:??_C@_00A@?$AA@	; `string'
$L17484:
	push	eax
	call	?CPJ_SetBasePath@@YAXPBD@Z		; CPJ_SetBasePath

; 114  : 	}

	mov	edi, DWORD PTR _spec$12127[esp+32]
	add	esp, 4
	test	edi, edi
	je	SHORT $L17504
	or	ecx, -1
	xor	eax, eax
	repne scasb
	mov	edi, DWORD PTR ?sMemTotal@CCorString@@0KA ; CCorString::sMemTotal
	or	edx, -1
	not	ecx
	dec	ecx
	sub	edx, ecx
	add	edi, edx
	mov	DWORD PTR ?sMemTotal@CCorString@@0KA, edi ; CCorString::sMemTotal
	call	?MEM_GetAlloc@@YAPAVIMemAlloc@@XZ	; MEM_GetAlloc
	mov	ecx, DWORD PTR _spec$12127[esp+28]
	mov	edx, DWORD PTR [eax]
	push	ecx
	mov	ecx, eax
	call	DWORD PTR [edx+8]
$L17504:
	mov	edi, DWORD PTR _oldBasePath$12126[esp+28]
	mov	DWORD PTR _spec$12127[esp+28], 0
	test	edi, edi
	je	SHORT $L17526
	or	ecx, -1
	xor	eax, eax
	repne scasb
	mov	edi, DWORD PTR ?sMemTotal@CCorString@@0KA ; CCorString::sMemTotal
	or	edx, -1
	not	ecx
	dec	ecx
	sub	edx, ecx
	add	edi, edx
	mov	DWORD PTR ?sMemTotal@CCorString@@0KA, edi ; CCorString::sMemTotal
	call	?MEM_GetAlloc@@YAPAVIMemAlloc@@XZ	; MEM_GetAlloc
	mov	ecx, DWORD PTR _oldBasePath$12126[esp+28]
	mov	edx, DWORD PTR [eax]
	push	ecx
	mov	ecx, eax
	call	DWORD PTR [edx+8]
$L17526:
	pop	edi
	pop	esi
	pop	ebp

; 115  : 	return(1);

	mov	al, 1
	pop	ebx

; 116  : }

	add	esp, 16					; 00000010H
	ret	0
_AddFrames_msg_OMacActor ENDP
_TEXT	ENDS
PUBLIC	_AddSequences_msg_OMacActor
PUBLIC	??_C@_0N@JOIN@AddSequences?$AA@			; `string'
;	COMDAT ??_C@_0N@JOIN@AddSequences?$AA@
_DATA	SEGMENT
??_C@_0N@JOIN@AddSequences?$AA@ DB 'AddSequences', 00H	; `string'
; Function compile flags: /Ogty
_DATA	ENDS
;	COMDAT _$E80
_TEXT	SEGMENT
_$E80	PROC NEAR					; COMDAT
	push	OFFSET FLAT:??_C@_01KBOJ@s?$AA@		; `string'
	push	OFFSET FLAT:_AddSequences_msg_OMacActor
	push	OFFSET FLAT:??_C@_0N@JOIN@AddSequences?$AA@ ; `string'
	push	OFFSET FLAT:??_C@_09OANE@OMacActor?$AA@	; `string'
	call	?MSG_RegisterHandlerC@@YA_NPBD0PAX0@Z	; MSG_RegisterHandlerC
	add	esp, 16					; 00000010H
	mov	BYTE PTR ?AddSequences_msg_OMacActor_dummy@@3_NA, al ; AddSequences_msg_OMacActor_dummy
	ret	0
_$E80	ENDP
_TEXT	ENDS
PUBLIC	?AdvanceToType@?$TObjIter@VOCpjSequence@@@@IAEXXZ ; TObjIter<OCpjSequence>::AdvanceToType
PUBLIC	?Reset@?$TObjIter@VOCpjSequence@@@@QAEXPAVOObject@@_N@Z ; TObjIter<OCpjSequence>::Reset
PUBLIC	??0?$TObjIter@VOCpjSequence@@@@QAE@PAVOObject@@_N@Z ; TObjIter<OCpjSequence>::TObjIter<OCpjSequence>
PUBLIC	?AddItem@?$TCorArray@PAVOCpjSequence@@@@QAEKABQAVOCpjSequence@@@Z ; TCorArray<OCpjSequence *>::AddItem
PUBLIC	?Add@?$TCorArray@PAVOCpjSequence@@@@QAEKK@Z	; TCorArray<OCpjSequence *>::Add
; Function compile flags: /Ogty
;	COMDAT _AddSequences_msg_OMacActor
_TEXT	SEGMENT
$T17560 = 8
$T17561 = -16
_it$17580 = -12
$T17585 = 8
_it$17658 = -12
$T17663 = 8
_it$17764 = -12
_This$ = 8
_inProjectPath$ = 16
_oldBasePath$12165 = 8
_spec$12166 = 16
_AddSequences_msg_OMacActor PROC NEAR			; COMDAT

; 118  : {

	sub	esp, 16					; 00000010H
	push	ebx

; 119  : 	if (!stricmp(inProjectPath, "NULL"))

	mov	ebx, DWORD PTR _inProjectPath$[esp+16]
	push	ebp
	mov	ebp, DWORD PTR __imp__stricmp
	push	esi
	push	edi
	push	OFFSET FLAT:??_C@_04BAK@NULL?$AA@	; `string'
	push	ebx
	call	ebp
	add	esp, 8
	test	eax, eax
	jne	SHORT $L12149

; 120  : 	{
; 121  : 		This->AddSequences(This->mLoadProject);

	mov	esi, DWORD PTR _This$[esp+28]
	mov	eax, DWORD PTR [esi+68]
	test	eax, eax
	je	$L17836
	push	0
	push	eax
	lea	ecx, DWORD PTR _it$17580[esp+40]
	call	??0?$TObjIter@VOCpjSequence@@@@QAE@PAVOObject@@_N@Z ; TObjIter<OCpjSequence>::TObjIter<OCpjSequence>
	lea	ecx, DWORD PTR _it$17580[esp+32]
	call	?GetObject@CObjIter@@IAEPAVOObject@@XZ	; CObjIter::GetObject
	test	eax, eax
	je	$L17836
	add	esi, 184				; 000000b8H
$L17589:
	lea	ecx, DWORD PTR _it$17580[esp+32]
	call	?GetObject@CObjIter@@IAEPAVOObject@@XZ	; CObjIter::GetObject
	mov	DWORD PTR $T17585[esp+28], eax
	lea	eax, DWORD PTR $T17585[esp+28]
	push	eax
	mov	ecx, esi
	call	?AddItem@?$TCorArray@PAVOCpjSequence@@@@QAEKABQAVOCpjSequence@@@Z ; TCorArray<OCpjSequence *>::AddItem
	mov	ecx, DWORD PTR _it$17580[esp+36]
	mov	DWORD PTR _it$17580[esp+32], ecx
	lea	ecx, DWORD PTR _it$17580[esp+32]
	call	?GetNext@CObjIter@@IAEXXZ		; CObjIter::GetNext
	lea	ecx, DWORD PTR _it$17580[esp+32]
	call	?AdvanceToType@?$TObjIter@VOCpjSequence@@@@IAEXXZ ; TObjIter<OCpjSequence>::AdvanceToType
	lea	ecx, DWORD PTR _it$17580[esp+32]
	call	?GetObject@CObjIter@@IAEPAVOObject@@XZ	; CObjIter::GetObject
	test	eax, eax
	jne	SHORT $L17589
	pop	edi
	pop	esi
	pop	ebp

; 158  : 	return(1);

	mov	al, 1
	pop	ebx

; 159  : }

	add	esp, 16					; 00000010H
	ret	0
$L12149:

; 122  : 		return(1);
; 123  : 	}
; 124  : 	if (!strchr(inProjectPath, '*'))

	push	42					; 0000002aH
	push	ebx
	call	DWORD PTR __imp__strchr
	add	esp, 8

; 125  : 	{
; 126  : 		for (NDword i=0;i<This->mSequencesFiles.GetCount();i++)

	xor	esi, esi
	test	eax, eax
	jne	$L12150
	mov	edi, DWORD PTR _This$[esp+28]
	mov	eax, DWORD PTR [edi+236]
	test	eax, eax
	jbe	SHORT $L17849
$L12152:
	mov	edx, DWORD PTR [edi+232]
	lea	eax, DWORD PTR [edx+esi*4]

; 127  : 		{
; 128  : 			if (!stricmp(*This->mSequencesFiles[i], inProjectPath))

	mov	eax, DWORD PTR [edx+esi*4]
	test	eax, eax
	jne	SHORT $L17610
	mov	eax, OFFSET FLAT:??_C@_00A@?$AA@	; `string'
$L17610:
	push	ebx
	push	eax
	call	ebp
	add	esp, 8
	test	eax, eax
	je	SHORT $L17849
	mov	eax, DWORD PTR [edi+236]
	inc	esi
	cmp	esi, eax
	jb	SHORT $L12152
$L17849:

; 129  : 				break;
; 130  : 		}
; 131  : 		if (i==This->mSequencesFiles.GetCount())

	cmp	esi, DWORD PTR [edi+236]
	jne	$L17836

; 132  : 		{
; 133  : 			This->mSequencesFiles.AddItem(inProjectPath);

	push	ebx
	lea	ecx, DWORD PTR $T17560[esp+32]
	mov	DWORD PTR $T17560[esp+32], 0
	call	?Set@CCorString@@QAEXPAD@Z		; CCorString::Set
	lea	esi, DWORD PTR [edi+232]
	push	1
	mov	ecx, esi
	call	?Add@?$TCorArray@VCCorString@@@@QAEKK@Z	; TCorArray<CCorString>::Add
	mov	ecx, DWORD PTR $T17560[esp+28]
	mov	edx, DWORD PTR [esi]
	push	ecx
	lea	ecx, DWORD PTR [edx+eax*4]
	call	?Set@CCorString@@QAEXPAD@Z		; CCorString::Set
	push	0
	lea	ecx, DWORD PTR $T17560[esp+32]
	call	?Set@CCorString@@QAEXPAD@Z		; CCorString::Set

; 134  : 			This->AddSequences(CPJ_FindProject(inProjectPath));

	push	ebx
	call	?CPJ_FindProject@@YAPAVOCpjProject@@PBD@Z ; CPJ_FindProject
	add	esp, 4
	test	eax, eax
	je	$L17836
	push	0
	push	eax
	lea	ecx, DWORD PTR _it$17658[esp+40]
	call	??0?$TObjIter@VOCpjSequence@@@@QAE@PAVOObject@@_N@Z ; TObjIter<OCpjSequence>::TObjIter<OCpjSequence>
	lea	ecx, DWORD PTR _it$17658[esp+32]
	call	?GetObject@CObjIter@@IAEPAVOObject@@XZ	; CObjIter::GetObject
	test	eax, eax
	je	$L17836
	lea	esi, DWORD PTR [edi+184]
$L17667:
	lea	ecx, DWORD PTR _it$17658[esp+32]
	call	?GetObject@CObjIter@@IAEPAVOObject@@XZ	; CObjIter::GetObject
	mov	DWORD PTR $T17663[esp+28], eax
	lea	eax, DWORD PTR $T17663[esp+28]
	push	eax
	mov	ecx, esi
	call	?AddItem@?$TCorArray@PAVOCpjSequence@@@@QAEKABQAVOCpjSequence@@@Z ; TCorArray<OCpjSequence *>::AddItem
	mov	ecx, DWORD PTR _it$17658[esp+36]
	mov	DWORD PTR _it$17658[esp+32], ecx
	lea	ecx, DWORD PTR _it$17658[esp+32]
	call	?GetNext@CObjIter@@IAEXXZ		; CObjIter::GetNext
	lea	ecx, DWORD PTR _it$17658[esp+32]
	call	?AdvanceToType@?$TObjIter@VOCpjSequence@@@@IAEXXZ ; TObjIter<OCpjSequence>::AdvanceToType
	lea	ecx, DWORD PTR _it$17658[esp+32]
	call	?GetObject@CObjIter@@IAEPAVOObject@@XZ	; CObjIter::GetObject
	test	eax, eax
	jne	SHORT $L17667
	pop	edi
	pop	esi
	pop	ebp

; 158  : 	return(1);

	mov	al, 1
	pop	ebx

; 159  : }

	add	esp, 16					; 00000010H
	ret	0
$L12150:

; 135  : 		}
; 136  : 		return(1);
; 137  : 	}
; 138  : 
; 139  : 	for (NDword i=0;i<This->mSequencesStarFiles.GetCount();i++)

	mov	ebp, DWORD PTR _This$[esp+28]
	mov	eax, DWORD PTR [ebp+252]
	test	eax, eax
	jbe	SHORT $L17850
$L12159:
	mov	edx, DWORD PTR [ebp+248]
	lea	eax, DWORD PTR [edx+esi*4]

; 140  : 	{
; 141  : 		if (!stricmp(*This->mSequencesStarFiles[i], inProjectPath))

	mov	eax, DWORD PTR [edx+esi*4]
	test	eax, eax
	jne	SHORT $L17688
	mov	eax, OFFSET FLAT:??_C@_00A@?$AA@	; `string'
$L17688:
	push	ebx
	push	eax
	call	DWORD PTR __imp__stricmp
	add	esp, 8
	test	eax, eax
	je	SHORT $L17850
	mov	eax, DWORD PTR [ebp+252]
	inc	esi
	cmp	esi, eax
	jb	SHORT $L12159
$L17850:

; 142  : 			break;
; 143  : 	}
; 144  : 	if (i==This->mSequencesStarFiles.GetCount())

	cmp	esi, DWORD PTR [ebp+252]
	jne	$L17836

; 145  : 	{
; 146  : 		This->mSequencesStarFiles.AddItem(inProjectPath); // record the star path for later

	push	ebx
	lea	ecx, DWORD PTR $T17561[esp+36]
	mov	DWORD PTR $T17561[esp+36], 0
	call	?Set@CCorString@@QAEXPAD@Z		; CCorString::Set
	lea	esi, DWORD PTR [ebp+248]
	push	1
	mov	ecx, esi
	call	?Add@?$TCorArray@VCCorString@@@@QAEKK@Z	; TCorArray<CCorString>::Add
	mov	ecx, DWORD PTR $T17561[esp+32]
	mov	edx, DWORD PTR [esi]
	push	ecx
	lea	ecx, DWORD PTR [edx+eax*4]
	call	?Set@CCorString@@QAEXPAD@Z		; CCorString::Set
	push	0
	lea	ecx, DWORD PTR $T17561[esp+36]
	call	?Set@CCorString@@QAEXPAD@Z		; CCorString::Set

; 147  : 		CCorString oldBasePath = CPJ_GetBasePath();

	call	?CPJ_GetBasePath@@YAPBDXZ		; CPJ_GetBasePath
	push	eax
	lea	ecx, DWORD PTR _oldBasePath$12165[esp+32]
	mov	DWORD PTR _oldBasePath$12165[esp+32], 0
	call	?Set@CCorString@@QAEXPAD@Z		; CCorString::Set

; 148  : 		CPJ_SetBasePath(""); // since the file find uses absolute paths but findproject doesn't

	push	OFFSET FLAT:??_C@_00A@?$AA@		; `string'
	call	?CPJ_SetBasePath@@YAXPBD@Z		; CPJ_SetBasePath

; 149  : 		CCorString spec = oldBasePath + inProjectPath;

	lea	eax, DWORD PTR _oldBasePath$12165[esp+32]
	push	ebx
	lea	ecx, DWORD PTR _spec$12166[esp+36]
	push	eax
	push	ecx
	call	??H@YA?AVCCorString@@ABV0@PBD@Z		; operator+

; 150  : 		NChar* fileName = STR_FileFind(*spec, NULL, NULL);

	mov	eax, DWORD PTR _spec$12166[esp+44]
	add	esp, 16					; 00000010H
	test	eax, eax
	jne	SHORT $L17730
	mov	eax, OFFSET FLAT:??_C@_00A@?$AA@	; `string'
$L17730:
	push	0
	push	0
	push	eax
	call	?STR_FileFind@@YAPADPADPAHPAK@Z		; STR_FileFind
	add	esp, 12					; 0000000cH

; 151  : 		while (fileName)

	test	eax, eax
	je	$L12171
$L12170:

; 152  : 		{
; 153  : 			This->AddSequences(CPJ_FindProject(fileName));

	push	eax
	call	?CPJ_FindProject@@YAPAVOCpjProject@@PBD@Z ; CPJ_FindProject
	mov	esi, eax
	add	esp, 4
	test	esi, esi
	je	SHORT $L17767
	push	0
	push	esi
	lea	ecx, DWORD PTR _it$17764[esp+40]
	call	??0CObjIter@@QAE@PAVOObject@@_N@Z	; CObjIter::CObjIter
	push	0
	push	esi
	lea	ecx, DWORD PTR _it$17764[esp+40]
	call	?Reset@?$TObjIter@VOCpjSequence@@@@QAEXPAVOObject@@_N@Z ; TObjIter<OCpjSequence>::Reset
	lea	ecx, DWORD PTR _it$17764[esp+32]
	call	?GetObject@CObjIter@@IAEPAVOObject@@XZ	; CObjIter::GetObject
	test	eax, eax
	je	SHORT $L17767
	lea	esi, DWORD PTR [ebp+184]
$L17772:
	lea	ecx, DWORD PTR _it$17764[esp+32]
	call	?GetObject@CObjIter@@IAEPAVOObject@@XZ	; CObjIter::GetObject
	push	1
	mov	ecx, esi
	mov	edi, eax
	call	?Add@?$TCorArray@PAVOCpjSequence@@@@QAEKK@Z ; TCorArray<OCpjSequence *>::Add
	mov	edx, DWORD PTR [esi]
	lea	ecx, DWORD PTR _it$17764[esp+32]
	mov	DWORD PTR [edx+eax*4], edi
	mov	eax, DWORD PTR _it$17764[esp+36]
	mov	DWORD PTR _it$17764[esp+32], eax
	call	?GetNext@CObjIter@@IAEXXZ		; CObjIter::GetNext
	lea	ecx, DWORD PTR _it$17764[esp+32]
	call	?AdvanceToType@?$TObjIter@VOCpjSequence@@@@IAEXXZ ; TObjIter<OCpjSequence>::AdvanceToType
	lea	ecx, DWORD PTR _it$17764[esp+32]
	call	?GetObject@CObjIter@@IAEPAVOObject@@XZ	; CObjIter::GetObject
	test	eax, eax
	jne	SHORT $L17772
$L17767:

; 154  : 			fileName = STR_FileFind(NULL, NULL, NULL);

	push	0
	push	0
	push	0
	call	?STR_FileFind@@YAPADPADPAHPAK@Z		; STR_FileFind
	add	esp, 12					; 0000000cH
	test	eax, eax
	jne	$L12170
$L12171:

; 155  : 		}
; 156  : 		CPJ_SetBasePath(*oldBasePath);

	mov	eax, DWORD PTR _oldBasePath$12165[esp+28]
	test	eax, eax
	jne	SHORT $L17794
	mov	eax, OFFSET FLAT:??_C@_00A@?$AA@	; `string'
$L17794:
	push	eax
	call	?CPJ_SetBasePath@@YAXPBD@Z		; CPJ_SetBasePath

; 157  : 	}

	mov	edi, DWORD PTR _spec$12166[esp+32]
	add	esp, 4
	test	edi, edi
	je	SHORT $L17814
	or	ecx, -1
	xor	eax, eax
	repne scasb
	mov	edi, DWORD PTR ?sMemTotal@CCorString@@0KA ; CCorString::sMemTotal
	or	edx, -1
	not	ecx
	dec	ecx
	sub	edx, ecx
	add	edi, edx
	mov	DWORD PTR ?sMemTotal@CCorString@@0KA, edi ; CCorString::sMemTotal
	call	?MEM_GetAlloc@@YAPAVIMemAlloc@@XZ	; MEM_GetAlloc
	mov	ecx, DWORD PTR _spec$12166[esp+28]
	mov	edx, DWORD PTR [eax]
	push	ecx
	mov	ecx, eax
	call	DWORD PTR [edx+8]
$L17814:
	mov	edi, DWORD PTR _oldBasePath$12165[esp+28]
	mov	DWORD PTR _spec$12166[esp+28], 0
	test	edi, edi
	je	SHORT $L17836
	or	ecx, -1
	xor	eax, eax
	repne scasb
	mov	edi, DWORD PTR ?sMemTotal@CCorString@@0KA ; CCorString::sMemTotal
	or	edx, -1
	not	ecx
	dec	ecx
	sub	edx, ecx
	add	edi, edx
	mov	DWORD PTR ?sMemTotal@CCorString@@0KA, edi ; CCorString::sMemTotal
	call	?MEM_GetAlloc@@YAPAVIMemAlloc@@XZ	; MEM_GetAlloc
	mov	ecx, DWORD PTR _oldBasePath$12165[esp+28]
	mov	edx, DWORD PTR [eax]
	push	ecx
	mov	ecx, eax
	call	DWORD PTR [edx+8]
$L17836:
	pop	edi
	pop	esi
	pop	ebp

; 158  : 	return(1);

	mov	al, 1
	pop	ebx

; 159  : }

	add	esp, 16					; 00000010H
	ret	0
_AddSequences_msg_OMacActor ENDP
_TEXT	ENDS
PUBLIC	?Tick@OMacActor@@SAXXZ				; OMacActor::Tick
; Function compile flags: /Ogty
;	COMDAT ?Tick@OMacActor@@SAXXZ
_TEXT	SEGMENT
?Tick@OMacActor@@SAXXZ PROC NEAR			; OMacActor::Tick, COMDAT

; 171  : 	Evaluations = 0;
; 172  : 	FrameCount++;

	mov	eax, DWORD PTR ?FrameCount@OMacActor@@2KA ; OMacActor::FrameCount
	mov	DWORD PTR ?Evaluations@OMacActor@@2KA, 0 ; OMacActor::Evaluations
	inc	eax
	mov	DWORD PTR ?FrameCount@OMacActor@@2KA, eax ; OMacActor::FrameCount

; 173  : }

	ret	0
?Tick@OMacActor@@SAXXZ ENDP				; OMacActor::Tick
_TEXT	ENDS
PUBLIC	?ValidateAbs@CMacBone@@IAEX_N@Z			; CMacBone::ValidateAbs
; Function compile flags: /Ogty
;	COMDAT ?ValidateAbs@CMacBone@@IAEX_N@Z
_TEXT	SEGMENT
$T18324 = -12
$T18325 = -24
$T18334 = -60
$T18348 = -36
$T18349 = -48
$T18350 = -60
_inMakeValid$ = 8
?ValidateAbs@CMacBone@@IAEX_N@Z PROC NEAR		; CMacBone::ValidateAbs, COMDAT
; _this$ = ecx

; 180  : 	if (inMakeValid)

	mov	al, BYTE PTR _inMakeValid$[esp-4]
	sub	esp, 60					; 0000003cH
	test	al, al
	push	esi
	mov	esi, ecx

; 181  : 	{
; 182  : 		// validate a bone's absolute state, including its ancestors
; 183  : 		if (mAbsValid)

	mov	al, BYTE PTR [esi+120]
	je	$L12178
	test	al, al
	jne	$L12187

; 184  : 			return;
; 185  : 		if (mParent)

	mov	ecx, DWORD PTR [esi+128]
	test	ecx, ecx
	je	SHORT $L12180

; 186  : 			mParent->ValidateAbs(true);

	push	1
	call	?ValidateAbs@CMacBone@@IAEX_N@Z		; CMacBone::ValidateAbs
$L12180:

; 187  : 		mAbsCoords = mRelCoords;

	mov	eax, DWORD PTR [esi]
	mov	DWORD PTR [esi+60], eax
	mov	ecx, DWORD PTR [esi+4]
	mov	DWORD PTR [esi+64], ecx
	mov	edx, DWORD PTR [esi+8]
	mov	DWORD PTR [esi+68], edx
	mov	eax, DWORD PTR [esi+12]
	mov	DWORD PTR [esi+72], eax
	mov	ecx, DWORD PTR [esi+16]
	mov	DWORD PTR [esi+76], ecx
	mov	edx, DWORD PTR [esi+20]
	mov	DWORD PTR [esi+80], edx
	mov	eax, DWORD PTR [esi+24]
	mov	DWORD PTR [esi+84], eax
	mov	ecx, DWORD PTR [esi+28]
	mov	DWORD PTR [esi+88], ecx
	mov	edx, DWORD PTR [esi+32]
	mov	DWORD PTR [esi+92], edx
	mov	eax, DWORD PTR [esi+36]
	mov	DWORD PTR [esi+96], eax
	mov	ecx, DWORD PTR [esi+40]
	mov	DWORD PTR [esi+100], ecx
	mov	edx, DWORD PTR [esi+44]
	mov	DWORD PTR [esi+104], edx
	mov	eax, DWORD PTR [esi+48]
	mov	DWORD PTR [esi+108], eax
	mov	ecx, DWORD PTR [esi+52]
	mov	DWORD PTR [esi+112], ecx
	mov	edx, DWORD PTR [esi+56]
	mov	DWORD PTR [esi+116], edx

; 188  : 		if (mParent)

	mov	eax, DWORD PTR [esi+128]
	test	eax, eax
	je	$L18319

; 189  : 			mAbsCoords <<= mParent->mAbsCoords;

	fld	DWORD PTR [esi+108]
	fmul	DWORD PTR [eax+108]
	fld	DWORD PTR [esi+112]
	fmul	DWORD PTR [eax+112]
	fld	DWORD PTR [esi+116]
	fmul	DWORD PTR [eax+116]
	fstp	DWORD PTR $T18324[esp+72]
	fld	DWORD PTR [esi+96]
	fmul	DWORD PTR [eax+108]
	fld	DWORD PTR [eax+112]
	fmul	DWORD PTR [esi+100]
	fld	DWORD PTR [eax+116]
	fmul	DWORD PTR [esi+104]
	fld	ST(2)
	fmul	DWORD PTR [eax+60]
	fld	ST(1)
	fmul	DWORD PTR [eax+84]

; 198  : 		for (CMacBone* b = mFirstChild; b; b = b->mNextSibling)

	faddp	ST(1), ST(0)
	fld	ST(2)
	fmul	DWORD PTR [eax+72]
	faddp	ST(1), ST(0)
	fstp	DWORD PTR $T18334[esp+64]
	fld	ST(2)
	fmul	DWORD PTR [eax+64]
	fld	ST(1)
	fmul	DWORD PTR [eax+88]
	faddp	ST(1), ST(0)
	fld	ST(2)
	fmul	DWORD PTR [eax+76]
	faddp	ST(1), ST(0)
	fstp	DWORD PTR $T18334[esp+68]
	fxch	ST(2)
	fmul	DWORD PTR [eax+68]
	fxch	ST(2)
	fmul	DWORD PTR [eax+92]
	faddp	ST(2), ST(0)
	fmul	DWORD PTR [eax+80]
	faddp	ST(1), ST(0)
	fstp	DWORD PTR $T18334[esp+72]
	fld	DWORD PTR $T18334[esp+64]
	fadd	DWORD PTR [eax+96]
	fld	DWORD PTR $T18334[esp+68]
	fadd	DWORD PTR [eax+100]
	fld	DWORD PTR $T18334[esp+72]
	fadd	DWORD PTR [eax+104]
	fstp	DWORD PTR $T18325[esp+72]
	fld	DWORD PTR [eax+84]
	fmul	DWORD PTR [esi+92]
	fld	DWORD PTR [eax+72]
	fmul	DWORD PTR [esi+88]
	faddp	ST(1), ST(0)
	fld	DWORD PTR [eax+60]
	fmul	DWORD PTR [esi+84]
	faddp	ST(1), ST(0)
	fld	DWORD PTR [eax+64]
	fmul	DWORD PTR [esi+84]
	fld	DWORD PTR [esi+92]
	fmul	DWORD PTR [eax+88]
	faddp	ST(1), ST(0)
	fld	DWORD PTR [esi+88]
	fmul	DWORD PTR [eax+76]
	faddp	ST(1), ST(0)
	fld	DWORD PTR [eax+68]
	fmul	DWORD PTR [esi+84]
	fld	DWORD PTR [esi+92]
	fmul	DWORD PTR [eax+92]
	faddp	ST(1), ST(0)
	fld	DWORD PTR [esi+88]
	fmul	DWORD PTR [eax+80]
	faddp	ST(1), ST(0)
	fstp	DWORD PTR $T18348[esp+72]
	fld	DWORD PTR [eax+84]
	fmul	DWORD PTR [esi+80]
	fld	DWORD PTR [eax+72]
	fmul	DWORD PTR [esi+76]
	faddp	ST(1), ST(0)
	fld	DWORD PTR [eax+60]
	fmul	DWORD PTR [esi+72]
	faddp	ST(1), ST(0)
	fstp	DWORD PTR $T18349[esp+64]
	fld	DWORD PTR [eax+88]
	fmul	DWORD PTR [esi+80]
	fld	DWORD PTR [eax+76]
	fmul	DWORD PTR [esi+76]
	faddp	ST(1), ST(0)
	fld	DWORD PTR [eax+64]
	fmul	DWORD PTR [esi+72]
	faddp	ST(1), ST(0)
	fstp	DWORD PTR $T18349[esp+68]
	fld	DWORD PTR [eax+92]
	fmul	DWORD PTR [esi+80]
	fld	DWORD PTR [eax+80]
	fmul	DWORD PTR [esi+76]
	faddp	ST(1), ST(0)
	fld	DWORD PTR [eax+68]
	fmul	DWORD PTR [esi+72]
	faddp	ST(1), ST(0)
	fstp	DWORD PTR $T18349[esp+72]
	fld	DWORD PTR [eax+84]
	fmul	DWORD PTR [esi+68]
	fld	DWORD PTR [eax+72]
	fmul	DWORD PTR [esi+64]
	faddp	ST(1), ST(0)
	fld	DWORD PTR [eax+60]
	fmul	DWORD PTR [esi+60]
	faddp	ST(1), ST(0)
	fstp	DWORD PTR $T18350[esp+64]
	fld	DWORD PTR [eax+88]
	fmul	DWORD PTR [esi+68]
	fld	DWORD PTR [eax+76]
	fmul	DWORD PTR [esi+64]
	faddp	ST(1), ST(0)
	fld	DWORD PTR [eax+64]
	fmul	DWORD PTR [esi+60]
	faddp	ST(1), ST(0)
	fstp	DWORD PTR $T18350[esp+68]
	fld	DWORD PTR [eax+92]
	fmul	DWORD PTR [esi+68]
	fld	DWORD PTR [eax+80]
	fmul	DWORD PTR [esi+64]
	mov	ecx, DWORD PTR $T18350[esp+68]
	faddp	ST(1), ST(0)
	fld	DWORD PTR [eax+68]
	fmul	DWORD PTR [esi+60]
	mov	eax, DWORD PTR $T18350[esp+64]
	mov	DWORD PTR [esi+64], ecx
	mov	DWORD PTR [esi+60], eax
	faddp	ST(1), ST(0)
	fstp	DWORD PTR $T18350[esp+72]
	mov	edx, DWORD PTR $T18350[esp+72]
	mov	eax, DWORD PTR $T18349[esp+64]
	mov	ecx, DWORD PTR $T18349[esp+68]
	mov	DWORD PTR [esi+68], edx
	mov	edx, DWORD PTR $T18349[esp+72]
	mov	DWORD PTR [esi+72], eax
	mov	eax, DWORD PTR $T18348[esp+72]
	mov	DWORD PTR [esi+76], ecx
	fxch	ST(1)
	mov	DWORD PTR [esi+80], edx
	fstp	DWORD PTR [esi+84]
	mov	ecx, DWORD PTR $T18325[esp+72]
	mov	DWORD PTR [esi+92], eax
	fstp	DWORD PTR [esi+88]
	fxch	ST(1)
	fstp	DWORD PTR [esi+96]
	mov	edx, DWORD PTR $T18324[esp+72]
	mov	DWORD PTR [esi+104], ecx
	fstp	DWORD PTR [esi+100]
	fxch	ST(1)
	fstp	DWORD PTR [esi+108]
	mov	DWORD PTR [esi+116], edx
	fstp	DWORD PTR [esi+112]
$L18319:

; 190  : 		mAbsValid = 1;

	mov	BYTE PTR [esi+120], 1
	pop	esi

; 200  : 	}
; 201  : }

	add	esp, 60					; 0000003cH
	ret	4
$L12178:

; 191  : 	}
; 192  : 	else
; 193  : 	{
; 194  : 		// invalidate a bone's absolute state, including its children
; 195  : 		if (!mAbsValid)

	test	al, al
	je	SHORT $L12187

; 196  : 			return;
; 197  : 		mAbsValid = 0;

	mov	BYTE PTR [esi+120], 0

; 198  : 		for (CMacBone* b = mFirstChild; b; b = b->mNextSibling)

	mov	esi, DWORD PTR [esi+132]
	test	esi, esi
	je	SHORT $L12187
$L12185:

; 199  : 			b->ValidateAbs(false);

	push	0
	mov	ecx, esi
	call	?ValidateAbs@CMacBone@@IAEX_N@Z		; CMacBone::ValidateAbs
	mov	esi, DWORD PTR [esi+136]
	test	esi, esi
	jne	SHORT $L12185
$L12187:
	pop	esi

; 200  : 	}
; 201  : }

	add	esp, 60					; 0000003cH
	ret	4
?ValidateAbs@CMacBone@@IAEX_N@Z ENDP			; CMacBone::ValidateAbs
_TEXT	ENDS
PUBLIC	?GetCoords@CMacBone@@QAE?AVVCoords3@@_N@Z	; CMacBone::GetCoords
; Function compile flags: /Ogty
;	COMDAT ?GetCoords@CMacBone@@QAE?AVVCoords3@@_N@Z
_TEXT	SEGMENT
_inAbsolute$ = 12
___$ReturnUdt$ = 8
?GetCoords@CMacBone@@QAE?AVVCoords3@@_N@Z PROC NEAR	; CMacBone::GetCoords, COMDAT
; _this$ = ecx

; 205  : 	if (inAbsolute)

	mov	al, BYTE PTR _inAbsolute$[esp-4]
	push	ebx
	xor	ebx, ebx
	push	esi
	cmp	al, bl
	mov	esi, ecx
	je	$L12193

; 206  : 	{
; 207  : 		ValidateAbs(true);

	push	1
	call	?ValidateAbs@CMacBone@@IAEX_N@Z		; CMacBone::ValidateAbs

; 208  : 		return(mAbsCoords);

	mov	eax, DWORD PTR ___$ReturnUdt$[esp+4]
	mov	ecx, 1065353216				; 3f800000H
	mov	DWORD PTR [eax], ecx
	mov	DWORD PTR [eax+4], ebx
	mov	DWORD PTR [eax+8], ebx
	mov	DWORD PTR [eax+12], ebx
	mov	DWORD PTR [eax+16], ecx
	mov	DWORD PTR [eax+20], ebx
	mov	DWORD PTR [eax+24], ebx
	mov	DWORD PTR [eax+28], ebx
	mov	DWORD PTR [eax+32], ecx
	mov	ecx, DWORD PTR [esi+60]
	mov	DWORD PTR [eax], ecx
	mov	edx, DWORD PTR [esi+64]
	mov	DWORD PTR [eax+4], edx
	mov	ecx, DWORD PTR [esi+68]
	mov	DWORD PTR [eax+8], ecx
	mov	edx, DWORD PTR [esi+72]
	mov	DWORD PTR [eax+12], edx
	mov	ecx, DWORD PTR [esi+76]
	mov	DWORD PTR [eax+16], ecx
	mov	edx, DWORD PTR [esi+80]
	mov	DWORD PTR [eax+20], edx
	mov	ecx, DWORD PTR [esi+84]
	mov	DWORD PTR [eax+24], ecx
	mov	edx, DWORD PTR [esi+88]
	mov	DWORD PTR [eax+28], edx
	mov	ecx, DWORD PTR [esi+92]
	mov	DWORD PTR [eax+32], ecx
	mov	edx, DWORD PTR [esi+96]
	mov	DWORD PTR [eax+36], edx
	mov	ecx, DWORD PTR [esi+100]
	mov	DWORD PTR [eax+40], ecx
	mov	edx, DWORD PTR [esi+104]
	mov	DWORD PTR [eax+44], edx
	mov	ecx, DWORD PTR [esi+108]
	mov	DWORD PTR [eax+48], ecx
	mov	edx, DWORD PTR [esi+112]
	mov	DWORD PTR [eax+52], edx
	mov	ecx, DWORD PTR [esi+116]
	pop	esi
	mov	DWORD PTR [eax+56], ecx
	pop	ebx

; 211  : }

	ret	8
$L12193:

; 209  : 	}
; 210  : 	return(mRelCoords);

	mov	eax, DWORD PTR ___$ReturnUdt$[esp+4]
	mov	ecx, 1065353216				; 3f800000H
	mov	DWORD PTR [eax], ecx
	mov	DWORD PTR [eax+4], ebx
	mov	DWORD PTR [eax+8], ebx
	mov	DWORD PTR [eax+12], ebx
	mov	DWORD PTR [eax+16], ecx
	mov	DWORD PTR [eax+20], ebx
	mov	DWORD PTR [eax+24], ebx
	mov	DWORD PTR [eax+28], ebx
	mov	DWORD PTR [eax+32], ecx
	mov	edx, DWORD PTR [esi]
	mov	DWORD PTR [eax], edx
	mov	ecx, DWORD PTR [esi+4]
	mov	DWORD PTR [eax+4], ecx
	mov	edx, DWORD PTR [esi+8]
	mov	DWORD PTR [eax+8], edx
	mov	ecx, DWORD PTR [esi+12]
	mov	DWORD PTR [eax+12], ecx
	mov	edx, DWORD PTR [esi+16]
	mov	DWORD PTR [eax+16], edx
	mov	ecx, DWORD PTR [esi+20]
	mov	DWORD PTR [eax+20], ecx
	mov	edx, DWORD PTR [esi+24]
	mov	DWORD PTR [eax+24], edx
	mov	ecx, DWORD PTR [esi+28]
	mov	DWORD PTR [eax+28], ecx
	mov	edx, DWORD PTR [esi+32]
	mov	DWORD PTR [eax+32], edx
	mov	ecx, DWORD PTR [esi+36]
	mov	DWORD PTR [eax+36], ecx
	mov	edx, DWORD PTR [esi+40]
	mov	DWORD PTR [eax+40], edx
	mov	ecx, DWORD PTR [esi+44]
	mov	DWORD PTR [eax+44], ecx
	mov	edx, DWORD PTR [esi+48]
	mov	DWORD PTR [eax+48], edx
	mov	ecx, DWORD PTR [esi+52]
	mov	DWORD PTR [eax+52], ecx
	mov	edx, DWORD PTR [esi+56]
	pop	esi
	mov	DWORD PTR [eax+56], edx
	pop	ebx

; 211  : }

	ret	8
?GetCoords@CMacBone@@QAE?AVVCoords3@@_N@Z ENDP		; CMacBone::GetCoords
_TEXT	ENDS
PUBLIC	??6@YA?AVVVec3@@ABV0@ABVVCoords3@@@Z		; operator<<
PUBLIC	__real@3f800000
PUBLIC	?SetCoords@CMacBone@@QAEXABVVCoords3@@_N@Z	; CMacBone::SetCoords
PUBLIC	??0VCoords3@@QAE@ABVVAxes3@@ABVVVec3@@1@Z	; VCoords3::VCoords3
;	COMDAT __real@3f800000
; File C:\duke4\Cannibal\VecMain.h
CONST	SEGMENT
__real@3f800000 DD 03f800000r			; 1
; Function compile flags: /Ogty
; File C:\duke4\Cannibal\MacMain.cpp
CONST	ENDS
;	COMDAT ?SetCoords@CMacBone@@QAEXABVVCoords3@@_N@Z
_TEXT	SEGMENT
_inCoords$ = 8
_inAbsolute$ = 12
_elderCoords$12200 = -228
$T18842 = -72
$T18845 = -156
$T18846 = -12
$T18847 = -108
$T18853 = -120
$T18854 = -132
$T18855 = -168
$T19251 = -12
$T19252 = -132
$T19261 = -168
$T19281 = -120
$T19282 = -156
$T19283 = -168
?SetCoords@CMacBone@@QAEXABVVCoords3@@_N@Z PROC NEAR	; CMacBone::SetCoords, COMDAT
; _this$ = ecx

; 214  : 	if (inAbsolute)

	mov	al, BYTE PTR _inAbsolute$[esp-4]
	sub	esp, 228				; 000000e4H
	test	al, al
	push	esi
	mov	esi, ecx
	je	$L12199
	push	edi

; 215  : 	{
; 216  : 		VCoords3 elderCoords;
; 217  : 		// Get relative by backward transforming up the parent tree
; 218  : 		for (CMacBone* b = mParent; b; b = b->mParent)

	mov	edi, DWORD PTR [esi+128]
	test	edi, edi
	mov	DWORD PTR _elderCoords$12200[esp+236], 1065353216 ; 3f800000H
	mov	DWORD PTR _elderCoords$12200[esp+240], 0
	mov	DWORD PTR _elderCoords$12200[esp+244], 0
	mov	DWORD PTR _elderCoords$12200[esp+248], 0
	mov	DWORD PTR _elderCoords$12200[esp+252], 1065353216 ; 3f800000H
	mov	DWORD PTR _elderCoords$12200[esp+256], 0
	mov	DWORD PTR _elderCoords$12200[esp+260], 0
	mov	DWORD PTR _elderCoords$12200[esp+264], 0
	mov	DWORD PTR _elderCoords$12200[esp+268], 1065353216 ; 3f800000H
	mov	DWORD PTR _elderCoords$12200[esp+272], 0
	mov	DWORD PTR _elderCoords$12200[esp+276], 0
	mov	DWORD PTR _elderCoords$12200[esp+280], 0
	mov	DWORD PTR _elderCoords$12200[esp+284], 1065353216 ; 3f800000H
	mov	DWORD PTR _elderCoords$12200[esp+288], 1065353216 ; 3f800000H
	mov	DWORD PTR _elderCoords$12200[esp+292], 1065353216 ; 3f800000H
	je	$L12204
$L12202:

; 219  : 			elderCoords <<= b->mRelCoords;

	fld	DWORD PTR _elderCoords$12200[esp+284]
	fmul	DWORD PTR [edi+48]
	fstp	DWORD PTR $T18845[esp+236]
	fld	DWORD PTR _elderCoords$12200[esp+288]
	fmul	DWORD PTR [edi+52]
	fstp	DWORD PTR $T18845[esp+240]
	fld	DWORD PTR _elderCoords$12200[esp+292]
	fmul	DWORD PTR [edi+56]
	fstp	DWORD PTR $T18845[esp+244]
	fld	DWORD PTR _elderCoords$12200[esp+264]
	fmul	DWORD PTR [edi+12]
	fld	DWORD PTR _elderCoords$12200[esp+268]
	fmul	DWORD PTR [edi+24]

; 231  : 		// Invalidate absolute from here down
; 232  : 		ValidateAbs(false);

	faddp	ST(1), ST(0)
	fld	DWORD PTR _elderCoords$12200[esp+260]
	fmul	DWORD PTR [edi]
	faddp	ST(1), ST(0)
	fld	DWORD PTR _elderCoords$12200[esp+260]
	fmul	DWORD PTR [edi+4]
	fld	DWORD PTR _elderCoords$12200[esp+268]
	fmul	DWORD PTR [edi+28]
	faddp	ST(1), ST(0)
	fld	DWORD PTR _elderCoords$12200[esp+264]
	fmul	DWORD PTR [edi+16]
	faddp	ST(1), ST(0)
	fld	DWORD PTR _elderCoords$12200[esp+260]
	fmul	DWORD PTR [edi+8]
	fld	DWORD PTR _elderCoords$12200[esp+268]
	fmul	DWORD PTR [edi+32]
	faddp	ST(1), ST(0)
	fld	DWORD PTR _elderCoords$12200[esp+264]
	fmul	DWORD PTR [edi+20]
	faddp	ST(1), ST(0)
	fstp	DWORD PTR $T18853[esp+244]
	fld	DWORD PTR _elderCoords$12200[esp+248]
	fmul	DWORD PTR [edi]
	fld	DWORD PTR _elderCoords$12200[esp+256]
	fmul	DWORD PTR [edi+24]
	faddp	ST(1), ST(0)
	fld	DWORD PTR _elderCoords$12200[esp+252]
	fmul	DWORD PTR [edi+12]
	faddp	ST(1), ST(0)
	fld	DWORD PTR _elderCoords$12200[esp+252]
	fmul	DWORD PTR [edi+16]
	fld	DWORD PTR _elderCoords$12200[esp+256]
	fmul	DWORD PTR [edi+28]
	faddp	ST(1), ST(0)
	fld	DWORD PTR _elderCoords$12200[esp+248]
	fmul	DWORD PTR [edi+4]
	faddp	ST(1), ST(0)
	fld	DWORD PTR _elderCoords$12200[esp+252]
	fmul	DWORD PTR [edi+20]
	fld	DWORD PTR _elderCoords$12200[esp+256]
	fmul	DWORD PTR [edi+32]
	faddp	ST(1), ST(0)
	fld	DWORD PTR _elderCoords$12200[esp+248]
	fmul	DWORD PTR [edi+8]
	faddp	ST(1), ST(0)
	fstp	DWORD PTR $T18854[esp+244]
	fld	DWORD PTR _elderCoords$12200[esp+236]
	fmul	DWORD PTR [edi]
	fld	DWORD PTR _elderCoords$12200[esp+244]
	fmul	DWORD PTR [edi+24]
	faddp	ST(1), ST(0)
	fld	DWORD PTR _elderCoords$12200[esp+240]
	fmul	DWORD PTR [edi+12]
	faddp	ST(1), ST(0)
	mov	ecx, DWORD PTR $T18854[esp+244]
	mov	edx, DWORD PTR $T18853[esp+244]
	mov	DWORD PTR $T18847[esp+256], ecx
	mov	DWORD PTR $T18847[esp+268], edx
	fld	DWORD PTR _elderCoords$12200[esp+244]
	fmul	DWORD PTR [edi+28]
	fld	DWORD PTR _elderCoords$12200[esp+240]
	fmul	DWORD PTR [edi+16]
	lea	ecx, DWORD PTR _elderCoords$12200[esp+272]
	lea	edx, DWORD PTR $T18846[esp+236]
	faddp	ST(1), ST(0)
	fld	DWORD PTR _elderCoords$12200[esp+236]
	fmul	DWORD PTR [edi+4]
	faddp	ST(1), ST(0)
	fld	DWORD PTR _elderCoords$12200[esp+244]
	fmul	DWORD PTR [edi+32]
	fld	DWORD PTR _elderCoords$12200[esp+240]
	fmul	DWORD PTR [edi+20]
	faddp	ST(1), ST(0)
	fld	DWORD PTR _elderCoords$12200[esp+236]
	fmul	DWORD PTR [edi+8]
	faddp	ST(1), ST(0)
	fstp	DWORD PTR $T18855[esp+244]
	fxch	ST(1)
	fstp	DWORD PTR $T18847[esp+236]
	mov	eax, DWORD PTR $T18855[esp+244]
	fstp	DWORD PTR $T18847[esp+240]
	fxch	ST(1)
	fstp	DWORD PTR $T18847[esp+248]
	mov	DWORD PTR $T18847[esp+244], eax
	lea	eax, DWORD PTR $T18845[esp+236]
	fstp	DWORD PTR $T18847[esp+252]
	fxch	ST(1)
	fstp	DWORD PTR $T18847[esp+260]
	push	eax
	push	edi
	fstp	DWORD PTR $T18847[esp+272]
	push	ecx
	push	edx
	call	??6@YA?AVVVec3@@ABV0@ABVVCoords3@@@Z	; operator<<
	add	esp, 12					; 0000000cH
	lea	ecx, DWORD PTR $T18842[esp+240]
	push	eax
	lea	eax, DWORD PTR $T18847[esp+244]
	push	eax
	call	??0VCoords3@@QAE@ABVVAxes3@@ABVVVec3@@1@Z ; VCoords3::VCoords3
	mov	ecx, DWORD PTR $T18842[esp+236]
	mov	edx, DWORD PTR $T18842[esp+240]
	mov	eax, DWORD PTR $T18842[esp+244]
	mov	DWORD PTR _elderCoords$12200[esp+236], ecx
	mov	ecx, DWORD PTR $T18842[esp+248]
	mov	DWORD PTR _elderCoords$12200[esp+240], edx
	mov	edx, DWORD PTR $T18842[esp+252]
	mov	DWORD PTR _elderCoords$12200[esp+244], eax
	mov	eax, DWORD PTR $T18842[esp+256]
	mov	DWORD PTR _elderCoords$12200[esp+248], ecx
	mov	ecx, DWORD PTR $T18842[esp+260]
	mov	DWORD PTR _elderCoords$12200[esp+252], edx
	mov	edx, DWORD PTR $T18842[esp+264]
	mov	DWORD PTR _elderCoords$12200[esp+256], eax
	mov	eax, DWORD PTR $T18842[esp+268]
	mov	DWORD PTR _elderCoords$12200[esp+260], ecx
	mov	ecx, DWORD PTR $T18842[esp+272]
	mov	DWORD PTR _elderCoords$12200[esp+264], edx
	mov	edx, DWORD PTR $T18842[esp+276]
	mov	DWORD PTR _elderCoords$12200[esp+268], eax
	mov	eax, DWORD PTR $T18842[esp+280]
	mov	DWORD PTR _elderCoords$12200[esp+272], ecx
	mov	ecx, DWORD PTR $T18842[esp+284]
	mov	DWORD PTR _elderCoords$12200[esp+276], edx
	mov	edx, DWORD PTR $T18842[esp+288]
	mov	DWORD PTR _elderCoords$12200[esp+280], eax
	mov	DWORD PTR _elderCoords$12200[esp+284], ecx
	mov	DWORD PTR _elderCoords$12200[esp+288], edx
	mov	eax, DWORD PTR $T18842[esp+292]
	mov	DWORD PTR _elderCoords$12200[esp+292], eax
	mov	edi, DWORD PTR [edi+128]
	test	edi, edi
	jne	$L12202
$L12204:

; 220  : 		mRelCoords = inCoords >> elderCoords;

	fld	DWORD PTR __real@3f800000
	fdiv	DWORD PTR _elderCoords$12200[esp+284]
	mov	eax, DWORD PTR _inCoords$[esp+232]
	fst	DWORD PTR -136+[esp+236]
	fmul	DWORD PTR [eax+48]
	fld	DWORD PTR __real@3f800000
	fdiv	DWORD PTR _elderCoords$12200[esp+288]
	fst	DWORD PTR -140+[esp+236]
	fmul	DWORD PTR [eax+52]
	fld	DWORD PTR __real@3f800000
	fdiv	DWORD PTR _elderCoords$12200[esp+292]
	fst	DWORD PTR -144+[esp+236]
	fmul	DWORD PTR [eax+56]
	fstp	DWORD PTR $T19251[esp+244]
	fld	DWORD PTR [eax+36]
	fsub	DWORD PTR _elderCoords$12200[esp+272]
	fld	DWORD PTR [eax+40]
	fsub	DWORD PTR _elderCoords$12200[esp+276]
	fld	DWORD PTR [eax+44]
	fsub	DWORD PTR _elderCoords$12200[esp+280]
	fld	ST(2)
	fmul	DWORD PTR _elderCoords$12200[esp+236]
	fld	DWORD PTR _elderCoords$12200[esp+244]
	fmul	ST(0), ST(2)

; 231  : 		// Invalidate absolute from here down
; 232  : 		ValidateAbs(false);

	faddp	ST(1), ST(0)
	fld	DWORD PTR _elderCoords$12200[esp+240]
	fmul	ST(0), ST(3)
	faddp	ST(1), ST(0)
	fstp	DWORD PTR $T19261[esp+236]
	fld	DWORD PTR _elderCoords$12200[esp+248]
	fmul	ST(0), ST(3)
	fld	DWORD PTR _elderCoords$12200[esp+256]
	fmul	ST(0), ST(2)
	faddp	ST(1), ST(0)
	fld	DWORD PTR _elderCoords$12200[esp+252]
	fmul	ST(0), ST(3)
	faddp	ST(1), ST(0)
	fstp	DWORD PTR $T19261[esp+240]
	fld	DWORD PTR _elderCoords$12200[esp+268]
	fmul	ST(0), ST(1)
	fld	DWORD PTR _elderCoords$12200[esp+264]
	fmul	ST(0), ST(3)
	faddp	ST(1), ST(0)
	fld	DWORD PTR _elderCoords$12200[esp+260]
	fmul	ST(0), ST(4)
	faddp	ST(1), ST(0)
	fstp	DWORD PTR $T19261[esp+244]
	fstp	ST(0)
	fstp	ST(0)
	fstp	ST(0)
	fld	DWORD PTR -136+[esp+236]
	fmul	DWORD PTR $T19261[esp+236]
	fld	DWORD PTR $T19261[esp+240]
	fmul	DWORD PTR -140+[esp+236]
	fld	DWORD PTR $T19261[esp+244]
	fmul	DWORD PTR -144+[esp+236]
	fstp	DWORD PTR $T19252[esp+244]
	fld	DWORD PTR _elderCoords$12200[esp+244]
	fmul	DWORD PTR [eax+32]
	fld	DWORD PTR _elderCoords$12200[esp+240]
	fmul	DWORD PTR [eax+28]
	faddp	ST(1), ST(0)
	fld	DWORD PTR _elderCoords$12200[esp+236]
	fmul	DWORD PTR [eax+24]
	faddp	ST(1), ST(0)
	fld	DWORD PTR _elderCoords$12200[esp+256]
	fmul	DWORD PTR [eax+32]
	fld	DWORD PTR _elderCoords$12200[esp+248]
	fmul	DWORD PTR [eax+24]
	faddp	ST(1), ST(0)
	fld	DWORD PTR _elderCoords$12200[esp+252]
	fmul	DWORD PTR [eax+28]
	faddp	ST(1), ST(0)
	fld	DWORD PTR _elderCoords$12200[esp+268]
	fmul	DWORD PTR [eax+32]
	fld	DWORD PTR _elderCoords$12200[esp+264]
	fmul	DWORD PTR [eax+28]
	faddp	ST(1), ST(0)
	fld	DWORD PTR _elderCoords$12200[esp+260]
	fmul	DWORD PTR [eax+24]
	faddp	ST(1), ST(0)
	fstp	DWORD PTR $T19281[esp+244]
	fld	DWORD PTR _elderCoords$12200[esp+244]
	fmul	DWORD PTR [eax+20]
	fld	DWORD PTR _elderCoords$12200[esp+240]
	fmul	DWORD PTR [eax+16]
	faddp	ST(1), ST(0)
	fld	DWORD PTR _elderCoords$12200[esp+236]
	fmul	DWORD PTR [eax+12]
	faddp	ST(1), ST(0)
	fstp	DWORD PTR $T19282[esp+236]
	fld	DWORD PTR _elderCoords$12200[esp+252]
	fmul	DWORD PTR [eax+16]
	fld	DWORD PTR _elderCoords$12200[esp+256]
	fmul	DWORD PTR [eax+20]
	faddp	ST(1), ST(0)
	fld	DWORD PTR _elderCoords$12200[esp+248]
	fmul	DWORD PTR [eax+12]
	faddp	ST(1), ST(0)
	fstp	DWORD PTR $T19282[esp+240]
	fld	DWORD PTR _elderCoords$12200[esp+260]
	fmul	DWORD PTR [eax+12]
	fld	DWORD PTR _elderCoords$12200[esp+268]
	fmul	DWORD PTR [eax+20]
	faddp	ST(1), ST(0)
	fld	DWORD PTR _elderCoords$12200[esp+264]
	fmul	DWORD PTR [eax+16]
	faddp	ST(1), ST(0)
	fstp	DWORD PTR $T19282[esp+244]
	fld	DWORD PTR _elderCoords$12200[esp+244]
	fmul	DWORD PTR [eax+8]
	fld	DWORD PTR _elderCoords$12200[esp+240]
	fmul	DWORD PTR [eax+4]
	faddp	ST(1), ST(0)
	fld	DWORD PTR _elderCoords$12200[esp+236]
	fmul	DWORD PTR [eax]
	faddp	ST(1), ST(0)
	fstp	DWORD PTR $T19283[esp+236]
	fld	DWORD PTR _elderCoords$12200[esp+252]
	fmul	DWORD PTR [eax+4]
	fld	DWORD PTR _elderCoords$12200[esp+256]
	fmul	DWORD PTR [eax+8]
	faddp	ST(1), ST(0)
	fld	DWORD PTR _elderCoords$12200[esp+248]
	fmul	DWORD PTR [eax]
	mov	ecx, DWORD PTR $T19283[esp+236]
	pop	edi
	faddp	ST(1), ST(0)
	fstp	DWORD PTR $T19283[esp+236]
	fld	DWORD PTR _elderCoords$12200[esp+256]
	fmul	DWORD PTR [eax]
	fld	DWORD PTR _elderCoords$12200[esp+264]
	fmul	DWORD PTR [eax+8]
	mov	edx, DWORD PTR $T19283[esp+236]
	faddp	ST(1), ST(0)
	fld	DWORD PTR _elderCoords$12200[esp+260]
	fmul	DWORD PTR [eax+4]
	mov	DWORD PTR [esi], ecx
	mov	DWORD PTR [esi+4], edx
	mov	edx, DWORD PTR $T19282[esp+232]
	faddp	ST(1), ST(0)
	fstp	DWORD PTR $T19283[esp+240]
	mov	ecx, DWORD PTR $T19283[esp+240]
	mov	DWORD PTR [esi+8], ecx
	mov	ecx, DWORD PTR $T19282[esp+236]
	mov	DWORD PTR [esi+12], edx
	mov	edx, DWORD PTR $T19282[esp+240]
	fxch	ST(1)
	mov	DWORD PTR [esi+16], ecx
	mov	ecx, DWORD PTR $T19281[esp+240]
	mov	DWORD PTR [esi+20], edx
	mov	edx, DWORD PTR $T19252[esp+240]
	fstp	DWORD PTR [esi+24]
	mov	DWORD PTR [esi+32], ecx
	mov	ecx, DWORD PTR $T19251[esp+240]
	fstp	DWORD PTR [esi+28]
	fxch	ST(1)
	fstp	DWORD PTR [esi+36]
	mov	DWORD PTR [esi+44], edx
	fstp	DWORD PTR [esi+40]
	fxch	ST(1)
	fstp	DWORD PTR [esi+48]
	mov	DWORD PTR [esi+56], ecx
	fstp	DWORD PTR [esi+52]
	mov	edx, DWORD PTR [eax]
	mov	DWORD PTR [esi+60], edx
	mov	ecx, DWORD PTR [eax+4]
	mov	DWORD PTR [esi+64], ecx
	mov	edx, DWORD PTR [eax+8]
	mov	DWORD PTR [esi+68], edx
	mov	ecx, DWORD PTR [eax+12]
	mov	DWORD PTR [esi+72], ecx
	mov	edx, DWORD PTR [eax+16]
	mov	DWORD PTR [esi+76], edx
	mov	ecx, DWORD PTR [eax+20]
	mov	DWORD PTR [esi+80], ecx
	mov	edx, DWORD PTR [eax+24]
	mov	DWORD PTR [esi+84], edx
	mov	ecx, DWORD PTR [eax+28]
	mov	DWORD PTR [esi+88], ecx
	mov	edx, DWORD PTR [eax+32]
	mov	DWORD PTR [esi+92], edx
	mov	ecx, DWORD PTR [eax+36]
	mov	DWORD PTR [esi+96], ecx
	mov	edx, DWORD PTR [eax+40]
	mov	DWORD PTR [esi+100], edx
	mov	ecx, DWORD PTR [eax+44]
	mov	DWORD PTR [esi+104], ecx
	mov	edx, DWORD PTR [eax+48]
	mov	DWORD PTR [esi+108], edx
	mov	ecx, DWORD PTR [eax+52]
	mov	DWORD PTR [esi+112], ecx
	mov	edx, DWORD PTR [eax+56]
	mov	DWORD PTR [esi+116], edx
	mov	ecx, DWORD PTR [esi+132]
	test	ecx, ecx
	je	SHORT $L12207
	push	0
	call	?ValidateAbs@CMacBone@@IAEX_N@Z		; CMacBone::ValidateAbs
	pop	esi

; 233  : 	}
; 234  : }

	add	esp, 228				; 000000e4H
	ret	8
$L12199:

; 221  : 		// Set absolute since we have it
; 222  : 		mAbsCoords = inCoords;
; 223  : 		// Only invalidate absolute from the children down
; 224  : 		if (mFirstChild)
; 225  : 			mFirstChild->ValidateAbs(false);
; 226  : 	}
; 227  : 	else
; 228  : 	{
; 229  : 		// Set relative since we have it
; 230  : 		mRelCoords = inCoords;

	mov	eax, DWORD PTR _inCoords$[esp+228]

; 231  : 		// Invalidate absolute from here down
; 232  : 		ValidateAbs(false);

	push	0
	mov	ecx, DWORD PTR [eax]
	mov	DWORD PTR [esi], ecx
	mov	edx, DWORD PTR [eax+4]
	mov	DWORD PTR [esi+4], edx
	mov	ecx, DWORD PTR [eax+8]
	mov	DWORD PTR [esi+8], ecx
	mov	edx, DWORD PTR [eax+12]
	mov	DWORD PTR [esi+12], edx
	mov	ecx, DWORD PTR [eax+16]
	mov	DWORD PTR [esi+16], ecx
	mov	edx, DWORD PTR [eax+20]
	mov	DWORD PTR [esi+20], edx
	mov	ecx, DWORD PTR [eax+24]
	mov	DWORD PTR [esi+24], ecx
	mov	edx, DWORD PTR [eax+28]
	mov	DWORD PTR [esi+28], edx
	mov	ecx, DWORD PTR [eax+32]
	mov	DWORD PTR [esi+32], ecx
	mov	edx, DWORD PTR [eax+36]
	mov	DWORD PTR [esi+36], edx
	mov	ecx, DWORD PTR [eax+40]
	mov	DWORD PTR [esi+40], ecx
	mov	edx, DWORD PTR [eax+44]
	mov	DWORD PTR [esi+44], edx
	mov	ecx, DWORD PTR [eax+48]
	mov	DWORD PTR [esi+48], ecx
	mov	edx, DWORD PTR [eax+52]
	mov	DWORD PTR [esi+52], edx
	mov	eax, DWORD PTR [eax+56]
	mov	ecx, esi
	mov	DWORD PTR [esi+56], eax
	call	?ValidateAbs@CMacBone@@IAEX_N@Z		; CMacBone::ValidateAbs
$L12207:
	pop	esi

; 233  : 	}
; 234  : }

	add	esp, 228				; 000000e4H
	ret	8
?SetCoords@CMacBone@@QAEXABVVCoords3@@_N@Z ENDP		; CMacBone::SetCoords
_TEXT	ENDS
PUBLIC	?ResetCoords@CMacBone@@QAEXXZ			; CMacBone::ResetCoords
; Function compile flags: /Ogty
;	COMDAT ?ResetCoords@CMacBone@@QAEXXZ
_TEXT	SEGMENT
?ResetCoords@CMacBone@@QAEXXZ PROC NEAR			; CMacBone::ResetCoords, COMDAT
; _this$ = ecx

; 237  : 	SetCoords(mSklBone->baseCoords, false);

	mov	eax, DWORD PTR [ecx+124]
	push	0
	add	eax, 12					; 0000000cH
	mov	edx, DWORD PTR [eax]
	mov	DWORD PTR [ecx], edx
	mov	edx, DWORD PTR [eax+4]
	mov	DWORD PTR [ecx+4], edx
	mov	edx, DWORD PTR [eax+8]
	mov	DWORD PTR [ecx+8], edx
	mov	edx, DWORD PTR [eax+12]
	mov	DWORD PTR [ecx+12], edx
	mov	edx, DWORD PTR [eax+16]
	mov	DWORD PTR [ecx+16], edx
	mov	edx, DWORD PTR [eax+20]
	mov	DWORD PTR [ecx+20], edx
	mov	edx, DWORD PTR [eax+24]
	mov	DWORD PTR [ecx+24], edx
	mov	edx, DWORD PTR [eax+28]
	mov	DWORD PTR [ecx+28], edx
	mov	edx, DWORD PTR [eax+32]
	mov	DWORD PTR [ecx+32], edx
	mov	edx, DWORD PTR [eax+36]
	mov	DWORD PTR [ecx+36], edx
	mov	edx, DWORD PTR [eax+40]
	mov	DWORD PTR [ecx+40], edx
	mov	edx, DWORD PTR [eax+44]
	mov	DWORD PTR [ecx+44], edx
	mov	edx, DWORD PTR [eax+48]
	mov	DWORD PTR [ecx+48], edx
	mov	edx, DWORD PTR [eax+52]
	mov	DWORD PTR [ecx+52], edx
	mov	eax, DWORD PTR [eax+56]
	mov	DWORD PTR [ecx+56], eax
	call	?ValidateAbs@CMacBone@@IAEX_N@Z		; CMacBone::ValidateAbs

; 238  : }

	ret	0
?ResetCoords@CMacBone@@QAEXXZ ENDP			; CMacBone::ResetCoords
_TEXT	ENDS
PUBLIC	??0CObjClass@@QAE@XZ				; CObjClass::CObjClass
EXTRN	_atexit:NEAR
; Function compile flags: /Ogty
;	COMDAT _$E85
_TEXT	SEGMENT
_$E85	PROC NEAR					; COMDAT
	mov	ecx, OFFSET FLAT:?OMacActor_objClassInstance@@3VCObjClass@@A
	call	??0CObjClass@@QAE@XZ			; CObjClass::CObjClass
	push	OFFSET FLAT:_$E83
	call	_atexit
	pop	ecx
	ret	0
_$E85	ENDP
_TEXT	ENDS
EXTRN	??1CObjClass@@QAE@XZ:NEAR			; CObjClass::~CObjClass
; Function compile flags: /Ogty
;	COMDAT _$E83
_TEXT	SEGMENT
_$E83	PROC NEAR					; COMDAT
	mov	ecx, OFFSET FLAT:?OMacActor_objClassInstance@@3VCObjClass@@A
	jmp	??1CObjClass@@QAE@XZ			; CObjClass::~CObjClass
_$E83	ENDP
_TEXT	ENDS
PUBLIC	??_C@_07ILDF@OObject?$AA@			; `string'
PUBLIC	?New@OMacActor@@SAPAV1@PAVOObject@@PAVCObjClass@@@Z ; OMacActor::New
EXTRN	?OBJ_ConstructClass@@YAPAVCObjClass@@PAV1@PBD1P6APAVOObject@@PAV2@0@ZK@Z:NEAR ; OBJ_ConstructClass
;	COMDAT ??_C@_07ILDF@OObject?$AA@
_DATA	SEGMENT
??_C@_07ILDF@OObject?$AA@ DB 'OObject', 00H		; `string'
; Function compile flags: /Ogty
_DATA	ENDS
;	COMDAT _$E88
_TEXT	SEGMENT
_$E88	PROC NEAR					; COMDAT
	push	0
	push	OFFSET FLAT:?New@OMacActor@@SAPAV1@PAVOObject@@PAVCObjClass@@@Z ; OMacActor::New
	push	OFFSET FLAT:??_C@_07ILDF@OObject?$AA@	; `string'
	push	OFFSET FLAT:??_C@_09OANE@OMacActor?$AA@	; `string'
	push	OFFSET FLAT:?OMacActor_objClassInstance@@3VCObjClass@@A ; OMacActor_objClassInstance
	call	?OBJ_ConstructClass@@YAPAVCObjClass@@PAV1@PBD1P6APAVOObject@@PAV2@0@ZK@Z ; OBJ_ConstructClass
	add	esp, 20					; 00000014H
	mov	DWORD PTR ?staticObjClass@OMacActor@@0PAVCObjClass@@A, eax ; OMacActor::staticObjClass
	ret	0
_$E88	ENDP
; Function compile flags: /Ogty
_TEXT	ENDS
;	COMDAT _$E94
_TEXT	SEGMENT
_$E94	PROC NEAR					; COMDAT
	mov	eax, OFFSET FLAT:?sHeadLink@CMacActorLink@@0V1@A
	push	OFFSET FLAT:_$E91
	mov	DWORD PTR ?sHeadLink@CMacActorLink@@0V1@A+8, eax
	mov	DWORD PTR ?sHeadLink@CMacActorLink@@0V1@A+4, eax
	call	_atexit
	pop	ecx
	ret	0
_$E94	ENDP
_TEXT	ENDS
_BSS	SEGMENT
	ALIGN	4

_$S92	DB	01H DUP (?)
; Function compile flags: /Ogty
_BSS	ENDS
;	COMDAT _$E91
_TEXT	SEGMENT
_$E91	PROC NEAR					; COMDAT
	mov	cl, BYTE PTR _$S92
	mov	al, 1
	test	cl, al
	jne	SHORT $L20491
	or	cl, al
	mov	eax, DWORD PTR ?sHeadLink@CMacActorLink@@0V1@A+8
	mov	BYTE PTR _$S92, cl
	mov	ecx, DWORD PTR ?sHeadLink@CMacActorLink@@0V1@A+4
	mov	DWORD PTR [eax+4], ecx
	mov	eax, DWORD PTR ?sHeadLink@CMacActorLink@@0V1@A+4
	mov	edx, DWORD PTR ?sHeadLink@CMacActorLink@@0V1@A+8
	mov	DWORD PTR [eax+8], edx
	mov	eax, OFFSET FLAT:?sHeadLink@CMacActorLink@@0V1@A
	mov	DWORD PTR ?sHeadLink@CMacActorLink@@0V1@A+8, eax
	mov	DWORD PTR ?sHeadLink@CMacActorLink@@0V1@A+4, eax
$L20491:
	ret	0
_$E91	ENDP
_TEXT	ENDS
PUBLIC	??_C@_03HJPD@GEO?$AA@				; `string'
PUBLIC	??_C@_03CNNB@SKL?$AA@				; `string'
PUBLIC	??_C@_03CMHN@LOD?$AA@				; `string'
PUBLIC	??_C@_03OFBA@SRF?$AA@				; `string'
PUBLIC	??_C@_03HFDH@FRM?$AA@				; `string'
PUBLIC	??_C@_03BCHJ@SEQ?$AA@				; `string'
PUBLIC	?MsgGetChild@OMacActor@@UAEPAVIMsgTarget@@PAD@Z	; OMacActor::MsgGetChild
EXTRN	__imp__strnicmp:NEAR
EXTRN	__imp__atoi:NEAR
EXTRN	?MsgGetChild@OObject@@UAEPAVIMsgTarget@@PAD@Z:NEAR ; OObject::MsgGetChild
;	COMDAT ??_C@_03HJPD@GEO?$AA@
; File C:\duke4\Cannibal\CorMain.h
_DATA	SEGMENT
??_C@_03HJPD@GEO?$AA@ DB 'GEO', 00H			; `string'
_DATA	ENDS
;	COMDAT ??_C@_03CNNB@SKL?$AA@
_DATA	SEGMENT
??_C@_03CNNB@SKL?$AA@ DB 'SKL', 00H			; `string'
_DATA	ENDS
;	COMDAT ??_C@_03CMHN@LOD?$AA@
_DATA	SEGMENT
??_C@_03CMHN@LOD?$AA@ DB 'LOD', 00H			; `string'
_DATA	ENDS
;	COMDAT ??_C@_03OFBA@SRF?$AA@
_DATA	SEGMENT
??_C@_03OFBA@SRF?$AA@ DB 'SRF', 00H			; `string'
_DATA	ENDS
;	COMDAT ??_C@_03HFDH@FRM?$AA@
_DATA	SEGMENT
??_C@_03HFDH@FRM?$AA@ DB 'FRM', 00H			; `string'
_DATA	ENDS
;	COMDAT ??_C@_03BCHJ@SEQ?$AA@
_DATA	SEGMENT
??_C@_03BCHJ@SEQ?$AA@ DB 'SEQ', 00H			; `string'
; Function compile flags: /Ogty
; File C:\duke4\Cannibal\MacMain.cpp
_DATA	ENDS
;	COMDAT ?MsgGetChild@OMacActor@@UAEPAVIMsgTarget@@PAD@Z
_TEXT	SEGMENT
_inChildName$ = 8
?MsgGetChild@OMacActor@@UAEPAVIMsgTarget@@PAD@Z PROC NEAR ; OMacActor::MsgGetChild, COMDAT
; _this$ = ecx

; 248  : {

	push	ebx
	push	esi

; 249  : 	NDword index;
; 250  : 
; 251  : 	if (!inChildName)

	mov	esi, DWORD PTR _inChildName$[esp+4]
	push	edi
	test	esi, esi
	mov	edi, ecx
	jne	SHORT $L12244
	pop	edi
	pop	esi

; 252  : 		return(NULL);

	xor	eax, eax
	pop	ebx

; 281  : }

	ret	4
$L12244:

; 253  : 	if (!stricmp(inChildName, "GEO"))

	mov	ebx, DWORD PTR __imp__stricmp
	push	OFFSET FLAT:??_C@_03HJPD@GEO?$AA@	; `string'
	push	esi
	call	ebx
	add	esp, 8
	test	eax, eax
	jne	SHORT $L12245

; 254  : 		return(mGeometry);

	mov	eax, DWORD PTR [edi+140]
	pop	edi
	pop	esi
	pop	ebx

; 281  : }

	ret	4
$L12245:

; 255  : 	if (!stricmp(inChildName, "SKL"))

	push	OFFSET FLAT:??_C@_03CNNB@SKL?$AA@	; `string'
	push	esi
	call	ebx
	add	esp, 8
	test	eax, eax
	jne	SHORT $L12247

; 256  : 		return(mSkeleton);

	mov	eax, DWORD PTR [edi+144]
	pop	edi
	pop	esi
	pop	ebx

; 281  : }

	ret	4
$L12247:

; 257  : 	if (!stricmp(inChildName, "LOD"))

	push	OFFSET FLAT:??_C@_03CMHN@LOD?$AA@	; `string'
	push	esi
	call	ebx
	add	esp, 8
	test	eax, eax
	jne	SHORT $L12249

; 258  : 		return(mLodData);

	mov	eax, DWORD PTR [edi+148]
	pop	edi
	pop	esi
	pop	ebx

; 281  : }

	ret	4
$L12249:

; 259  : 	if (!strnicmp(inChildName, "SRF", 3))

	mov	ebx, DWORD PTR __imp__strnicmp
	push	3
	push	OFFSET FLAT:??_C@_03OFBA@SRF?$AA@	; `string'
	push	esi
	call	ebx
	add	esp, 12					; 0000000cH
	test	eax, eax
	jne	SHORT $L12251

; 260  : 	{
; 261  : 		index=atoi(inChildName+3);

	add	esi, 3
	push	esi
	call	DWORD PTR __imp__atoi

; 262  : 		if (index >= mSurfaces.GetCount())

	mov	ecx, DWORD PTR [edi+156]
	add	esp, 4
	cmp	eax, ecx
	jb	SHORT $L12253
	pop	edi
	pop	esi

; 263  : 			return(NULL);

	xor	eax, eax
	pop	ebx

; 281  : }

	ret	4
$L12253:

; 264  : 		return(mSurfaces[index]);

	mov	ecx, DWORD PTR [edi+152]
	pop	edi
	pop	esi
	pop	ebx
	mov	eax, DWORD PTR [ecx+eax*4]

; 281  : }

	ret	4
$L12251:

; 265  : 	}
; 266  : 	if (!strnicmp(inChildName, "FRM", 3))

	push	3
	push	OFFSET FLAT:??_C@_03HFDH@FRM?$AA@	; `string'
	push	esi
	call	ebx
	add	esp, 12					; 0000000cH
	test	eax, eax
	jne	SHORT $L12254

; 267  : 	{
; 268  : 		index=atoi(inChildName+3);

	add	esi, 3
	push	esi
	call	DWORD PTR __imp__atoi

; 269  : 		if (index >= mFrames.GetCount())

	mov	ecx, DWORD PTR [edi+172]
	add	esp, 4
	cmp	eax, ecx
	jb	SHORT $L12256
	pop	edi
	pop	esi

; 270  : 			return(NULL);

	xor	eax, eax
	pop	ebx

; 281  : }

	ret	4
$L12256:

; 271  : 		return(mFrames[index]);

	mov	edx, DWORD PTR [edi+168]
	pop	edi
	pop	esi
	pop	ebx
	mov	eax, DWORD PTR [edx+eax*4]

; 281  : }

	ret	4
$L12254:

; 272  : 	}
; 273  : 	if (!strnicmp(inChildName, "SEQ", 3))

	push	3
	push	OFFSET FLAT:??_C@_03BCHJ@SEQ?$AA@	; `string'
	push	esi
	call	ebx
	add	esp, 12					; 0000000cH
	test	eax, eax
	jne	SHORT $L12257

; 274  : 	{
; 275  : 		index=atoi(inChildName+3);

	add	esi, 3
	push	esi
	call	DWORD PTR __imp__atoi

; 276  : 		if (index >= mSequences.GetCount())

	mov	ecx, DWORD PTR [edi+188]
	add	esp, 4
	cmp	eax, ecx
	jb	SHORT $L12259
	pop	edi
	pop	esi

; 277  : 			return(NULL);

	xor	eax, eax
	pop	ebx

; 281  : }

	ret	4
$L12259:

; 278  : 		return(mSequences[index]);

	mov	ecx, DWORD PTR [edi+184]
	pop	edi
	pop	esi
	pop	ebx
	mov	eax, DWORD PTR [ecx+eax*4]

; 281  : }

	ret	4
$L12257:

; 279  : 	}
; 280  : 	return(Super::MsgGetChild(inChildName));

	push	esi
	mov	ecx, edi
	call	?MsgGetChild@OObject@@UAEPAVIMsgTarget@@PAD@Z ; OObject::MsgGetChild
	pop	edi
	pop	esi
	pop	ebx

; 281  : }

	ret	4
?MsgGetChild@OMacActor@@UAEPAVIMsgTarget@@PAD@Z ENDP	; OMacActor::MsgGetChild
_TEXT	ENDS
PUBLIC	?Create@OMacActor@@UAEXXZ			; OMacActor::Create
PUBLIC	?LoadConfig@OMacActor@@QAE_NPAVOCpjConfig@@@Z	; OMacActor::LoadConfig
EXTRN	?Create@OObject@@UAEXXZ:NEAR			; OObject::Create
; Function compile flags: /Ogty
;	COMDAT ?Create@OMacActor@@UAEXXZ
_TEXT	SEGMENT
?Create@OMacActor@@UAEXXZ PROC NEAR			; OMacActor::Create, COMDAT
; _this$ = ecx

; 283  : {

	push	ebx
	push	esi
	push	edi
	mov	esi, ecx

; 284  : 	Super::Create();

	call	?Create@OObject@@UAEXXZ			; OObject::Create

; 285  : 
; 286  : 	mActorLink.SetActor(this);
; 287  : 
; 288  : 	mOrigin			= VVec3(0,0,0);

	xor	ebx, ebx
	mov	DWORD PTR [esi+56], esi

; 289  : 	mScale			= VVec3(1,1,1);

	mov	eax, 1065353216				; 3f800000H
	mov	DWORD PTR [esi+80], ebx
	mov	DWORD PTR [esi+84], ebx
	mov	DWORD PTR [esi+88], ebx
	mov	DWORD PTR [esi+92], eax
	mov	DWORD PTR [esi+96], eax
	mov	DWORD PTR [esi+100], eax

; 290  : 	mRotation		= VEulers3(0,0,0);
; 291  : 	mBounds[0]		= VVec3(-1,-1,-1);

	mov	ecx, -1082130432			; bf800000H
	mov	DWORD PTR [esi+104], ebx
	mov	DWORD PTR [esi+108], ebx
	mov	DWORD PTR [esi+112], ebx
	mov	DWORD PTR [esi+116], ecx
	mov	DWORD PTR [esi+120], ecx
	mov	DWORD PTR [esi+124], ecx

; 292  : 	mBounds[1]		= VVec3(1,1,1);

	mov	DWORD PTR [esi+128], eax
	mov	DWORD PTR [esi+132], eax
	mov	DWORD PTR [esi+136], eax

; 293  : 	LastEvalFrame	= 0;

	mov	DWORD PTR [esi+264], ebx

; 294  : 	bBonesDirty		= true;

	mov	BYTE PTR [esi+268], 1

; 295  : 
; 296  : 	mActorChannels.AddZeroed(MAC_NUMCHANNELS);

	mov	edi, DWORD PTR [esi+292]
	mov	ecx, DWORD PTR [esi+296]
	lea	eax, DWORD PTR [edi+16]
	cmp	eax, ecx
	mov	DWORD PTR [esi+292], eax
	jbe	SHORT $L20604
	mov	ecx, eax
	mov	DWORD PTR [esi+300], 4
	shr	ecx, 2
	lea	eax, DWORD PTR [ecx+eax+32]
	mov	ecx, DWORD PTR [esi+288]
	cmp	ecx, ebx
	mov	DWORD PTR [esi+296], eax
	je	SHORT $L20597
	cmp	eax, ebx
	je	SHORT $L20599
	call	?MEM_GetAlloc@@YAPAVIMemAlloc@@XZ	; MEM_GetAlloc
	mov	ecx, DWORD PTR [esi+296]
	mov	edx, DWORD PTR [eax]
	imul	ecx, DWORD PTR [esi+300]
	push	ecx
	mov	ecx, DWORD PTR [esi+288]
	push	ecx
	mov	ecx, eax
	call	DWORD PTR [edx+4]
	mov	DWORD PTR [esi+288], eax
	jmp	SHORT $L20604
$L20599:
	call	?MEM_GetAlloc@@YAPAVIMemAlloc@@XZ	; MEM_GetAlloc
	mov	ecx, DWORD PTR [esi+288]
	mov	edx, DWORD PTR [eax]
	push	ecx
	mov	ecx, eax
	call	DWORD PTR [edx+8]
$L20603:
	mov	DWORD PTR [esi+288], ebx
$L20604:
	mov	edx, DWORD PTR [esi+288]
	mov	ecx, 16					; 00000010H
	xor	eax, eax

; 297  : 	
; 298  : 	LoadConfig(NULL);

	push	ebx
	lea	edi, DWORD PTR [edx+edi*4]
	rep stosd
	mov	ecx, esi
	call	?LoadConfig@OMacActor@@QAE_NPAVOCpjConfig@@@Z ; OMacActor::LoadConfig
	pop	edi
	pop	esi
	pop	ebx

; 299  : }

	ret	0
$L20597:

; 295  : 
; 296  : 	mActorChannels.AddZeroed(MAC_NUMCHANNELS);

	cmp	eax, ebx
	je	SHORT $L20603
	call	?MEM_GetAlloc@@YAPAVIMemAlloc@@XZ	; MEM_GetAlloc
	mov	ecx, DWORD PTR [esi+296]
	mov	edx, DWORD PTR [eax]
	imul	ecx, DWORD PTR [esi+300]
	push	ecx
	mov	ecx, eax
	call	DWORD PTR [edx]
	mov	DWORD PTR [esi+288], eax
	jmp	SHORT $L20604
?Create@OMacActor@@UAEXXZ ENDP				; OMacActor::Create
_TEXT	ENDS
PUBLIC	?FindBone@OMacActor@@QAEPAVCMacBone@@PBD@Z	; OMacActor::FindBone
EXTRN	?STR_CalcHash@@YAKPAD@Z:NEAR			; STR_CalcHash
; Function compile flags: /Ogty
;	COMDAT ?FindBone@OMacActor@@QAEPAVCMacBone@@PBD@Z
_TEXT	SEGMENT
_inName$ = 8
_hash$ = -4
?FindBone@OMacActor@@QAEPAVCMacBone@@PBD@Z PROC NEAR	; OMacActor::FindBone, COMDAT
; _this$ = ecx

; 302  : {

	push	ecx

; 303  : 	if (!inName || !mSkeleton)

	mov	eax, DWORD PTR _inName$[esp]
	push	ebx
	push	ebp
	push	esi
	push	edi
	mov	edi, ecx
	test	eax, eax
	je	SHORT $L12273
	mov	ecx, DWORD PTR [edi+144]
	test	ecx, ecx
	je	SHORT $L12273

; 305  : 	NDword hash = STR_CalcHash((NChar*)inName);

	push	eax
	call	?STR_CalcHash@@YAKPAD@Z			; STR_CalcHash
	mov	DWORD PTR _hash$[esp+24], eax

; 306  : 	for (NDword i=0;i<mActorBones.GetCount();i++)

	mov	eax, DWORD PTR [edi+276]
	add	esp, 4
	xor	ebp, ebp
	test	eax, eax
	jbe	SHORT $L12273

; 305  : 	NDword hash = STR_CalcHash((NChar*)inName);

	xor	ebx, ebx
$L12277:

; 307  : 	{
; 308  : 		CMacBone* bone = &mActorBones[i];

	mov	esi, DWORD PTR [edi+272]

; 309  : 		if (bone->mSklBone->nameHash != hash)

	mov	ecx, DWORD PTR _hash$[esp+20]
	add	esi, ebx
	mov	eax, DWORD PTR [esi+124]
	cmp	DWORD PTR [eax+4], ecx
	jne	SHORT $L12278

; 310  : 			continue;
; 311  : 		if (stricmp(*bone->mSklBone->name, inName))

	mov	eax, DWORD PTR [eax]
	test	eax, eax
	jne	SHORT $L20631
	mov	eax, OFFSET FLAT:??_C@_00A@?$AA@	; `string'
$L20631:
	mov	edx, DWORD PTR _inName$[esp+16]
	push	edx
	push	eax
	call	DWORD PTR __imp__stricmp
	add	esp, 8
	test	eax, eax
	je	SHORT $L12282
$L12278:

; 306  : 	for (NDword i=0;i<mActorBones.GetCount();i++)

	mov	eax, DWORD PTR [edi+276]
	inc	ebp
	add	ebx, 140				; 0000008cH
	cmp	ebp, eax
	jb	SHORT $L12277
$L12273:
	pop	edi
	pop	esi
	pop	ebp

; 304  : 		return(NULL);

	xor	eax, eax
	pop	ebx

; 314  : 	}
; 315  : 	return(NULL);
; 316  : }

	pop	ecx
	ret	4
$L12282:

; 312  : 			continue;
; 313  : 		return(bone);

	mov	eax, esi
	pop	edi
	pop	esi
	pop	ebp
	pop	ebx

; 314  : 	}
; 315  : 	return(NULL);
; 316  : }

	pop	ecx
	ret	4
?FindBone@OMacActor@@QAEPAVCMacBone@@PBD@Z ENDP		; OMacActor::FindBone
_TEXT	ENDS
PUBLIC	?FindFrame@OMacActor@@QAEPAVCCpjFrmFrame@@PBD@Z	; OMacActor::FindFrame
; Function compile flags: /Ogty
;	COMDAT ?FindFrame@OMacActor@@QAEPAVCCpjFrmFrame@@PBD@Z
_TEXT	SEGMENT
_inName$ = 8
_hash$ = -4
?FindFrame@OMacActor@@QAEPAVCCpjFrmFrame@@PBD@Z PROC NEAR ; OMacActor::FindFrame, COMDAT
; _this$ = ecx

; 319  : 	if (!inName)

	mov	eax, DWORD PTR _inName$[esp-4]
	sub	esp, 8
	test	eax, eax
	push	ebx
	push	ebp
	push	esi
	push	edi
	mov	ebp, ecx

; 320  : 		return(NULL);

	je	$L12293

; 321  : 	NDword hash = STR_CalcHash((NChar*)inName);

	push	eax
	call	?STR_CalcHash@@YAKPAD@Z			; STR_CalcHash
	mov	DWORD PTR _hash$[esp+28], eax

; 322  : 	for (NDword i=0;i<mFrames.GetCount();i++)

	mov	eax, DWORD PTR [ebp+172]
	add	esp, 4
	xor	ebx, ebx
	test	eax, eax
	jbe	$L12293
$L12291:

; 323  : 	{
; 324  : 		if (!mFrames[i])

	mov	eax, DWORD PTR [ebp+168]
	xor	edi, edi
	mov	ecx, DWORD PTR [eax+ebx*4]
	cmp	ecx, edi
	je	SHORT $L12292

; 325  : 			continue;
; 326  : 		mFrames[i]->CacheIn();

	call	?CacheIn@OCpjChunk@@QAE_NXZ		; OCpjChunk::CacheIn
	mov	ecx, DWORD PTR [ebp+168]

; 327  : 		for (NDword j=0;j<mFrames[i]->m_Frames.GetCount();j++)

	mov	edx, DWORD PTR [ecx+ebx*4]
	lea	eax, DWORD PTR [ecx+ebx*4]
	cmp	DWORD PTR [edx+100], edi
	jbe	SHORT $L12292

; 325  : 			continue;
; 326  : 		mFrames[i]->CacheIn();

	mov	DWORD PTR -8+[esp+24], edi
$L12296:

; 328  : 		{
; 329  : 			CCpjFrmFrame* frm = &mFrames[i]->m_Frames[j];

	mov	eax, DWORD PTR [eax]
	mov	ecx, DWORD PTR -8+[esp+24]
	mov	esi, DWORD PTR [eax+96]

; 330  : 			if (frm->m_NameHash != hash)

	mov	eax, DWORD PTR [esi+ecx+4]
	add	esi, ecx
	mov	ecx, DWORD PTR _hash$[esp+24]
	cmp	eax, ecx
	jne	SHORT $L12297

; 331  : 				continue;
; 332  : 			if (stricmp(*frm->m_Name, inName))

	mov	eax, DWORD PTR [esi]
	test	eax, eax
	jne	SHORT $L20672
	mov	eax, OFFSET FLAT:??_C@_00A@?$AA@	; `string'
$L20672:
	mov	edx, DWORD PTR _inName$[esp+20]
	push	edx
	push	eax
	call	DWORD PTR __imp__stricmp
	add	esp, 8
	test	eax, eax
	je	SHORT $L12301
$L12297:

; 327  : 		for (NDword j=0;j<mFrames[i]->m_Frames.GetCount();j++)

	mov	eax, DWORD PTR [ebp+168]
	mov	esi, DWORD PTR -8+[esp+24]
	inc	edi
	add	esi, 84					; 00000054H
	mov	ecx, DWORD PTR [eax+ebx*4]
	lea	eax, DWORD PTR [eax+ebx*4]
	mov	DWORD PTR -8+[esp+24], esi
	cmp	edi, DWORD PTR [ecx+100]
	jb	SHORT $L12296
$L12292:

; 322  : 	for (NDword i=0;i<mFrames.GetCount();i++)

	mov	eax, DWORD PTR [ebp+172]
	inc	ebx
	cmp	ebx, eax
	jb	$L12291
$L12293:
	pop	edi
	pop	esi
	pop	ebp

; 335  : 		}
; 336  : 	}
; 337  : 	return(NULL);

	xor	eax, eax
	pop	ebx

; 338  : }

	add	esp, 8
	ret	4
$L12301:

; 333  : 				continue;
; 334  : 			return(frm);

	mov	eax, esi
	pop	edi
	pop	esi
	pop	ebp
	pop	ebx

; 338  : }

	add	esp, 8
	ret	4
?FindFrame@OMacActor@@QAEPAVCCpjFrmFrame@@PBD@Z ENDP	; OMacActor::FindFrame
_TEXT	ENDS
PUBLIC	?FindSequence@OMacActor@@QAEPAVOCpjSequence@@PBD@Z ; OMacActor::FindSequence
; Function compile flags: /Ogty
;	COMDAT ?FindSequence@OMacActor@@QAEPAVOCpjSequence@@PBD@Z
_TEXT	SEGMENT
_inName$ = 8
_hash$ = 8
?FindSequence@OMacActor@@QAEPAVOCpjSequence@@PBD@Z PROC NEAR ; OMacActor::FindSequence, COMDAT
; _this$ = ecx

; 340  : {

	push	ebx
	push	ebp

; 341  : 	if (!inName)

	mov	ebp, DWORD PTR _inName$[esp+4]
	push	esi
	test	ebp, ebp
	push	edi
	mov	ebx, ecx

; 342  : 		return(NULL);

	je	SHORT $L12312

; 343  : 	NDword hash = STR_CalcHash((NChar*)inName);

	push	ebp
	call	?STR_CalcHash@@YAKPAD@Z			; STR_CalcHash
	mov	DWORD PTR _hash$[esp+16], eax

; 344  : 	for (NDword i=0;i<mSequences.GetCount();i++)

	mov	eax, DWORD PTR [ebx+188]
	add	esp, 4
	xor	edi, edi
	test	eax, eax
	jbe	SHORT $L12312
$L12310:

; 345  : 	{
; 346  : 		OCpjSequence* seq = mSequences[i];

	mov	eax, DWORD PTR [ebx+184]
	mov	esi, DWORD PTR [eax+edi*4]

; 347  : 		if (!seq)

	test	esi, esi
	je	SHORT $L12311

; 348  : 			continue;
; 349  : 		if (hash != seq->GetNameHash())

	mov	ecx, DWORD PTR _hash$[esp+12]
	mov	eax, DWORD PTR [esi+48]
	cmp	ecx, eax
	jne	SHORT $L12311

; 350  : 			continue;
; 351  : 		if (stricmp(inName, seq->GetName()))

	mov	eax, DWORD PTR [esi+44]
	test	eax, eax
	jne	SHORT $L20710
	mov	eax, OFFSET FLAT:??_C@_00A@?$AA@	; `string'
$L20710:
	push	eax
	push	ebp
	call	DWORD PTR __imp__stricmp
	add	esp, 8
	test	eax, eax
	je	SHORT $L12316
$L12311:

; 344  : 	for (NDword i=0;i<mSequences.GetCount();i++)

	mov	eax, DWORD PTR [ebx+188]
	inc	edi
	cmp	edi, eax
	jb	SHORT $L12310
$L12312:
	pop	edi
	pop	esi
	pop	ebp

; 355  : 	}
; 356  : 	return(NULL);

	xor	eax, eax
	pop	ebx

; 357  : }

	ret	4
$L12316:

; 352  : 			continue;
; 353  : 		seq->CacheIn();

	mov	ecx, esi
	call	?CacheIn@OCpjChunk@@QAE_NXZ		; OCpjChunk::CacheIn

; 354  : 		return(seq);

	mov	eax, esi
	pop	edi
	pop	esi
	pop	ebp
	pop	ebx

; 357  : }

	ret	4
?FindSequence@OMacActor@@QAEPAVOCpjSequence@@PBD@Z ENDP	; OMacActor::FindSequence
_TEXT	ENDS
PUBLIC	?SetGeometry@OMacActor@@QAE_NPAVOCpjGeometry@@@Z ; OMacActor::SetGeometry
; Function compile flags: /Ogty
;	COMDAT ?SetGeometry@OMacActor@@QAE_NPAVOCpjGeometry@@@Z
_TEXT	SEGMENT
_inGeometry$ = 8
?SetGeometry@OMacActor@@QAE_NPAVOCpjGeometry@@@Z PROC NEAR ; OMacActor::SetGeometry, COMDAT
; _this$ = ecx

; 361  : 	mGeometry = inGeometry;

	mov	eax, DWORD PTR _inGeometry$[esp-4]

; 362  : 	if (!mGeometry)

	test	eax, eax
	mov	DWORD PTR [ecx+140], eax
	jne	SHORT $L12321

; 363  : 		return(0);

	xor	al, al

; 366  : }

	ret	4
$L12321:

; 364  : 	mGeometry->CacheIn();

	mov	ecx, eax
	call	?CacheIn@OCpjChunk@@QAE_NXZ		; OCpjChunk::CacheIn

; 365  : 	return(1);

	mov	al, 1

; 366  : }

	ret	4
?SetGeometry@OMacActor@@QAE_NPAVOCpjGeometry@@@Z ENDP	; OMacActor::SetGeometry
_TEXT	ENDS
PUBLIC	?Add@?$TCorArray@VCMacBone@@@@QAEKK@Z		; TCorArray<CMacBone>::Add
PUBLIC	?Remove@?$TCorArray@VCMacBone@@@@QAEXKK@Z	; TCorArray<CMacBone>::Remove
; Function compile flags: /Ogty
;	COMDAT ?SetSkeleton@OMacActor@@QAE_NPAVOCpjSkeleton@@@Z
_TEXT	SEGMENT
_inSkeleton$ = 8
_i$ = 8
?SetSkeleton@OMacActor@@QAE_NPAVOCpjSkeleton@@@Z PROC NEAR ; OMacActor::SetSkeleton, COMDAT
; _this$ = ecx

; 368  : {

	push	ecx

; 369  : 	// clear out old bones
; 370  : 	mSkeleton = inSkeleton;

	mov	eax, DWORD PTR _inSkeleton$[esp]
	push	ebx
	push	esi
	mov	esi, ecx
	push	edi

; 371  : 	mActorBones.Purge(); mActorBones.Shrink();

	xor	ebx, ebx
	lea	edi, DWORD PTR [esi+272]
	mov	DWORD PTR [esi+144], eax
	mov	ecx, DWORD PTR [edi+4]
	push	ecx
	push	ebx
	mov	ecx, edi
	call	?Remove@?$TCorArray@VCMacBone@@@@QAEXKK@Z ; TCorArray<CMacBone>::Remove
	mov	eax, DWORD PTR [edi+4]
	mov	ecx, DWORD PTR [edi+8]
	cmp	ecx, eax
	je	SHORT $L20728
	push	140					; 0000008cH
	mov	ecx, edi
	mov	DWORD PTR [edi+8], eax
	call	?Realloc@CCorArray@@IAEXK@Z		; CCorArray::Realloc
$L20728:

; 372  : 	if (!mSkeleton)

	mov	ecx, DWORD PTR [esi+144]
	cmp	ecx, ebx
	jne	SHORT $L12326
	pop	edi
	pop	esi

; 373  : 		return(0);

	xor	al, al
	pop	ebx

; 407  : }

	pop	ecx
	ret	4
$L12326:
	push	ebp

; 374  : 	mSkeleton->CacheIn();

	call	?CacheIn@OCpjChunk@@QAE_NXZ		; OCpjChunk::CacheIn

; 375  : 
; 376  : 	// add the same number of bones as the skeleton
; 377  : 	mActorBones.Add(mSkeleton->m_Bones.GetCount());

	mov	edx, DWORD PTR [esi+144]
	mov	ecx, edi
	mov	eax, DWORD PTR [edx+76]
	push	eax
	call	?Add@?$TCorArray@VCMacBone@@@@QAEKK@Z	; TCorArray<CMacBone>::Add

; 378  : 	
; 379  : 	// set up parents
; 380  : 	for (NDword i=0;i<mActorBones.GetCount();i++)

	mov	eax, DWORD PTR [esi+276]
	mov	DWORD PTR _i$[esp+16], ebx
	cmp	eax, ebx
	jbe	$L12330

; 374  : 	mSkeleton->CacheIn();

	xor	ebp, ebp
$L12328:

; 381  : 	{
; 382  : 		CMacBone* bone = &mActorBones[i];		
; 383  : 		bone->mSklBone = &mSkeleton->m_Bones[i];

	mov	edx, DWORD PTR [esi+144]
	mov	ecx, DWORD PTR [edi]
	add	ecx, ebx
	mov	eax, DWORD PTR [edx+72]

; 384  : 		bone->mParent = NULL;

	xor	edx, edx
	add	eax, ebp
	mov	DWORD PTR [ecx+128], edx
	mov	DWORD PTR [ecx+124], eax

; 385  : 		if (bone->mSklBone->parentBone)

	mov	eax, DWORD PTR [eax+8]
	cmp	eax, edx
	je	SHORT $L12332

; 386  : 			bone->mParent = &mActorBones[bone->mSklBone->parentBone - &mSkeleton->m_Bones[0]];

	mov	edx, DWORD PTR [esi+144]
	sub	eax, DWORD PTR [edx+72]
	mov	edx, eax
	mov	eax, 1808407283				; 6bca1af3H
	imul	edx
	sar	edx, 5
	mov	eax, edx
	shr	eax, 31					; 0000001fH
	add	edx, eax
	lea	eax, DWORD PTR [edx*8]
	sub	eax, edx
	lea	edx, DWORD PTR [eax+eax*4]
	mov	eax, DWORD PTR [edi]
	lea	edx, DWORD PTR [eax+edx*4]
	mov	DWORD PTR [ecx+128], edx
	xor	edx, edx
$L12332:
	mov	eax, DWORD PTR _i$[esp+16]

; 387  : 		bone->mFirstChild = bone->mNextSibling = NULL;

	mov	DWORD PTR [ecx+136], edx
	mov	DWORD PTR [ecx+132], edx
	mov	ecx, DWORD PTR [esi+276]
	inc	eax
	add	ebx, 140				; 0000008cH
	add	ebp, 76					; 0000004cH
	cmp	eax, ecx
	mov	DWORD PTR _i$[esp+16], eax
	jb	SHORT $L12328
$L12330:

; 388  : 	}
; 389  : 	// determine children
; 390  : 	for (i=0;i<mActorBones.GetCount();i++)

	mov	eax, DWORD PTR [esi+276]
	xor	ecx, ecx
	cmp	eax, ecx
	mov	DWORD PTR _i$[esp+16], ecx
	jbe	SHORT $L12335
	mov	DWORD PTR -4+[esp+20], ecx
$L12333:

; 391  : 	{
; 392  : 		CMacBone* bA = &mActorBones[i];

	mov	ecx, DWORD PTR [edi]
	mov	ebx, DWORD PTR -4+[esp+20]
	add	ecx, ebx

; 393  : 		for (NDword j=0;j<mActorBones.GetCount();j++)

	xor	ebx, ebx
	test	eax, eax
	jbe	SHORT $L12334

; 391  : 	{
; 392  : 		CMacBone* bA = &mActorBones[i];

	xor	edx, edx
$L12338:

; 394  : 		{
; 395  : 			CMacBone* bB = &mActorBones[j];

	mov	eax, DWORD PTR [edi]
	add	eax, edx

; 396  : 			if (bB->mParent == bA)

	cmp	DWORD PTR [eax+128], ecx
	jne	SHORT $L12339

; 397  : 			{
; 398  : 				bB->mNextSibling = bA->mFirstChild;

	mov	ebp, DWORD PTR [ecx+132]
	mov	DWORD PTR [eax+136], ebp

; 399  : 				bA->mFirstChild = bB;

	mov	DWORD PTR [ecx+132], eax
$L12339:
	mov	eax, DWORD PTR [esi+276]
	inc	ebx
	add	edx, 140				; 0000008cH
	cmp	ebx, eax
	jb	SHORT $L12338
$L12334:

; 388  : 	}
; 389  : 	// determine children
; 390  : 	for (i=0;i<mActorBones.GetCount();i++)

	mov	ecx, DWORD PTR _i$[esp+16]
	mov	ebx, DWORD PTR -4+[esp+20]
	mov	eax, DWORD PTR [esi+276]
	inc	ecx
	add	ebx, 140				; 0000008cH
	cmp	ecx, eax
	mov	DWORD PTR _i$[esp+16], ecx
	mov	DWORD PTR -4+[esp+20], ebx
	jb	SHORT $L12333
$L12335:

; 400  : 			}
; 401  : 		}
; 402  : 	}
; 403  : 	// reset all the transforms
; 404  : 	for (i=0;i<mActorBones.GetCount();i++)

	mov	eax, DWORD PTR [esi+276]
	xor	ebx, ebx
	test	eax, eax
	jbe	SHORT $L12345
	xor	ebp, ebp
$L12343:

; 405  : 		mActorBones[i].ResetCoords();

	mov	ecx, DWORD PTR [edi]
	push	0
	add	ecx, ebp
	mov	eax, DWORD PTR [ecx+124]
	add	eax, 12					; 0000000cH
	mov	edx, DWORD PTR [eax]
	mov	DWORD PTR [ecx], edx
	mov	edx, DWORD PTR [eax+4]
	mov	DWORD PTR [ecx+4], edx
	mov	edx, DWORD PTR [eax+8]
	mov	DWORD PTR [ecx+8], edx
	mov	edx, DWORD PTR [eax+12]
	mov	DWORD PTR [ecx+12], edx
	mov	edx, DWORD PTR [eax+16]
	mov	DWORD PTR [ecx+16], edx
	mov	edx, DWORD PTR [eax+20]
	mov	DWORD PTR [ecx+20], edx
	mov	edx, DWORD PTR [eax+24]
	mov	DWORD PTR [ecx+24], edx
	mov	edx, DWORD PTR [eax+28]
	mov	DWORD PTR [ecx+28], edx
	mov	edx, DWORD PTR [eax+32]
	mov	DWORD PTR [ecx+32], edx
	mov	edx, DWORD PTR [eax+36]
	mov	DWORD PTR [ecx+36], edx
	mov	edx, DWORD PTR [eax+40]
	mov	DWORD PTR [ecx+40], edx
	mov	edx, DWORD PTR [eax+44]
	mov	DWORD PTR [ecx+44], edx
	mov	edx, DWORD PTR [eax+48]
	mov	DWORD PTR [ecx+48], edx
	mov	edx, DWORD PTR [eax+52]
	mov	DWORD PTR [ecx+52], edx
	mov	eax, DWORD PTR [eax+56]
	mov	DWORD PTR [ecx+56], eax
	call	?ValidateAbs@CMacBone@@IAEX_N@Z		; CMacBone::ValidateAbs
	mov	eax, DWORD PTR [esi+276]
	inc	ebx
	add	ebp, 140				; 0000008cH
	cmp	ebx, eax
	jb	SHORT $L12343
$L12345:
	pop	ebp
	pop	edi
	pop	esi

; 406  : 	return(1);

	mov	al, 1
	pop	ebx

; 407  : }

	pop	ecx
	ret	4
?SetSkeleton@OMacActor@@QAE_NPAVOCpjSkeleton@@@Z ENDP	; OMacActor::SetSkeleton
_TEXT	ENDS
PUBLIC	?SetLodData@OMacActor@@QAE_NPAVOCpjLodData@@@Z	; OMacActor::SetLodData
; Function compile flags: /Ogty
;	COMDAT ?SetLodData@OMacActor@@QAE_NPAVOCpjLodData@@@Z
_TEXT	SEGMENT
_inLodData$ = 8
?SetLodData@OMacActor@@QAE_NPAVOCpjLodData@@@Z PROC NEAR ; OMacActor::SetLodData, COMDAT
; _this$ = ecx

; 410  : 	mLodData = inLodData;

	mov	eax, DWORD PTR _inLodData$[esp-4]

; 411  : 	if (!mLodData)

	test	eax, eax
	mov	DWORD PTR [ecx+148], eax
	jne	SHORT $L12350

; 412  : 		return(0);

	xor	al, al

; 415  : }

	ret	4
$L12350:

; 413  : 	mLodData->CacheIn();

	mov	ecx, eax
	call	?CacheIn@OCpjChunk@@QAE_NXZ		; OCpjChunk::CacheIn

; 414  : 	return(1);

	mov	al, 1

; 415  : }

	ret	4
?SetLodData@OMacActor@@QAE_NPAVOCpjLodData@@@Z ENDP	; OMacActor::SetLodData
_TEXT	ENDS
PUBLIC	?SetSurface@OMacActor@@QAE_NKPAVOCpjSurface@@@Z	; OMacActor::SetSurface
; Function compile flags: /Ogty
;	COMDAT ?SetSurface@OMacActor@@QAE_NKPAVOCpjSurface@@@Z
_TEXT	SEGMENT
_inIndex$ = 8
_inSurface$ = 12
?SetSurface@OMacActor@@QAE_NKPAVOCpjSurface@@@Z PROC NEAR ; OMacActor::SetSurface, COMDAT
; _this$ = ecx

; 418  : 	if (mSurfaces.GetCount() <= inIndex)

	mov	edx, DWORD PTR _inIndex$[esp-4]
	push	ebp
	mov	ebp, ecx
	mov	eax, DWORD PTR [ebp+156]
	cmp	eax, edx
	ja	SHORT $L21937
	push	ebx

; 419  : 		mSurfaces.AddZeroed((inIndex - mSurfaces.GetCount()) + 1);

	mov	ebx, DWORD PTR [ebp+156]
	push	esi
	mov	ecx, DWORD PTR [ebp+160]
	push	edi
	mov	esi, edx
	lea	edi, DWORD PTR [ebp+152]
	sub	esi, eax
	inc	esi
	lea	eax, DWORD PTR [ebx+esi]
	cmp	eax, ecx
	mov	DWORD PTR [edi+4], eax
	jbe	SHORT $L21943
	mov	ecx, eax
	push	4
	shr	ecx, 2
	lea	edx, DWORD PTR [ecx+eax+32]
	mov	ecx, edi
	mov	DWORD PTR [edi+8], edx
	call	?Realloc@CCorArray@@IAEXK@Z		; CCorArray::Realloc
	mov	edx, DWORD PTR _inIndex$[esp+12]
$L21943:
	mov	ecx, esi
	mov	esi, DWORD PTR [edi]
	xor	eax, eax
	lea	edi, DWORD PTR [esi+ebx*4]
	rep stosd
	pop	edi
	pop	esi
	pop	ebx
$L21937:

; 420  : 	mSurfaces[inIndex] = inSurface;

	mov	eax, DWORD PTR [ebp+152]
	mov	ecx, DWORD PTR _inSurface$[esp]

; 421  : 	if (!inSurface)

	test	ecx, ecx
	mov	DWORD PTR [eax+edx*4], ecx
	pop	ebp
	jne	SHORT $L12357

; 422  : 		return(0);

	xor	al, al

; 425  : }

	ret	8
$L12357:

; 423  : 	inSurface->CacheIn();

	call	?CacheIn@OCpjChunk@@QAE_NXZ		; OCpjChunk::CacheIn

; 424  : 	return(1);

	mov	al, 1

; 425  : }

	ret	8
?SetSurface@OMacActor@@QAE_NKPAVOCpjSurface@@@Z ENDP	; OMacActor::SetSurface
_TEXT	ENDS
PUBLIC	?AddFrames@OMacActor@@QAE_NPAVOCpjProject@@@Z	; OMacActor::AddFrames
PUBLIC	?Reset@CObjIter@@QAEXPAVOObject@@_N@Z		; CObjIter::Reset
EXTRN	?staticObjClass@OCpjFrames@@0PAVCObjClass@@A:DWORD ; OCpjFrames::staticObjClass
; Function compile flags: /Ogty
;	COMDAT ?AddFrames@OMacActor@@QAE_NPAVOCpjProject@@@Z
_TEXT	SEGMENT
_inProject$ = 8
_this$ = -16
_it$ = -12
?AddFrames@OMacActor@@QAE_NPAVOCpjProject@@@Z PROC NEAR	; OMacActor::AddFrames, COMDAT
; _this$ = ecx

; 427  : {

	sub	esp, 16					; 00000010H
	push	esi

; 428  : 	if (!inProject)

	mov	esi, DWORD PTR _inProject$[esp+16]
	test	esi, esi
	mov	DWORD PTR _this$[esp+20], ecx
	jne	SHORT $L12362

; 429  : 		return(0);

	xor	al, al
	pop	esi

; 433  : }

	add	esp, 16					; 00000010H
	ret	4
$L12362:
	push	ebp
	push	edi

; 430  : 	for (TObjIter<OCpjFrames> it(inProject); it; it++)

	push	0
	push	esi
	lea	ecx, DWORD PTR _it$[esp+36]
	call	?Reset@CObjIter@@QAEXPAVOObject@@_N@Z	; CObjIter::Reset
	add	esi, 24					; 00000018H
	lea	ecx, DWORD PTR _it$[esp+28]
	mov	DWORD PTR _it$[esp+32], 0
	mov	DWORD PTR _it$[esp+28], esi
	mov	BYTE PTR _it$[esp+36], 0
	call	?GetNext@CObjIter@@IAEXXZ		; CObjIter::GetNext
	mov	eax, DWORD PTR _it$[esp+32]
	lea	ecx, DWORD PTR _it$[esp+28]
	mov	DWORD PTR _it$[esp+28], eax
	call	?GetNext@CObjIter@@IAEXXZ		; CObjIter::GetNext
	lea	ecx, DWORD PTR _it$[esp+28]
	call	?AdvanceToType@?$TObjIter@VOCpjFrames@@@@IAEXXZ ; TObjIter<OCpjFrames>::AdvanceToType
$L22174:
	mov	eax, DWORD PTR _it$[esp+28]
$L22047:
	test	eax, eax
	je	$L22171
	mov	ebp, DWORD PTR [eax]
	test	ebp, ebp
	je	$L22171

; 431  : 		mFrames.AddItem(*it);

	mov	ecx, DWORD PTR _this$[esp+28]
	mov	edi, DWORD PTR [ecx+172]
	lea	esi, DWORD PTR [ecx+168]
	mov	ecx, DWORD PTR [ecx+176]
	lea	eax, DWORD PTR [edi+1]
	cmp	eax, ecx
	mov	DWORD PTR [esi+4], eax
	jbe	SHORT $L22151
	mov	edx, eax
	push	4
	shr	edx, 2
	mov	ecx, esi
	lea	eax, DWORD PTR [edx+eax+32]
	mov	DWORD PTR [esi+8], eax
	call	?Realloc@CCorArray@@IAEXK@Z		; CCorArray::Realloc
$L22151:
	mov	ecx, DWORD PTR [esi]
	mov	DWORD PTR [ecx+edi*4], ebp
	mov	cl, BYTE PTR _it$[esp+36]
	mov	eax, DWORD PTR _it$[esp+32]
	test	cl, cl
	mov	DWORD PTR _it$[esp+28], eax
	je	SHORT $L22056
	mov	edx, DWORD PTR [eax+12]
	mov	DWORD PTR _it$[esp+32], edx
	jmp	SHORT $L22070

; 430  : 	for (TObjIter<OCpjFrames> it(inProject); it; it++)

$L22056:
	mov	ecx, DWORD PTR [eax+8]
	mov	DWORD PTR _it$[esp+32], ecx
$L22070:
	test	eax, eax
	je	SHORT $L22171
	cmp	DWORD PTR [eax], 0
	je	SHORT $L22047
	lea	ecx, DWORD PTR _it$[esp+28]
	call	?GetObject@CObjIter@@IAEPAVOObject@@XZ	; CObjIter::GetObject
	mov	ecx, DWORD PTR ?staticObjClass@OCpjFrames@@0PAVCObjClass@@A ; OCpjFrames::staticObjClass
	mov	edx, DWORD PTR [eax]
	push	ecx
	mov	ecx, eax
	call	DWORD PTR [edx+44]
	test	al, al
	jne	$L22174
	mov	edx, DWORD PTR _it$[esp+32]
	lea	ecx, DWORD PTR _it$[esp+28]
	mov	DWORD PTR _it$[esp+28], edx
	call	?GetNext@CObjIter@@IAEXXZ		; CObjIter::GetNext
	mov	eax, DWORD PTR _it$[esp+28]
	jmp	SHORT $L22070
$L22171:
	pop	edi
	pop	ebp

; 432  : 	return(1);

	mov	al, 1
	pop	esi

; 433  : }

	add	esp, 16					; 00000010H
	ret	4
?AddFrames@OMacActor@@QAE_NPAVOCpjProject@@@Z ENDP	; OMacActor::AddFrames
_TEXT	ENDS
PUBLIC	?AddSequences@OMacActor@@QAE_NPAVOCpjProject@@@Z ; OMacActor::AddSequences
EXTRN	?staticObjClass@OCpjSequence@@0PAVCObjClass@@A:DWORD ; OCpjSequence::staticObjClass
; Function compile flags: /Ogty
;	COMDAT ?AddSequences@OMacActor@@QAE_NPAVOCpjProject@@@Z
_TEXT	SEGMENT
_inProject$ = 8
_this$ = -16
_it$ = -12
?AddSequences@OMacActor@@QAE_NPAVOCpjProject@@@Z PROC NEAR ; OMacActor::AddSequences, COMDAT
; _this$ = ecx

; 435  : {

	sub	esp, 16					; 00000010H
	push	esi

; 436  : 	if (!inProject)

	mov	esi, DWORD PTR _inProject$[esp+16]
	test	esi, esi
	mov	DWORD PTR _this$[esp+20], ecx
	jne	SHORT $L12393

; 437  : 		return(0);

	xor	al, al
	pop	esi

; 441  : }

	add	esp, 16					; 00000010H
	ret	4
$L12393:
	push	ebp
	push	edi

; 438  : 	for (TObjIter<OCpjSequence> it(inProject); it; it++)

	push	0
	push	esi
	lea	ecx, DWORD PTR _it$[esp+36]
	call	?Reset@CObjIter@@QAEXPAVOObject@@_N@Z	; CObjIter::Reset
	add	esi, 24					; 00000018H
	lea	ecx, DWORD PTR _it$[esp+28]
	mov	DWORD PTR _it$[esp+32], 0
	mov	DWORD PTR _it$[esp+28], esi
	mov	BYTE PTR _it$[esp+36], 0
	call	?GetNext@CObjIter@@IAEXXZ		; CObjIter::GetNext
	mov	eax, DWORD PTR _it$[esp+32]
	lea	ecx, DWORD PTR _it$[esp+28]
	mov	DWORD PTR _it$[esp+28], eax
	call	?GetNext@CObjIter@@IAEXXZ		; CObjIter::GetNext
	lea	ecx, DWORD PTR _it$[esp+28]
	call	?AdvanceToType@?$TObjIter@VOCpjSequence@@@@IAEXXZ ; TObjIter<OCpjSequence>::AdvanceToType
$L22402:
	mov	eax, DWORD PTR _it$[esp+28]
$L22275:
	test	eax, eax
	je	$L22399
	mov	ebp, DWORD PTR [eax]
	test	ebp, ebp
	je	$L22399

; 439  : 		mSequences.AddItem(*it);

	mov	ecx, DWORD PTR _this$[esp+28]
	mov	edi, DWORD PTR [ecx+188]
	lea	esi, DWORD PTR [ecx+184]
	mov	ecx, DWORD PTR [ecx+192]
	lea	eax, DWORD PTR [edi+1]
	cmp	eax, ecx
	mov	DWORD PTR [esi+4], eax
	jbe	SHORT $L22381
	mov	edx, eax
	push	4
	shr	edx, 2
	mov	ecx, esi
	lea	eax, DWORD PTR [edx+eax+32]
	mov	DWORD PTR [esi+8], eax
	call	?Realloc@CCorArray@@IAEXK@Z		; CCorArray::Realloc
$L22381:
	mov	ecx, DWORD PTR [esi]
	mov	DWORD PTR [ecx+edi*4], ebp
	mov	cl, BYTE PTR _it$[esp+36]
	mov	eax, DWORD PTR _it$[esp+32]
	test	cl, cl
	mov	DWORD PTR _it$[esp+28], eax
	je	SHORT $L22280
	mov	edx, DWORD PTR [eax+12]
	mov	DWORD PTR _it$[esp+32], edx
	jmp	SHORT $L22288

; 438  : 	for (TObjIter<OCpjSequence> it(inProject); it; it++)

$L22280:
	mov	ecx, DWORD PTR [eax+8]
	mov	DWORD PTR _it$[esp+32], ecx
$L22288:
	test	eax, eax
	je	SHORT $L22399
	cmp	DWORD PTR [eax], 0
	je	SHORT $L22275
	lea	ecx, DWORD PTR _it$[esp+28]
	call	?GetObject@CObjIter@@IAEPAVOObject@@XZ	; CObjIter::GetObject
	mov	ecx, DWORD PTR ?staticObjClass@OCpjSequence@@0PAVCObjClass@@A ; OCpjSequence::staticObjClass
	mov	edx, DWORD PTR [eax]
	push	ecx
	mov	ecx, eax
	call	DWORD PTR [edx+44]
	test	al, al
	jne	$L22402
	mov	edx, DWORD PTR _it$[esp+32]
	lea	ecx, DWORD PTR _it$[esp+28]
	mov	DWORD PTR _it$[esp+28], edx
	call	?GetNext@CObjIter@@IAEXXZ		; CObjIter::GetNext
	mov	eax, DWORD PTR _it$[esp+28]
	jmp	SHORT $L22288
$L22399:
	pop	edi
	pop	ebp

; 440  : 	return(1);

	mov	al, 1
	pop	esi

; 441  : }

	add	esp, 16					; 00000010H
	ret	4
?AddSequences@OMacActor@@QAE_NPAVOCpjProject@@@Z ENDP	; OMacActor::AddSequences
_TEXT	ENDS
PUBLIC	??_C@_08PDKO@autoexec?$AA@			; `string'
PUBLIC	?Remove@?$TCorArray@PAVOCpjSurface@@@@QAEXKK@Z	; TCorArray<OCpjSurface *>::Remove
PUBLIC	?Remove@?$TCorArray@PAVOCpjFrames@@@@QAEXKK@Z	; TCorArray<OCpjFrames *>::Remove
PUBLIC	?Remove@?$TCorArray@PAVOCpjSequence@@@@QAEXKK@Z	; TCorArray<OCpjSequence *>::Remove
PUBLIC	?Remove@?$TCorArray@VCCorString@@@@QAEXKK@Z	; TCorArray<CCorString>::Remove
EXTRN	?staticObjClass@OCpjProject@@0PAVCObjClass@@A:DWORD ; OCpjProject::staticObjClass
EXTRN	?Msgf@IMsgTarget@@QAA_NPADZZ:NEAR		; IMsgTarget::Msgf
;	COMDAT ??_C@_08PDKO@autoexec?$AA@
; File C:\duke4\Cannibal\CorMain.h
_DATA	SEGMENT
??_C@_08PDKO@autoexec?$AA@ DB 'autoexec', 00H		; `string'
; Function compile flags: /Ogty
; File C:\duke4\Cannibal\MacMain.cpp
_DATA	ENDS
;	COMDAT ?LoadConfig@OMacActor@@QAE_NPAVOCpjConfig@@@Z
_TEXT	SEGMENT
_inConfig$ = 8
?LoadConfig@OMacActor@@QAE_NPAVOCpjConfig@@@Z PROC NEAR	; OMacActor::LoadConfig, COMDAT
; _this$ = ecx

; 444  : {

	push	ebx
	push	ebp
	push	esi
	push	edi
	mov	edi, ecx

; 445  : 	NDword i;
; 446  : 
; 447  : 	mLoadProject = NULL;

	xor	ebx, ebx

; 448  : 	
; 449  : 	mGeometry = NULL;
; 450  : 	mSkeleton = NULL;
; 451  : 	mLodData = NULL;
; 452  : 	mSurfaces.Purge(); mSurfaces.Shrink();

	lea	esi, DWORD PTR [edi+152]
	mov	DWORD PTR [edi+68], ebx
	mov	DWORD PTR [edi+140], ebx
	mov	DWORD PTR [edi+144], ebx
	mov	DWORD PTR [edi+148], ebx
	mov	eax, DWORD PTR [esi+4]
	push	eax
	push	ebx
	mov	ecx, esi
	call	?Remove@?$TCorArray@PAVOCpjSurface@@@@QAEXKK@Z ; TCorArray<OCpjSurface *>::Remove
	mov	eax, DWORD PTR [esi+4]
	mov	ecx, DWORD PTR [esi+8]
	cmp	ecx, eax
	je	SHORT $L22416
	push	4
	mov	ecx, esi
	mov	DWORD PTR [esi+8], eax
	call	?Realloc@CCorArray@@IAEXK@Z		; CCorArray::Realloc
$L22416:

; 453  : 	mFrames.Purge(); mFrames.Shrink();

	mov	ecx, DWORD PTR [edi+172]
	lea	esi, DWORD PTR [edi+168]
	push	ecx
	push	ebx
	mov	ecx, esi
	call	?Remove@?$TCorArray@PAVOCpjFrames@@@@QAEXKK@Z ; TCorArray<OCpjFrames *>::Remove
	mov	eax, DWORD PTR [esi+4]
	mov	ecx, DWORD PTR [esi+8]
	cmp	ecx, eax
	je	SHORT $L22425
	push	4
	mov	ecx, esi
	mov	DWORD PTR [esi+8], eax
	call	?Realloc@CCorArray@@IAEXK@Z		; CCorArray::Realloc
$L22425:

; 454  : 	mSequences.Purge(); mSequences.Shrink();

	mov	edx, DWORD PTR [edi+188]
	lea	esi, DWORD PTR [edi+184]
	push	edx
	push	ebx
	mov	ecx, esi
	call	?Remove@?$TCorArray@PAVOCpjSequence@@@@QAEXKK@Z ; TCorArray<OCpjSequence *>::Remove
	mov	eax, DWORD PTR [esi+4]
	mov	ecx, DWORD PTR [esi+8]
	cmp	ecx, eax
	je	SHORT $L22434
	push	4
	mov	ecx, esi
	mov	DWORD PTR [esi+8], eax
	call	?Realloc@CCorArray@@IAEXK@Z		; CCorArray::Realloc
$L22434:

; 455  : 	mFramesFiles.Purge(); mFramesFiles.Shrink();

	mov	eax, DWORD PTR [edi+204]
	lea	esi, DWORD PTR [edi+200]
	push	eax
	push	ebx
	mov	ecx, esi
	call	?Remove@?$TCorArray@VCCorString@@@@QAEXKK@Z ; TCorArray<CCorString>::Remove
	mov	eax, DWORD PTR [esi+4]
	mov	ecx, DWORD PTR [esi+8]
	cmp	ecx, eax
	je	SHORT $L22442
	push	4
	mov	ecx, esi
	mov	DWORD PTR [esi+8], eax
	call	?Realloc@CCorArray@@IAEXK@Z		; CCorArray::Realloc
$L22442:

; 456  : 	mFramesStarFiles.Purge(); mFramesStarFiles.Shrink();

	mov	ecx, DWORD PTR [edi+220]
	lea	esi, DWORD PTR [edi+216]
	push	ecx
	push	ebx
	mov	ecx, esi
	call	?Remove@?$TCorArray@VCCorString@@@@QAEXKK@Z ; TCorArray<CCorString>::Remove
	mov	eax, DWORD PTR [esi+4]
	mov	ecx, DWORD PTR [esi+8]
	cmp	ecx, eax
	je	SHORT $L22451
	push	4
	mov	ecx, esi
	mov	DWORD PTR [esi+8], eax
	call	?Realloc@CCorArray@@IAEXK@Z		; CCorArray::Realloc
$L22451:

; 457  : 	mSequencesFiles.Purge(); mSequencesFiles.Shrink();

	mov	edx, DWORD PTR [edi+236]
	lea	esi, DWORD PTR [edi+232]
	push	edx
	push	ebx
	mov	ecx, esi
	call	?Remove@?$TCorArray@VCCorString@@@@QAEXKK@Z ; TCorArray<CCorString>::Remove
	mov	eax, DWORD PTR [esi+4]
	mov	ecx, DWORD PTR [esi+8]
	cmp	ecx, eax
	je	SHORT $L22460
	push	4
	mov	ecx, esi
	mov	DWORD PTR [esi+8], eax
	call	?Realloc@CCorArray@@IAEXK@Z		; CCorArray::Realloc
$L22460:

; 458  : 	mSequencesStarFiles.Purge(); mSequencesStarFiles.Shrink();

	mov	eax, DWORD PTR [edi+252]
	lea	esi, DWORD PTR [edi+248]
	push	eax
	push	ebx
	mov	ecx, esi
	call	?Remove@?$TCorArray@VCCorString@@@@QAEXKK@Z ; TCorArray<CCorString>::Remove
	mov	eax, DWORD PTR [esi+4]
	mov	ecx, DWORD PTR [esi+8]
	cmp	ecx, eax
	je	SHORT $L22469
	push	4
	mov	ecx, esi
	mov	DWORD PTR [esi+8], eax
	call	?Realloc@CCorArray@@IAEXK@Z		; CCorArray::Realloc
$L22469:

; 459  : 
; 460  : 	mTraceInfo = NULL;
; 461  : 	
; 462  : 	if (!inConfig)

	mov	esi, DWORD PTR _inConfig$[esp+12]
	mov	DWORD PTR [edi+304], ebx
	cmp	esi, ebx
	jne	SHORT $L12425
	pop	edi
	pop	esi
	pop	ebp

; 463  : 		return(0);

	xor	al, al
	pop	ebx

; 487  : }

	ret	4
$L12425:

; 464  : 	inConfig->CacheIn();

	mov	ecx, esi
	call	?CacheIn@OCpjChunk@@QAE_NXZ		; OCpjChunk::CacheIn

; 465  : 
; 466  : 	// find autoexec section for processing
; 467  : 	CCpjMacSection* section = NULL;
; 468  : 	for (i=0;i<inConfig->m_Sections.GetCount();i++)

	cmp	DWORD PTR [esi+76], ebx
	jbe	SHORT $L22522

; 464  : 	inConfig->CacheIn();

	xor	ebp, ebp
$L12427:

; 469  : 	{
; 470  : 		if (!stricmp(*inConfig->m_Sections[i].name, "autoexec"))

	mov	eax, DWORD PTR [esi+72]
	add	eax, ebp
	mov	eax, DWORD PTR [eax]
	test	eax, eax
	jne	SHORT $L22488
	mov	eax, OFFSET FLAT:??_C@_00A@?$AA@	; `string'
$L22488:
	push	OFFSET FLAT:??_C@_08PDKO@autoexec?$AA@	; `string'
	push	eax
	call	DWORD PTR __imp__stricmp
	add	esp, 8
	test	eax, eax
	je	SHORT $L22519
	mov	eax, DWORD PTR [esi+76]
	inc	ebx
	add	ebp, 20					; 00000014H
	cmp	ebx, eax
	jb	SHORT $L12427
	pop	edi
	pop	esi
	pop	ebp

; 477  : 		return(0);

	xor	al, al
	pop	ebx

; 487  : }

	ret	4
$L22519:

; 471  : 		{
; 472  : 			section = &inConfig->m_Sections[i];

	mov	edx, DWORD PTR [esi+72]
	lea	ecx, DWORD PTR [ebx+ebx*4]
	lea	ebx, DWORD PTR [edx+ecx*4]

; 473  : 			break;
; 474  : 		}
; 475  : 	}
; 476  : 	if (!section)

	test	ebx, ebx
	jne	SHORT $L12432
$L22522:
	pop	edi
	pop	esi
	pop	ebp

; 477  : 		return(0);

	xor	al, al
	pop	ebx

; 487  : }

	ret	4
$L12432:

; 478  : 
; 479  : 	// we have our section, run the commands	
; 480  : 	if (inConfig->GetParent() && inConfig->GetParent()->IsA(OCpjProject::GetStaticClass()))

	mov	eax, DWORD PTR [esi]
	mov	ecx, esi
	call	DWORD PTR [eax+32]
	test	eax, eax
	je	SHORT $L12433
	mov	edx, DWORD PTR [esi]
	mov	ecx, esi
	call	DWORD PTR [edx+32]
	mov	ecx, DWORD PTR ?staticObjClass@OCpjProject@@0PAVCObjClass@@A ; OCpjProject::staticObjClass
	mov	edx, DWORD PTR [eax]
	push	ecx
	mov	ecx, eax
	call	DWORD PTR [edx+44]
	test	al, al
	je	SHORT $L12433

; 481  : 		mLoadProject = (OCpjProject*)inConfig->GetParent();

	mov	edx, DWORD PTR [esi]
	mov	ecx, esi
	call	DWORD PTR [edx+32]
	mov	DWORD PTR [edi+68], eax
$L12433:

; 482  : 	for (i=0;i<section->commands.GetCount();i++)

	mov	eax, DWORD PTR [ebx+8]
	xor	esi, esi
	test	eax, eax
	jbe	SHORT $L12437
$L12435:
	mov	eax, DWORD PTR [ebx+4]
	lea	eax, DWORD PTR [eax+esi*4]

; 483  : 		Msgf(*section->commands[i]);

	mov	eax, DWORD PTR [eax]
	test	eax, eax
	jne	SHORT $L22513
	mov	eax, OFFSET FLAT:??_C@_00A@?$AA@	; `string'
$L22513:
	push	eax
	push	edi
	call	?Msgf@IMsgTarget@@QAA_NPADZZ		; IMsgTarget::Msgf
	mov	eax, DWORD PTR [ebx+8]
	add	esp, 8
	inc	esi
	cmp	esi, eax
	jb	SHORT $L12435
$L12437:

; 484  : 	mLoadProject = NULL;

	mov	DWORD PTR [edi+68], 0
	pop	edi
	pop	esi
	pop	ebp

; 485  : 
; 486  : 	return(1);

	mov	al, 1
	pop	ebx

; 487  : }

	ret	4
?LoadConfig@OMacActor@@QAE_NPAVOCpjConfig@@@Z ENDP	; OMacActor::LoadConfig
_TEXT	ENDS
PUBLIC	??_C@_0P@HLNL@SetAuthor?5?$CC?$CFs?$CC?$AA@	; `string'
PUBLIC	??_C@_0BE@JMPP@SetDescription?5?$CC?$CFs?$CC?$AA@ ; `string'
PUBLIC	??_C@_0BD@GKMM@SetOrigin?5?$CFf?5?$CFf?5?$CFf?$AA@ ; `string'
PUBLIC	??_C@_0BC@NICM@SetScale?5?$CFf?5?$CFf?5?$CFf?$AA@ ; `string'
PUBLIC	??_C@_0BF@LOLC@SetRotation?5?$CFf?5?$CFf?5?$CFf?$AA@ ; `string'
PUBLIC	??_C@_0BG@BKJK@SetBoundsMin?5?$CFf?5?$CFf?5?$CFf?$AA@ ; `string'
PUBLIC	??_C@_0BG@JCEN@SetBoundsMax?5?$CFf?5?$CFf?5?$CFf?$AA@ ; `string'
PUBLIC	??_C@_0BB@PBDG@SetGeometry?5?$CC?$CFs?$CC?$AA@	; `string'
PUBLIC	??_C@_0BB@BEIB@SetSkeleton?5?$CC?$CFs?$CC?$AA@	; `string'
PUBLIC	??_C@_0BA@FMNO@SetLodData?5?$CC?$CFs?$CC?$AA@	; `string'
PUBLIC	??_C@_0BD@DNEA@SetSurface?5?$CFd?5?$CC?$CFs?$CC?$AA@ ; `string'
PUBLIC	??_C@_0BB@PHGO@AddFrames?5?$CCNULL?$CC?$AA@	; `string'
PUBLIC	??1?$TCorArray@PAVOCpjProject@@@@QAE@XZ		; TCorArray<OCpjProject *>::~TCorArray<OCpjProject *>
PUBLIC	?AddItem@?$TCorArray@PAVOCpjProject@@@@QAEKABQAVOCpjProject@@@Z ; TCorArray<OCpjProject *>::AddItem
PUBLIC	?Add@?$TCorArray@PAVOCpjProject@@@@QAEKK@Z	; TCorArray<OCpjProject *>::Add
PUBLIC	?FindItem@?$TCorArray@PAVOCpjProject@@@@QBE_NABQAVOCpjProject@@PAK@Z ; TCorArray<OCpjProject *>::FindItem
PUBLIC	??_C@_0P@LABC@AddFrames?5?$CC?$CFs?$CC?$AA@	; `string'
PUBLIC	??_C@_0BE@HFDO@AddSequences?5?$CCNULL?$CC?$AA@	; `string'
PUBLIC	??_C@_0BC@FMMO@AddSequences?5?$CC?$CFs?$CC?$AA@	; `string'
PUBLIC	__real@43340000
PUBLIC	__real@3ea2f983
PUBLIC	??3@YAXPAX0@Z					; operator delete
PUBLIC	??1CCorString@@QAE@XZ				; CCorString::~CCorString
PUBLIC	?AddNoConstruct@?$TCorArray@VCCorString@@@@QAEKK@Z ; TCorArray<CCorString>::AddNoConstruct
PUBLIC	??0CCpjMacSection@@QAE@XZ			; CCpjMacSection::CCpjMacSection
PUBLIC	?SaveConfig@OMacActor@@QAE_NPAVOCpjConfig@@@Z	; OMacActor::SaveConfig
PUBLIC	?AddNoConstruct@?$TCorArray@VCCpjMacSection@@@@QAEKK@Z ; TCorArray<CCpjMacSection>::AddNoConstruct
PUBLIC	??0CCorArray@@IAE@KK@Z				; CCorArray::CCorArray
EXTRN	__imp__memmove:NEAR
EXTRN	?STR_FilePath@@YAPADPAD@Z:NEAR			; STR_FilePath
EXTRN	__imp__sprintf:NEAR
EXTRN	__except_list:DWORD
EXTRN	___CxxFrameHandler:NEAR
EXTRN	?CPJ_GetProjectPath@@YAPBDPAVOCpjProject@@@Z:NEAR ; CPJ_GetProjectPath
EXTRN	?CPJ_GetChunkPath@@YAPBDPAVOCpjProject@@PAVOCpjChunk@@@Z:NEAR ; CPJ_GetChunkPath
;	COMDAT xdata$x
; File C:\duke4\Cannibal\CorMain.h
xdata$x	SEGMENT
$T23911	DD	0ffffffffH
	DD	FLAT:$L22605
	DD	0ffffffffH
	DD	FLAT:$L22553
	DD	0ffffffffH
	DD	FLAT:$L22554
	DD	0ffffffffH
	DD	FLAT:$L22555
	DD	0ffffffffH
	DD	FLAT:$L22556
	DD	0ffffffffH
	DD	FLAT:$L22557
	DD	0ffffffffH
	DD	FLAT:$L22558
	DD	0ffffffffH
	DD	FLAT:$L22559
	DD	0ffffffffH
	DD	FLAT:$L22560
	DD	0ffffffffH
	DD	FLAT:$L22561
	DD	0ffffffffH
	DD	FLAT:$L22562
	DD	0ffffffffH
	DD	FLAT:$L22563
	DD	0ffffffffH
	DD	FLAT:$L22564
	DD	0ffffffffH
	DD	FLAT:$L22565
	DD	0dH
	DD	FLAT:$L22566
	DD	0dH
	DD	FLAT:$L22567
	DD	0dH
	DD	FLAT:$L22568
	DD	0dH
	DD	FLAT:$L22569
	DD	0dH
	DD	FLAT:$L22570
	DD	012H
	DD	FLAT:$L22571
	DD	012H
	DD	FLAT:$L22572
	DD	012H
	DD	FLAT:$L22573
$T23816	DD	019930520H
	DD	016H
	DD	FLAT:$T23911
	DD	2 DUP(00H)
	DD	2 DUP(00H)
xdata$x	ENDS
;	COMDAT ??_C@_0P@HLNL@SetAuthor?5?$CC?$CFs?$CC?$AA@
_DATA	SEGMENT
??_C@_0P@HLNL@SetAuthor?5?$CC?$CFs?$CC?$AA@ DB 'SetAuthor "%s"', 00H ; `string'
_DATA	ENDS
;	COMDAT ??_C@_0BE@JMPP@SetDescription?5?$CC?$CFs?$CC?$AA@
_DATA	SEGMENT
??_C@_0BE@JMPP@SetDescription?5?$CC?$CFs?$CC?$AA@ DB 'SetDescription "%s"'
	DB	00H						; `string'
_DATA	ENDS
;	COMDAT ??_C@_0BD@GKMM@SetOrigin?5?$CFf?5?$CFf?5?$CFf?$AA@
_DATA	SEGMENT
??_C@_0BD@GKMM@SetOrigin?5?$CFf?5?$CFf?5?$CFf?$AA@ DB 'SetOrigin %f %f %f'
	DB	00H						; `string'
_DATA	ENDS
;	COMDAT ??_C@_0BC@NICM@SetScale?5?$CFf?5?$CFf?5?$CFf?$AA@
_DATA	SEGMENT
??_C@_0BC@NICM@SetScale?5?$CFf?5?$CFf?5?$CFf?$AA@ DB 'SetScale %f %f %f', 00H ; `string'
_DATA	ENDS
;	COMDAT __real@43340000
CONST	SEGMENT
__real@43340000 DD 043340000r			; 180
CONST	ENDS
;	COMDAT __real@3ea2f983
CONST	SEGMENT
__real@3ea2f983 DD 03ea2f983r			; 0.31831
CONST	ENDS
;	COMDAT ??_C@_0BF@LOLC@SetRotation?5?$CFf?5?$CFf?5?$CFf?$AA@
_DATA	SEGMENT
??_C@_0BF@LOLC@SetRotation?5?$CFf?5?$CFf?5?$CFf?$AA@ DB 'SetRotation %f %'
	DB	'f %f', 00H					; `string'
_DATA	ENDS
;	COMDAT ??_C@_0BG@BKJK@SetBoundsMin?5?$CFf?5?$CFf?5?$CFf?$AA@
_DATA	SEGMENT
??_C@_0BG@BKJK@SetBoundsMin?5?$CFf?5?$CFf?5?$CFf?$AA@ DB 'SetBoundsMin %f'
	DB	' %f %f', 00H				; `string'
_DATA	ENDS
;	COMDAT ??_C@_0BG@JCEN@SetBoundsMax?5?$CFf?5?$CFf?5?$CFf?$AA@
_DATA	SEGMENT
??_C@_0BG@JCEN@SetBoundsMax?5?$CFf?5?$CFf?5?$CFf?$AA@ DB 'SetBoundsMax %f'
	DB	' %f %f', 00H				; `string'
_DATA	ENDS
;	COMDAT ??_C@_0BB@PBDG@SetGeometry?5?$CC?$CFs?$CC?$AA@
_DATA	SEGMENT
??_C@_0BB@PBDG@SetGeometry?5?$CC?$CFs?$CC?$AA@ DB 'SetGeometry "%s"', 00H ; `string'
_DATA	ENDS
;	COMDAT ??_C@_0BB@BEIB@SetSkeleton?5?$CC?$CFs?$CC?$AA@
_DATA	SEGMENT
??_C@_0BB@BEIB@SetSkeleton?5?$CC?$CFs?$CC?$AA@ DB 'SetSkeleton "%s"', 00H ; `string'
_DATA	ENDS
;	COMDAT ??_C@_0BA@FMNO@SetLodData?5?$CC?$CFs?$CC?$AA@
_DATA	SEGMENT
??_C@_0BA@FMNO@SetLodData?5?$CC?$CFs?$CC?$AA@ DB 'SetLodData "%s"', 00H ; `string'
_DATA	ENDS
;	COMDAT ??_C@_0BD@DNEA@SetSurface?5?$CFd?5?$CC?$CFs?$CC?$AA@
_DATA	SEGMENT
??_C@_0BD@DNEA@SetSurface?5?$CFd?5?$CC?$CFs?$CC?$AA@ DB 'SetSurface %d "%'
	DB	's"', 00H					; `string'
_DATA	ENDS
;	COMDAT ??_C@_0BB@PHGO@AddFrames?5?$CCNULL?$CC?$AA@
_DATA	SEGMENT
??_C@_0BB@PHGO@AddFrames?5?$CCNULL?$CC?$AA@ DB 'AddFrames "NULL"', 00H ; `string'
_DATA	ENDS
;	COMDAT ??_C@_0P@LABC@AddFrames?5?$CC?$CFs?$CC?$AA@
_DATA	SEGMENT
??_C@_0P@LABC@AddFrames?5?$CC?$CFs?$CC?$AA@ DB 'AddFrames "%s"', 00H ; `string'
_DATA	ENDS
;	COMDAT ??_C@_0BE@HFDO@AddSequences?5?$CCNULL?$CC?$AA@
_DATA	SEGMENT
??_C@_0BE@HFDO@AddSequences?5?$CCNULL?$CC?$AA@ DB 'AddSequences "NULL"', 00H ; `string'
_DATA	ENDS
;	COMDAT ??_C@_0BC@FMMO@AddSequences?5?$CC?$CFs?$CC?$AA@
_DATA	SEGMENT
??_C@_0BC@FMMO@AddSequences?5?$CC?$CFs?$CC?$AA@ DB 'AddSequences "%s"', 00H ; `string'
; Function compile flags: /Ogty
; File C:\duke4\Cannibal\MacMain.cpp
_DATA	ENDS
;	COMDAT ?SaveConfig@OMacActor@@QAE_NPAVOCpjConfig@@@Z
_TEXT	SEGMENT
$T22527 = -828
$T22528 = -828
$T22529 = -828
$T22530 = -828
$T22531 = -828
$T22532 = -828
$T22533 = -828
$T22534 = -828
$T22535 = -828
$T22536 = -828
$T22537 = -828
$T22538 = -828
$T22539 = -828
$T22542 = -828
$T22543 = -828
$T22544 = -828
$T22545 = -828
$T22546 = -828
$T22549 = -816
$T22550 = -828
$T22551 = -824
_inConfig$ = 8
_configProject$ = -824
_i$ = -820
_buf$ = -780
$T22620 = -820
$T22621 = -816
$T23643 = -828
_path$ = -828
$T22649 = -816
$T22689 = -816
_frmProjects$ = -796
_b1$12552 = -268
_b2$12557 = -524
_seqProjects$ = -812
_b1$12593 = -524
_b2$12598 = -268
__$EHRec$ = -12
_i$22989 = -816
$T23297 = -828
?SaveConfig@OMacActor@@QAE_NPAVOCpjConfig@@@Z PROC NEAR	; OMacActor::SaveConfig, COMDAT
; _this$ = ecx

; 490  : {

	mov	eax, DWORD PTR fs:__except_list
	push	-1
	push	$L23909
	push	eax
	mov	DWORD PTR fs:__except_list, esp
	sub	esp, 816				; 00000330H
	push	ebx
	push	esi
	push	edi

; 491  : 	if (!inConfig)

	mov	edi, DWORD PTR _inConfig$[esp+836]
	xor	ebx, ebx
	mov	esi, ecx
	cmp	edi, ebx
	jne	SHORT $L12442

; 492  : 		return(0);

	xor	al, al
	jmp	$L12441
$L12442:

; 493  : 	inConfig->CacheIn();

	mov	ecx, edi
	call	?CacheIn@OCpjChunk@@QAE_NXZ		; OCpjChunk::CacheIn

; 494  : 
; 495  : 	OCpjProject* configProject = NULL;
; 496  : 	if (inConfig->GetParent() && inConfig->GetParent()->IsA(OCpjProject::GetStaticClass()))

	mov	eax, DWORD PTR [edi]
	mov	ecx, edi
	mov	DWORD PTR _configProject$[esp+840], ebx
	call	DWORD PTR [eax+32]
	test	eax, eax
	je	SHORT $L12444
	mov	edx, DWORD PTR [edi]
	mov	ecx, edi
	call	DWORD PTR [edx+32]
	mov	ecx, DWORD PTR ?staticObjClass@OCpjProject@@0PAVCObjClass@@A ; OCpjProject::staticObjClass
	mov	edx, DWORD PTR [eax]
	push	ecx
	mov	ecx, eax
	call	DWORD PTR [edx+44]
	test	al, al
	je	SHORT $L12444

; 497  : 		configProject = (OCpjProject*)inConfig->GetParent();

	mov	edx, DWORD PTR [edi]
	mov	ecx, edi
	call	DWORD PTR [edx+32]
	mov	DWORD PTR _configProject$[esp+840], eax
$L12444:

; 498  : 
; 499  : 	// find autoexec section for processing
; 500  : 	CCpjMacSection* section = NULL;
; 501  : 	for (NDword i=0;i<inConfig->m_Sections.GetCount();i++)

	mov	eax, DWORD PTR [edi+76]
	push	ebp
	xor	ebp, ebp
	cmp	eax, ebx
	jbe	SHORT $L23876
$L12448:

; 502  : 	{
; 503  : 		if (!stricmp(*inConfig->m_Sections[i].name, "autoexec"))

	mov	eax, DWORD PTR [edi+72]
	add	eax, ebx
	mov	eax, DWORD PTR [eax]
	test	eax, eax
	jne	SHORT $L22592
	mov	eax, OFFSET FLAT:??_C@_00A@?$AA@	; `string'
$L22592:
	push	OFFSET FLAT:??_C@_08PDKO@autoexec?$AA@	; `string'
	push	eax
	call	DWORD PTR __imp__stricmp
	add	esp, 8
	test	eax, eax
	je	SHORT $L23849
	mov	eax, DWORD PTR [edi+76]
	inc	ebp
	add	ebx, 20					; 00000014H
	cmp	ebp, eax
	jb	SHORT $L12448

; 629  : 				if (!stricmp(b1, b2))

	jmp	SHORT $L23876
$L23849:

; 504  : 		{
; 505  : 			section = &inConfig->m_Sections[i];

	mov	ecx, DWORD PTR [edi+72]
	lea	eax, DWORD PTR [ebp+ebp*4]
	lea	ebp, DWORD PTR [ecx+eax*4]

; 506  : 			break;
; 507  : 		}
; 508  : 	}
; 509  : 	if (!section)

	test	ebp, ebp
	jne	SHORT $L22634
$L23876:

; 510  : 	{
; 511  : 		section = &inConfig->m_Sections[inConfig->m_Sections.Add()];

	lea	ebx, DWORD PTR [edi+72]
	push	1
	mov	ecx, ebx
	call	?AddNoConstruct@?$TCorArray@VCCpjMacSection@@@@QAEKK@Z ; TCorArray<CCpjMacSection>::AddNoConstruct
	mov	edi, eax
	lea	eax, DWORD PTR [edi+1]
	cmp	edi, eax
	jae	SHORT $L22617
	lea	ebp, DWORD PTR [edi+edi*4]
	shl	ebp, 2
	sub	eax, edi
	mov	DWORD PTR -828+[esp+844], eax
$L22615:
	mov	ecx, DWORD PTR [ebx]
	add	ecx, ebp
	mov	DWORD PTR $T22621[esp+844], ecx
	mov	DWORD PTR $T22620[esp+844], ecx
	mov	DWORD PTR __$EHRec$[esp+852], 0
	je	SHORT $L22622
	call	??0CCpjMacSection@@QAE@XZ		; CCpjMacSection::CCpjMacSection
$L22622:
	mov	eax, DWORD PTR -828+[esp+844]
	add	ebp, 20					; 00000014H
	dec	eax
	mov	DWORD PTR __$EHRec$[esp+852], -1
	mov	DWORD PTR -828+[esp+844], eax
	jne	SHORT $L22615
$L22617:
	mov	eax, DWORD PTR [ebx]
	lea	edx, DWORD PTR [edi+edi*4]

; 512  : 		section->name = "autoexec";

	push	OFFSET FLAT:??_C@_08PDKO@autoexec?$AA@	; `string'
	lea	ebp, DWORD PTR [eax+edx*4]
	mov	ecx, ebp
	call	?Set@CCorString@@QAEXPAD@Z		; CCorString::Set
$L22634:

; 513  : 	}
; 514  : 
; 515  : 	// nuke the contents of the section
; 516  : 	section->commands.Purge(); section->commands.Shrink();

	mov	ecx, DWORD PTR [ebp+8]
	add	ebp, 4
	push	ecx
	push	0
	mov	ecx, ebp
	call	?Remove@?$TCorArray@VCCorString@@@@QAEXKK@Z ; TCorArray<CCorString>::Remove
	mov	eax, DWORD PTR [ebp+4]
	mov	ecx, DWORD PTR [ebp+8]
	cmp	ecx, eax
	je	SHORT $L22640
	push	4
	mov	ecx, ebp
	mov	DWORD PTR [ebp+8], eax
	call	?Realloc@CCorArray@@IAEXK@Z		; CCorArray::Realloc
$L22640:

; 517  : 
; 518  : 	// add commands for regular properties
; 519  : 	char buf[256];
; 520  : 	if (mAuthor.Len()) { sprintf(buf, "SetAuthor \"%s\"", *mAuthor); section->commands.AddItem(buf); }

	mov	edi, DWORD PTR [esi+72]
	mov	ebx, DWORD PTR __imp__sprintf
	test	edi, edi
	je	SHORT $L22683
	or	ecx, -1
	xor	eax, eax
	repne scasb
	not	ecx
	dec	ecx
	mov	DWORD PTR $T22649[esp+844], ecx
	je	SHORT $L22683
	mov	eax, DWORD PTR [esi+72]
	test	eax, eax
	jne	SHORT $L22658
	mov	eax, OFFSET FLAT:??_C@_00A@?$AA@	; `string'
$L22658:
	push	eax
	lea	edx, DWORD PTR _buf$[esp+848]
	push	OFFSET FLAT:??_C@_0P@HLNL@SetAuthor?5?$CC?$CFs?$CC?$AA@ ; `string'
	push	edx
	call	ebx
	add	esp, 12					; 0000000cH
	lea	eax, DWORD PTR _buf$[esp+844]
	lea	ecx, DWORD PTR $T22527[esp+844]
	mov	DWORD PTR $T22527[esp+844], 0
	push	eax
	call	?Set@CCorString@@QAEXPAD@Z		; CCorString::Set
	push	1
	mov	ecx, ebp
	mov	DWORD PTR __$EHRec$[esp+856], 1
	call	?Add@?$TCorArray@VCCorString@@@@QAEKK@Z	; TCorArray<CCorString>::Add
	mov	ecx, DWORD PTR [ebp]
	mov	edx, DWORD PTR $T22527[esp+844]
	push	edx
	lea	ecx, DWORD PTR [ecx+eax*4]
	call	?Set@CCorString@@QAEXPAD@Z		; CCorString::Set
	push	0
	lea	ecx, DWORD PTR $T22527[esp+848]
	mov	DWORD PTR __$EHRec$[esp+856], -1
	call	?Set@CCorString@@QAEXPAD@Z		; CCorString::Set
$L22683:

; 521  : 	if (mDescription.Len()) { sprintf(buf, "SetDescription \"%s\"", *mDescription); section->commands.AddItem(buf); }

	mov	edi, DWORD PTR [esi+76]
	test	edi, edi
	je	SHORT $L22723
	or	ecx, -1
	xor	eax, eax
	repne scasb
	not	ecx
	dec	ecx
	mov	DWORD PTR $T22689[esp+844], ecx
	je	SHORT $L22723
	mov	eax, DWORD PTR [esi+76]
	test	eax, eax
	jne	SHORT $L22698
	mov	eax, OFFSET FLAT:??_C@_00A@?$AA@	; `string'
$L22698:
	push	eax
	lea	eax, DWORD PTR _buf$[esp+848]
	push	OFFSET FLAT:??_C@_0BE@JMPP@SetDescription?5?$CC?$CFs?$CC?$AA@ ; `string'
	push	eax
	call	ebx
	add	esp, 12					; 0000000cH
	lea	ecx, DWORD PTR _buf$[esp+844]
	mov	DWORD PTR $T22528[esp+844], 0
	push	ecx
	lea	ecx, DWORD PTR $T22528[esp+848]
	call	?Set@CCorString@@QAEXPAD@Z		; CCorString::Set
	push	1
	mov	ecx, ebp
	mov	DWORD PTR __$EHRec$[esp+856], 2
	call	?Add@?$TCorArray@VCCorString@@@@QAEKK@Z	; TCorArray<CCorString>::Add
	mov	edx, DWORD PTR [ebp]
	lea	ecx, DWORD PTR [edx+eax*4]
	mov	eax, DWORD PTR $T22528[esp+844]
	push	eax
	call	?Set@CCorString@@QAEXPAD@Z		; CCorString::Set
	push	0
	lea	ecx, DWORD PTR $T22528[esp+848]
	mov	DWORD PTR __$EHRec$[esp+856], -1
	call	?Set@CCorString@@QAEXPAD@Z		; CCorString::Set
$L22723:

; 522  : 	sprintf(buf, "SetOrigin %f %f %f", mOrigin.x, mOrigin.y, mOrigin.z); section->commands.AddItem(buf);

	fld	DWORD PTR [esi+88]
	sub	esp, 24					; 00000018H
	lea	ecx, DWORD PTR _buf$[esp+868]
	fstp	QWORD PTR [esp+16]
	fld	DWORD PTR [esi+84]
	fstp	QWORD PTR [esp+8]
	fld	DWORD PTR [esi+80]
	fstp	QWORD PTR [esp]
	push	OFFSET FLAT:??_C@_0BD@GKMM@SetOrigin?5?$CFf?5?$CFf?5?$CFf?$AA@ ; `string'
	push	ecx
	call	ebx
	add	esp, 32					; 00000020H
	lea	edx, DWORD PTR _buf$[esp+844]
	xor	edi, edi
	lea	ecx, DWORD PTR $T22529[esp+844]
	push	edx
	mov	DWORD PTR $T22529[esp+848], edi
	call	?Set@CCorString@@QAEXPAD@Z		; CCorString::Set
	push	1
	mov	ecx, ebp
	mov	DWORD PTR __$EHRec$[esp+856], 3
	call	?Add@?$TCorArray@VCCorString@@@@QAEKK@Z	; TCorArray<CCorString>::Add
	mov	ecx, DWORD PTR [ebp]
	mov	edx, DWORD PTR $T22529[esp+844]
	push	edx
	lea	ecx, DWORD PTR [ecx+eax*4]
	call	?Set@CCorString@@QAEXPAD@Z		; CCorString::Set
	push	edi
	lea	ecx, DWORD PTR $T22529[esp+848]
	mov	DWORD PTR __$EHRec$[esp+856], -1
	call	?Set@CCorString@@QAEXPAD@Z		; CCorString::Set

; 523  : 	sprintf(buf, "SetScale %f %f %f", mScale.x, mScale.y, mScale.z); section->commands.AddItem(buf);

	fld	DWORD PTR [esi+100]
	sub	esp, 24					; 00000018H
	lea	eax, DWORD PTR _buf$[esp+868]
	fstp	QWORD PTR [esp+16]
	fld	DWORD PTR [esi+96]
	fstp	QWORD PTR [esp+8]
	fld	DWORD PTR [esi+92]
	fstp	QWORD PTR [esp]
	push	OFFSET FLAT:??_C@_0BC@NICM@SetScale?5?$CFf?5?$CFf?5?$CFf?$AA@ ; `string'
	push	eax
	call	ebx
	add	esp, 32					; 00000020H
	lea	ecx, DWORD PTR _buf$[esp+844]
	mov	DWORD PTR $T22530[esp+844], edi
	push	ecx
	lea	ecx, DWORD PTR $T22530[esp+848]
	call	?Set@CCorString@@QAEXPAD@Z		; CCorString::Set
	push	1
	mov	ecx, ebp
	mov	DWORD PTR __$EHRec$[esp+856], 4
	call	?Add@?$TCorArray@VCCorString@@@@QAEKK@Z	; TCorArray<CCorString>::Add
	mov	edx, DWORD PTR [ebp]
	lea	ecx, DWORD PTR [edx+eax*4]
	mov	eax, DWORD PTR $T22530[esp+844]
	push	eax
	call	?Set@CCorString@@QAEXPAD@Z		; CCorString::Set
	push	edi
	lea	ecx, DWORD PTR $T22530[esp+848]
	mov	DWORD PTR __$EHRec$[esp+856], -1
	call	?Set@CCorString@@QAEXPAD@Z		; CCorString::Set

; 524  : 	sprintf(buf, "SetRotation %f %f %f", M_RADTODEG(mRotation.r), M_RADTODEG(mRotation.p), M_RADTODEG(mRotation.y)); section->commands.AddItem(buf);

	fld	DWORD PTR [esi+112]
	fmul	DWORD PTR __real@43340000
	sub	esp, 24					; 00000018H
	fmul	DWORD PTR __real@3ea2f983
	fstp	QWORD PTR [esp+16]
	fld	DWORD PTR [esi+108]
	fmul	DWORD PTR __real@43340000
	fmul	DWORD PTR __real@3ea2f983
	fstp	QWORD PTR [esp+8]
	fld	DWORD PTR [esi+104]
	fmul	DWORD PTR __real@43340000
	fmul	DWORD PTR __real@3ea2f983
	lea	ecx, DWORD PTR _buf$[esp+868]
	fstp	QWORD PTR [esp]
	push	OFFSET FLAT:??_C@_0BF@LOLC@SetRotation?5?$CFf?5?$CFf?5?$CFf?$AA@ ; `string'
	push	ecx
	call	ebx
	add	esp, 32					; 00000020H
	lea	edx, DWORD PTR _buf$[esp+844]
	lea	ecx, DWORD PTR $T22531[esp+844]
	mov	DWORD PTR $T22531[esp+844], edi
	push	edx
	call	?Set@CCorString@@QAEXPAD@Z		; CCorString::Set
	push	1
	mov	ecx, ebp
	mov	DWORD PTR __$EHRec$[esp+856], 5
	call	?Add@?$TCorArray@VCCorString@@@@QAEKK@Z	; TCorArray<CCorString>::Add
	mov	ecx, DWORD PTR [ebp]
	mov	edx, DWORD PTR $T22531[esp+844]
	push	edx
	lea	ecx, DWORD PTR [ecx+eax*4]
	call	?Set@CCorString@@QAEXPAD@Z		; CCorString::Set
	push	edi
	lea	ecx, DWORD PTR $T22531[esp+848]
	mov	DWORD PTR __$EHRec$[esp+856], -1
	call	?Set@CCorString@@QAEXPAD@Z		; CCorString::Set

; 525  : 	sprintf(buf, "SetBoundsMin %f %f %f", mBounds[0].x, mBounds[0].y, mBounds[0].z); section->commands.AddItem(buf);

	fld	DWORD PTR [esi+124]
	sub	esp, 24					; 00000018H
	lea	eax, DWORD PTR _buf$[esp+868]
	fstp	QWORD PTR [esp+16]
	fld	DWORD PTR [esi+120]
	fstp	QWORD PTR [esp+8]
	fld	DWORD PTR [esi+116]
	fstp	QWORD PTR [esp]
	push	OFFSET FLAT:??_C@_0BG@BKJK@SetBoundsMin?5?$CFf?5?$CFf?5?$CFf?$AA@ ; `string'
	push	eax
	call	ebx
	add	esp, 32					; 00000020H
	lea	ecx, DWORD PTR _buf$[esp+844]
	mov	DWORD PTR $T22532[esp+844], edi
	push	ecx
	lea	ecx, DWORD PTR $T22532[esp+848]
	call	?Set@CCorString@@QAEXPAD@Z		; CCorString::Set
	push	1
	mov	ecx, ebp
	mov	DWORD PTR __$EHRec$[esp+856], 6
	call	?Add@?$TCorArray@VCCorString@@@@QAEKK@Z	; TCorArray<CCorString>::Add
	mov	edx, DWORD PTR [ebp]
	lea	ecx, DWORD PTR [edx+eax*4]
	mov	eax, DWORD PTR $T22532[esp+844]
	push	eax
	call	?Set@CCorString@@QAEXPAD@Z		; CCorString::Set
	push	edi
	lea	ecx, DWORD PTR $T22532[esp+848]
	mov	DWORD PTR __$EHRec$[esp+856], -1
	call	?Set@CCorString@@QAEXPAD@Z		; CCorString::Set

; 526  : 	sprintf(buf, "SetBoundsMax %f %f %f", mBounds[1].x, mBounds[1].y, mBounds[1].z); section->commands.AddItem(buf);

	fld	DWORD PTR [esi+136]
	sub	esp, 24					; 00000018H
	lea	ecx, DWORD PTR _buf$[esp+868]
	fstp	QWORD PTR [esp+16]
	fld	DWORD PTR [esi+132]
	fstp	QWORD PTR [esp+8]
	fld	DWORD PTR [esi+128]
	fstp	QWORD PTR [esp]
	push	OFFSET FLAT:??_C@_0BG@JCEN@SetBoundsMax?5?$CFf?5?$CFf?5?$CFf?$AA@ ; `string'
	push	ecx
	call	ebx
	add	esp, 32					; 00000020H
	lea	edx, DWORD PTR _buf$[esp+844]
	lea	ecx, DWORD PTR $T22533[esp+844]
	mov	DWORD PTR $T22533[esp+844], edi
	push	edx
	call	?Set@CCorString@@QAEXPAD@Z		; CCorString::Set
	push	1
	mov	ecx, ebp
	mov	DWORD PTR __$EHRec$[esp+856], 7
	call	?Add@?$TCorArray@VCCorString@@@@QAEKK@Z	; TCorArray<CCorString>::Add
	mov	ecx, DWORD PTR [ebp]
	mov	edx, DWORD PTR $T22533[esp+844]
	push	edx
	lea	ecx, DWORD PTR [ecx+eax*4]
	call	?Set@CCorString@@QAEXPAD@Z		; CCorString::Set
	push	edi
	lea	ecx, DWORD PTR $T22533[esp+848]
	mov	DWORD PTR __$EHRec$[esp+856], -1
	call	?Set@CCorString@@QAEXPAD@Z		; CCorString::Set

; 527  : 
; 528  : 	// add commands for used resources
; 529  : 	const NChar* path;
; 530  : 	if (mGeometry && (path = CPJ_GetChunkPath(configProject, mGeometry))) { sprintf(buf, "SetGeometry \"%s\"", path); section->commands.AddItem(buf); }

	mov	eax, DWORD PTR [esi+140]
	cmp	eax, edi
	je	SHORT $L22855
	push	eax
	mov	eax, DWORD PTR _configProject$[esp+848]
	push	eax
	call	?CPJ_GetChunkPath@@YAPBDPAVOCpjProject@@PAVOCpjChunk@@@Z ; CPJ_GetChunkPath
	add	esp, 8
	cmp	eax, edi
	je	SHORT $L22855
	push	eax
	lea	ecx, DWORD PTR _buf$[esp+848]
	push	OFFSET FLAT:??_C@_0BB@PBDG@SetGeometry?5?$CC?$CFs?$CC?$AA@ ; `string'
	push	ecx
	call	ebx
	add	esp, 12					; 0000000cH
	lea	edx, DWORD PTR _buf$[esp+844]
	lea	ecx, DWORD PTR $T22534[esp+844]
	mov	DWORD PTR $T22534[esp+844], edi
	push	edx
	call	?Set@CCorString@@QAEXPAD@Z		; CCorString::Set
	push	1
	mov	ecx, ebp
	mov	DWORD PTR __$EHRec$[esp+856], 8
	call	?Add@?$TCorArray@VCCorString@@@@QAEKK@Z	; TCorArray<CCorString>::Add
	mov	ecx, DWORD PTR [ebp]
	mov	edx, DWORD PTR $T22534[esp+844]
	push	edx
	lea	ecx, DWORD PTR [ecx+eax*4]
	call	?Set@CCorString@@QAEXPAD@Z		; CCorString::Set
	push	edi
	lea	ecx, DWORD PTR $T22534[esp+848]
	mov	DWORD PTR __$EHRec$[esp+856], -1
	call	?Set@CCorString@@QAEXPAD@Z		; CCorString::Set
$L22855:

; 531  : 	if (mSkeleton && (path = CPJ_GetChunkPath(configProject, mSkeleton))) { sprintf(buf, "SetSkeleton \"%s\"", path); section->commands.AddItem(buf); }

	mov	eax, DWORD PTR [esi+144]
	cmp	eax, edi
	je	SHORT $L22877
	push	eax
	mov	eax, DWORD PTR _configProject$[esp+848]
	push	eax
	call	?CPJ_GetChunkPath@@YAPBDPAVOCpjProject@@PAVOCpjChunk@@@Z ; CPJ_GetChunkPath
	add	esp, 8
	cmp	eax, edi
	je	SHORT $L22877
	push	eax
	lea	ecx, DWORD PTR _buf$[esp+848]
	push	OFFSET FLAT:??_C@_0BB@BEIB@SetSkeleton?5?$CC?$CFs?$CC?$AA@ ; `string'
	push	ecx
	call	ebx
	add	esp, 12					; 0000000cH
	lea	edx, DWORD PTR _buf$[esp+844]
	lea	ecx, DWORD PTR $T22535[esp+844]
	mov	DWORD PTR $T22535[esp+844], edi
	push	edx
	call	?Set@CCorString@@QAEXPAD@Z		; CCorString::Set
	push	1
	mov	ecx, ebp
	mov	DWORD PTR __$EHRec$[esp+856], 9
	call	?Add@?$TCorArray@VCCorString@@@@QAEKK@Z	; TCorArray<CCorString>::Add
	mov	ecx, DWORD PTR [ebp]
	mov	edx, DWORD PTR $T22535[esp+844]
	push	edx
	lea	ecx, DWORD PTR [ecx+eax*4]
	call	?Set@CCorString@@QAEXPAD@Z		; CCorString::Set
	push	edi
	lea	ecx, DWORD PTR $T22535[esp+848]
	mov	DWORD PTR __$EHRec$[esp+856], -1
	call	?Set@CCorString@@QAEXPAD@Z		; CCorString::Set
$L22877:

; 532  : 	if (mLodData && (path = CPJ_GetChunkPath(configProject, mLodData))) { sprintf(buf, "SetLodData \"%s\"", path); section->commands.AddItem(buf); }

	mov	eax, DWORD PTR [esi+148]
	cmp	eax, edi
	je	SHORT $L22899
	push	eax
	mov	eax, DWORD PTR _configProject$[esp+848]
	push	eax
	call	?CPJ_GetChunkPath@@YAPBDPAVOCpjProject@@PAVOCpjChunk@@@Z ; CPJ_GetChunkPath
	add	esp, 8
	cmp	eax, edi
	je	SHORT $L22899
	push	eax
	lea	ecx, DWORD PTR _buf$[esp+848]
	push	OFFSET FLAT:??_C@_0BA@FMNO@SetLodData?5?$CC?$CFs?$CC?$AA@ ; `string'
	push	ecx
	call	ebx
	add	esp, 12					; 0000000cH
	lea	edx, DWORD PTR _buf$[esp+844]
	lea	ecx, DWORD PTR $T22536[esp+844]
	mov	DWORD PTR $T22536[esp+844], edi
	push	edx
	call	?Set@CCorString@@QAEXPAD@Z		; CCorString::Set
	push	1
	mov	ecx, ebp
	mov	DWORD PTR __$EHRec$[esp+856], 10	; 0000000aH
	call	?Add@?$TCorArray@VCCorString@@@@QAEKK@Z	; TCorArray<CCorString>::Add
	mov	ecx, DWORD PTR [ebp]
	mov	edx, DWORD PTR $T22536[esp+844]
	push	edx
	lea	ecx, DWORD PTR [ecx+eax*4]
	call	?Set@CCorString@@QAEXPAD@Z		; CCorString::Set
	push	edi
	lea	ecx, DWORD PTR $T22536[esp+848]
	mov	DWORD PTR __$EHRec$[esp+856], -1
	call	?Set@CCorString@@QAEXPAD@Z		; CCorString::Set
$L22899:

; 533  : 	for (i=0;i<mSurfaces.GetCount();i++)

	mov	eax, DWORD PTR [esi+156]
	xor	edi, edi
	test	eax, eax
	jbe	$L12482
$L12480:

; 534  : 	{
; 535  : 		if (mSurfaces[i] && (path = CPJ_GetChunkPath(configProject, mSurfaces[i]))) { sprintf(buf, "SetSurface %d \"%s\"", i, path); section->commands.AddItem(buf); }

	mov	eax, DWORD PTR [esi+152]
	mov	eax, DWORD PTR [eax+edi*4]
	test	eax, eax
	je	SHORT $L12481
	mov	ecx, DWORD PTR _configProject$[esp+844]
	push	eax
	push	ecx
	call	?CPJ_GetChunkPath@@YAPBDPAVOCpjProject@@PAVOCpjChunk@@@Z ; CPJ_GetChunkPath
	add	esp, 8
	test	eax, eax
	je	SHORT $L12481
	push	eax
	push	edi
	lea	edx, DWORD PTR _buf$[esp+852]
	push	OFFSET FLAT:??_C@_0BD@DNEA@SetSurface?5?$CFd?5?$CC?$CFs?$CC?$AA@ ; `string'
	push	edx
	call	ebx
	add	esp, 16					; 00000010H
	lea	eax, DWORD PTR _buf$[esp+844]
	lea	ecx, DWORD PTR $T22537[esp+844]
	mov	DWORD PTR $T22537[esp+844], 0
	push	eax
