; Listing generated by Microsoft (R) Optimizing Compiler Version 12.00.8943.0 

	TITLE	C:\duke4\Fire\Src\UnFractal.cpp
	.386P
include listing.inc
if @Version gt 510
.model FLAT
else
_TEXT	SEGMENT PARA USE32 PUBLIC 'CODE'
_TEXT	ENDS
_DATA	SEGMENT DWORD USE32 PUBLIC 'DATA'
_DATA	ENDS
CONST	SEGMENT DWORD USE32 PUBLIC 'CONST'
CONST	ENDS
_BSS	SEGMENT PARA USE32 PUBLIC 'BSS'
_BSS	ENDS
$$SYMBOLS	SEGMENT BYTE USE32 'DEBSYM'
$$SYMBOLS	ENDS
$$TYPES	SEGMENT BYTE USE32 'DEBTYP'
$$TYPES	ENDS
_TLS	SEGMENT DWORD USE32 PUBLIC 'TLS'
_TLS	ENDS
;	COMDAT ??_C@_1HO@DOMN@?$AAG?$AAe?$AAt?$AAA?$AAl?$AAl?$AAo?$AAc?$AAs?$AAS?$AAt?$AAa?$AAt?$AAs?$AA?$CI?$AA?$CJ?$AA?5?$AAn?$AAo?$AAt@
_DATA	SEGMENT DWORD USE32 PUBLIC 'DATA'
_DATA	ENDS
;	COMDAT ??_C@_17JBDG@?$AAn?$AAe?$AAw?$AA?$AA@
_DATA	SEGMENT DWORD USE32 PUBLIC 'DATA'
_DATA	ENDS
;	COMDAT ??_C@_11A@?$AA?$AA@
_DATA	SEGMENT DWORD USE32 PUBLIC 'DATA'
_DATA	ENDS
;	COMDAT ??_C@_13HMCP@?$AA?2?$AA?$AA@
_DATA	SEGMENT DWORD USE32 PUBLIC 'DATA'
_DATA	ENDS
;	COMDAT ??_C@_0BM@MLGP@?4?4?2?4?4?2Core?2Inc?2UnTemplate?4h?$AA@
_DATA	SEGMENT DWORD USE32 PUBLIC 'DATA'
_DATA	ENDS
;	COMDAT ??_C@_06DIHH@Pos?$DO?$DN0?$AA@
_DATA	SEGMENT DWORD USE32 PUBLIC 'DATA'
_DATA	ENDS
;	COMDAT ??_C@_0BF@JEDA@Pos?$CLNum?$DM?$DNBytes?4Num?$CI?$CJ?$AA@
_DATA	SEGMENT DWORD USE32 PUBLIC 'DATA'
_DATA	ENDS
;	COMDAT ??_C@_08NOIE@InPos?$DO?$DN0?$AA@
_DATA	SEGMENT DWORD USE32 PUBLIC 'DATA'
_DATA	ENDS
;	COMDAT ??_C@_0BD@PKIF@InPos?$DM?$DNBytes?4Num?$CI?$CJ?$AA@
_DATA	SEGMENT DWORD USE32 PUBLIC 'DATA'
_DATA	ENDS
;	COMDAT ??_C@_1BM@LKB@?$AAU?$AAn?$AAi?$AAn?$AAi?$AAt?$AAi?$AAa?$AAl?$AAi?$AAz?$AAe?$AAd?$AA?$AA@
_DATA	SEGMENT DWORD USE32 PUBLIC 'DATA'
_DATA	ENDS
;	COMDAT ??_C@_1CC@CPAJ@?$AA?$CF?$AA0?$AA8?$AAX?$AA?$CF?$AA0?$AA8?$AAX?$AA?$CF?$AA0?$AA8?$AAX?$AA?$CF?$AA0?$AA8?$AAX?$AA?$AA@
_DATA	SEGMENT DWORD USE32 PUBLIC 'DATA'
_DATA	ENDS
;	COMDAT ??_C@_1O@KHFL@?$AAS?$AAy?$AAs?$AAt?$AAe?$AAm?$AA?$AA@
_DATA	SEGMENT DWORD USE32 PUBLIC 'DATA'
_DATA	ENDS
;	COMDAT ??_C@_0BK@IPGH@?4?4?2?4?4?2Core?2Inc?2UnObjBas?4h?$AA@
_DATA	SEGMENT DWORD USE32 PUBLIC 'DATA'
_DATA	ENDS
;	COMDAT ??_C@_05LCAF@Class?$AA@
_DATA	SEGMENT DWORD USE32 PUBLIC 'DATA'
_DATA	ENDS
;	COMDAT ??_C@_17HGCB@?$AAF?$AA?$CF?$AAs?$AA?$AA@
_DATA	SEGMENT DWORD USE32 PUBLIC 'DATA'
_DATA	ENDS
;	COMDAT ??_C@_1M@NOGP@?$AAA?$AAc?$AAt?$AAo?$AAr?$AA?$AA@
_DATA	SEGMENT DWORD USE32 PUBLIC 'DATA'
_DATA	ENDS
;	COMDAT ??_C@_13NHLM@?$AAA?$AA?$AA@
_DATA	SEGMENT DWORD USE32 PUBLIC 'DATA'
_DATA	ENDS
;	COMDAT ??_C@_13LOIM@?$AAU?$AA?$AA@
_DATA	SEGMENT DWORD USE32 PUBLIC 'DATA'
_DATA	ENDS
;	COMDAT ??_C@_19FLGB@?$AA?$CF?$AAs?$AA?$CF?$AAs?$AA?$AA@
_DATA	SEGMENT DWORD USE32 PUBLIC 'DATA'
_DATA	ENDS
;	COMDAT ??_C@_0BJ@DMLA@?4?4?2?4?4?2Core?2Inc?2UnClass?4h?$AA@
_DATA	SEGMENT DWORD USE32 PUBLIC 'DATA'
_DATA	ENDS
;	COMDAT ??_C@_0DA@NIKO@Defaults?$FLCPD_Normal?$FN?4Num?$CI?$CJ?$DN?$DNGetP@
_DATA	SEGMENT DWORD USE32 PUBLIC 'DATA'
_DATA	ENDS
;	COMDAT ??_C@_0BL@BEPO@Defaults?$FLCPD_Normal?$FN?4Num?$CI?$CJ?$AA@
_DATA	SEGMENT DWORD USE32 PUBLIC 'DATA'
_DATA	ENDS
;	COMDAT ??_C@_19NGFL@?$AAN?$AAo?$AAn?$AAe?$AA?$AA@
_DATA	SEGMENT DWORD USE32 PUBLIC 'DATA'
_DATA	ENDS
;	COMDAT ??_C@_1BM@ECHK@?$AAU?$AAn?$AAh?$AAa?$AAs?$AAh?$AAe?$AAd?$AA?5?$AAi?$AAt?$AAe?$AAm?$AA?$AA@
_DATA	SEGMENT DWORD USE32 PUBLIC 'DATA'
_DATA	ENDS
;	COMDAT ??_C@_0BH@IEJK@?4?4?2?4?4?2Core?2Inc?2UnMem?4h?$AA@
_DATA	SEGMENT DWORD USE32 PUBLIC 'DATA'
_DATA	ENDS
;	COMDAT ??_C@_0P@DFNF@TopChunk?$DN?$DNNULL?$AA@
_DATA	SEGMENT DWORD USE32 PUBLIC 'DATA'
_DATA	ENDS
;	COMDAT ??_C@_0BI@BION@?4?4?2?4?4?2Core?2Inc?2UnMath?4h?$AA@
_DATA	SEGMENT DWORD USE32 PUBLIC 'DATA'
_DATA	ENDS
;	COMDAT ??_C@_04JDHJ@i?$DO?91?$AA@
_DATA	SEGMENT DWORD USE32 PUBLIC 'DATA'
_DATA	ENDS
;	COMDAT ??_C@_03FBPA@i?$DM3?$AA@
_DATA	SEGMENT DWORD USE32 PUBLIC 'DATA'
_DATA	ENDS
;	COMDAT ??_C@_03PLGH@i?$DM2?$AA@
_DATA	SEGMENT DWORD USE32 PUBLIC 'DATA'
_DATA	ENDS
;	COMDAT ??_C@_1CA@BFE@?$AAR?$AAe?$AAs?$AAo?$AAl?$AAv?$AAi?$AAn?$AAg?$AA?5?$AA?$CF?$AAs?$AA?4?$AA?4?$AA?4?$AA?$AA@
_DATA	SEGMENT DWORD USE32 PUBLIC 'DATA'
_DATA	ENDS
;	COMDAT ??_C@_0BO@EDDF@?4?4?2?4?4?2Engine?2Inc?2UnNetStuff?4h?$AA@
_DATA	SEGMENT DWORD USE32 PUBLIC 'DATA'
_DATA	ENDS
;	COMDAT ??_C@_07GDHO@hThread?$AA@
_DATA	SEGMENT DWORD USE32 PUBLIC 'DATA'
_DATA	ENDS
;	COMDAT ??_C@_15DEDE@?$AA?$CF?$AAs?$AA?$AA@
_DATA	SEGMENT DWORD USE32 PUBLIC 'DATA'
_DATA	ENDS
;	COMDAT ??_C@_0BK@JICC@?4?4?2?4?4?2Engine?2Inc?2ABrush?4h?$AA@
_DATA	SEGMENT DWORD USE32 PUBLIC 'DATA'
_DATA	ENDS
;	COMDAT ??_C@_05NJDM@Brush?$AA@
_DATA	SEGMENT DWORD USE32 PUBLIC 'DATA'
_DATA	ENDS
;	COMDAT ??_C@_05DJGJ@Other?$AA@
_DATA	SEGMENT DWORD USE32 PUBLIC 'DATA'
_DATA	ENDS
;	COMDAT ??_C@_0N@ELOE@Other?9?$DOBrush?$AA@
_DATA	SEGMENT DWORD USE32 PUBLIC 'DATA'
_DATA	ENDS
;	COMDAT ??_C@_1M@NPJG@?$AAT?$AAi?$AAt?$AAl?$AAe?$AA?$AA@
_DATA	SEGMENT DWORD USE32 PUBLIC 'DATA'
_DATA	ENDS
;	COMDAT ??_C@_1BG@COBA@?$AAL?$AAe?$AAv?$AAe?$AAl?$AAI?$AAn?$AAf?$AAo?$AA0?$AA?$AA@
_DATA	SEGMENT DWORD USE32 PUBLIC 'DATA'
_DATA	ENDS
;	COMDAT ??_C@_1CC@JMMP@?$AAI?$AAd?$AAe?$AAa?$AAl?$AAP?$AAl?$AAa?$AAy?$AAe?$AAr?$AAC?$AAo?$AAu?$AAn?$AAt?$AA?$AA@
_DATA	SEGMENT DWORD USE32 PUBLIC 'DATA'
_DATA	ENDS
;	COMDAT ??_C@_0BL@IIGF@?4?4?2?4?4?2Engine?2Inc?2UnLevel?4h?$AA@
_DATA	SEGMENT DWORD USE32 PUBLIC 'DATA'
_DATA	ENDS
;	COMDAT ??_C@_0BA@DADJ@Actors?4Num?$CI?$CJ?$DO?$DN2?$AA@
_DATA	SEGMENT DWORD USE32 PUBLIC 'DATA'
_DATA	ENDS
;	COMDAT ??_C@_0BA@OIOI@Actors?$CI1?$CJ?$CB?$DNNULL?$AA@
_DATA	SEGMENT DWORD USE32 PUBLIC 'DATA'
_DATA	ENDS
;	COMDAT ??_C@_0BH@EHGL@Actors?$CI1?$CJ?9?$DOBrush?$CB?$DNNULL?$AA@
_DATA	SEGMENT DWORD USE32 PUBLIC 'DATA'
_DATA	ENDS
;	COMDAT ??_C@_1CI@PENI@?$AAA?$AAc?$AAt?$AAo?$AAr?$AA?5?$AAn?$AAo?$AAt?$AA?5?$AAf?$AAo?$AAu?$AAn?$AAd?$AA?3?$AA?5?$AA?$CF?$AAs?$AA?$AA@
_DATA	SEGMENT DWORD USE32 PUBLIC 'DATA'
_DATA	ENDS
;	COMDAT ??_C@_09HBFO@Actors?$CI0?$CJ?$AA@
_DATA	SEGMENT DWORD USE32 PUBLIC 'DATA'
_DATA	ENDS
;	COMDAT ??_C@_0CK@OLMN@Actors?$CI0?$CJ?9?$DOIsA?$CIALevelInfo?3?3Stati@
_DATA	SEGMENT DWORD USE32 PUBLIC 'DATA'
_DATA	ENDS
;	COMDAT ??_C@_19PPKP@?$AAU?$AAs?$AAe?$AAr?$AA?$AA@
_DATA	SEGMENT DWORD USE32 PUBLIC 'DATA'
_DATA	ENDS
;	COMDAT ??_C@_1M@KAEM@?$AAR?$AAe?$AAs?$AAe?$AAt?$AA?$AA@
_DATA	SEGMENT DWORD USE32 PUBLIC 'DATA'
_DATA	ENDS
;	COMDAT ??_C@_1BE@ECAA@?$AAH?$AAH?$AAi?$AAt?$AAP?$AAr?$AAo?$AAx?$AAy?$AA?$AA@
_DATA	SEGMENT DWORD USE32 PUBLIC 'DATA'
_DATA	ENDS
;	COMDAT ??_C@_1BK@BNHE@?$AAH?$AAA?$AAc?$AAt?$AAo?$AAr?$AAV?$AAe?$AAr?$AAt?$AAe?$AAx?$AA?$AA@
_DATA	SEGMENT DWORD USE32 PUBLIC 'DATA'
_DATA	ENDS
;	COMDAT ??_C@_1BO@JBP@?$AAF?$AAr?$AAa?$AAc?$AAt?$AAa?$AAl?$AAT?$AAe?$AAx?$AAt?$AAu?$AAr?$AAe?$AA?$AA@
_DATA	SEGMENT DWORD USE32 PUBLIC 'DATA'
_DATA	ENDS
;	COMDAT ??_C@_1M@BHOC@?$AAU?$AAM?$AAa?$AAs?$AAk?$AA?$AA@
_DATA	SEGMENT DWORD USE32 PUBLIC 'DATA'
_DATA	ENDS
;	COMDAT ??_C@_1FK@OIBJ@?$AAC?$AAl?$AAa?$AAs?$AAs?$AA?5?$AA?$CF?$AAs?$AA?5?$AAM?$AAe?$AAm?$AAb?$AAe?$AAr?$AA?5?$AA?$CF?$AAs?$AA?5?$AAp@
_DATA	SEGMENT DWORD USE32 PUBLIC 'DATA'
_DATA	ENDS
;	COMDAT ??_C@_0CA@CDIN@C?3?2duke4?2Fire?2Src?2UnFractal?4cpp?$AA@
_DATA	SEGMENT DWORD USE32 PUBLIC 'DATA'
_DATA	ENDS
;	COMDAT ??_C@_0BJ@LFBK@?$CIInUSize?$CG?$CIInUSize?91?$CJ?$CJ?$DN?$DN0?$AA@
_DATA	SEGMENT DWORD USE32 PUBLIC 'DATA'
_DATA	ENDS
;	COMDAT ??_C@_0BJ@LDOB@?$CIInVSize?$CG?$CIInVSize?91?$CJ?$CJ?$DN?$DN0?$AA@
_DATA	SEGMENT DWORD USE32 PUBLIC 'DATA'
_DATA	ENDS
;	COMDAT ??_C@_1CA@OMBM@?$AAU?$AAF?$AAr?$AAa?$AAc?$AAt?$AAa?$AAl?$AAT?$AAe?$AAx?$AAt?$AAu?$AAr?$AAe?$AA?$AA@
_DATA	SEGMENT DWORD USE32 PUBLIC 'DATA'
_DATA	ENDS
;	COMDAT ??_C@_1BI@MMMC@?$AAF?$AAi?$AAr?$AAe?$AAT?$AAe?$AAx?$AAt?$AAu?$AAr?$AAe?$AA?$AA@
_DATA	SEGMENT DWORD USE32 PUBLIC 'DATA'
_DATA	ENDS
;	COMDAT ??_C@_1BE@GEFN@?$AAS?$AAp?$AAa?$AAr?$AAk?$AAT?$AAy?$AAp?$AAe?$AA?$AA@
_DATA	SEGMENT DWORD USE32 PUBLIC 'DATA'
_DATA	ENDS
;	COMDAT ??_C@_0EH@ILJB@sizeof?$CIUFireTexture?$CJ?$DN?$DNUFireTextu@
_DATA	SEGMENT DWORD USE32 PUBLIC 'DATA'
_DATA	ENDS
;	COMDAT ??_C@_0EF@LBFJ@sizeof?$CIUWetTexture?$CJ?$DN?$DNUWetTexture@
_DATA	SEGMENT DWORD USE32 PUBLIC 'DATA'
_DATA	ENDS
;	COMDAT ??_C@_0EH@HCKF@sizeof?$CIUWaveTexture?$CJ?$DN?$DNUWaveTextu@
_DATA	SEGMENT DWORD USE32 PUBLIC 'DATA'
_DATA	ENDS
;	COMDAT ??_C@_0EN@CEKJ@sizeof?$CIUFractalTexture?$CJ?$DN?$DNUFracta@
_DATA	SEGMENT DWORD USE32 PUBLIC 'DATA'
_DATA	ENDS
;	COMDAT ??_C@_1BK@KFIN@?$AAU?$AAF?$AAi?$AAr?$AAe?$AAT?$AAe?$AAx?$AAt?$AAu?$AAr?$AAe?$AA?$AA@
_DATA	SEGMENT DWORD USE32 PUBLIC 'DATA'
_DATA	ENDS
;	COMDAT ??_C@_1BK@KFM@?$AAW?$AAa?$AAt?$AAe?$AAr?$AAT?$AAe?$AAx?$AAt?$AAu?$AAr?$AAe?$AA?$AA@
_DATA	SEGMENT DWORD USE32 PUBLIC 'DATA'
_DATA	ENDS
;	COMDAT ??_C@_1BC@DDHO@?$AAD?$AAr?$AAo?$AAp?$AAT?$AAy?$AAp?$AAe?$AA?$AA@
_DATA	SEGMENT DWORD USE32 PUBLIC 'DATA'
_DATA	ENDS
;	COMDAT ??_C@_1BM@IGJG@?$AAU?$AAW?$AAa?$AAt?$AAe?$AAr?$AAT?$AAe?$AAx?$AAt?$AAu?$AAr?$AAe?$AA?$AA@
_DATA	SEGMENT DWORD USE32 PUBLIC 'DATA'
_DATA	ENDS
;	COMDAT ??_C@_1BI@GIPJ@?$AAW?$AAa?$AAv?$AAe?$AAT?$AAe?$AAx?$AAt?$AAu?$AAr?$AAe?$AA?$AA@
_DATA	SEGMENT DWORD USE32 PUBLIC 'DATA'
_DATA	ENDS
;	COMDAT ??_C@_1BK@BJIE@?$AAB?$AAu?$AAm?$AAp?$AAM?$AAa?$AAp?$AAA?$AAn?$AAg?$AAl?$AAe?$AA?$AA@
_DATA	SEGMENT DWORD USE32 PUBLIC 'DATA'
_DATA	ENDS
;	COMDAT ??_C@_1BK@BLG@?$AAU?$AAW?$AAa?$AAv?$AAe?$AAT?$AAe?$AAx?$AAt?$AAu?$AAr?$AAe?$AA?$AA@
_DATA	SEGMENT DWORD USE32 PUBLIC 'DATA'
_DATA	ENDS
;	COMDAT ??_C@_1BI@JHNI@?$AAU?$AAW?$AAe?$AAt?$AAT?$AAe?$AAx?$AAt?$AAu?$AAr?$AAe?$AA?$AA@
_DATA	SEGMENT DWORD USE32 PUBLIC 'DATA'
_DATA	ENDS
;	COMDAT ??_C@_1BI@MCDB@?$AAU?$AAI?$AAc?$AAe?$AAT?$AAe?$AAx?$AAt?$AAu?$AAr?$AAe?$AA?$AA@
_DATA	SEGMENT DWORD USE32 PUBLIC 'DATA'
_DATA	ENDS
;	COMDAT ??_C@_08GCAE@Index?$DO?$DN0?$AA@
_DATA	SEGMENT DWORD USE32 PUBLIC 'DATA'
_DATA	ENDS
;	COMDAT ??_C@_0BA@FEMP@Index?$DM?$DNArrayNum?$AA@
_DATA	SEGMENT DWORD USE32 PUBLIC 'DATA'
_DATA	ENDS
;	COMDAT ??_C@_0BG@BEDF@Index?$CLCount?$DM?$DNArrayNum?$AA@
_DATA	SEGMENT DWORD USE32 PUBLIC 'DATA'
_DATA	ENDS
;	COMDAT ??_C@_1BI@IADD@?$AAH?$AAa?$AAs?$AAh?$AAM?$AAa?$AAp?$AAH?$AAa?$AAs?$AAh?$AA?$AA@
_DATA	SEGMENT DWORD USE32 PUBLIC 'DATA'
_DATA	ENDS
CRT$XCA	SEGMENT DWORD USE32 PUBLIC 'DATA'
CRT$XCA	ENDS
CRT$XCU	SEGMENT DWORD USE32 PUBLIC 'DATA'
CRT$XCU	ENDS
CRT$XCL	SEGMENT DWORD USE32 PUBLIC 'DATA'
CRT$XCL	ENDS
CRT$XCC	SEGMENT DWORD USE32 PUBLIC 'DATA'
CRT$XCC	ENDS
CRT$XCZ	SEGMENT DWORD USE32 PUBLIC 'DATA'
CRT$XCZ	ENDS
xdata$x	SEGMENT DWORD USE32 PUBLIC 'CONST'
xdata$x	ENDS
;	COMDAT ??8@YAHABU_GUID@@0@Z
_TEXT	SEGMENT PARA USE32 PUBLIC 'CODE'
_TEXT	ENDS
;	COMDAT _sqrtf
_TEXT	SEGMENT PARA USE32 PUBLIC 'CODE'
_TEXT	ENDS
;	COMDAT ??0D3DXVECTOR3@@QAE@XZ
_TEXT	SEGMENT PARA USE32 PUBLIC 'CODE'
_TEXT	ENDS
;	COMDAT ??0D3DXMATRIX@@QAE@XZ
_TEXT	SEGMENT PARA USE32 PUBLIC 'CODE'
_TEXT	ENDS
;	COMDAT ??0D3DXQUATERNION@@QAE@XZ
_TEXT	SEGMENT PARA USE32 PUBLIC 'CODE'
_TEXT	ENDS
;	COMDAT ??0D3DXVECTOR2@@QAE@MM@Z
_TEXT	SEGMENT PARA USE32 PUBLIC 'CODE'
_TEXT	ENDS
;	COMDAT ??0D3DXVECTOR3@@QAE@MMM@Z
_TEXT	SEGMENT PARA USE32 PUBLIC 'CODE'
_TEXT	ENDS
;	COMDAT ??0D3DXVECTOR4@@QAE@MMMM@Z
_TEXT	SEGMENT PARA USE32 PUBLIC 'CODE'
_TEXT	ENDS
;	COMDAT ??0D3DXMATRIX@@QAE@MMMMMMMMMMMMMMMM@Z
_TEXT	SEGMENT PARA USE32 PUBLIC 'CODE'
_TEXT	ENDS
;	COMDAT ??0D3DXQUATERNION@@QAE@MMMM@Z
_TEXT	SEGMENT PARA USE32 PUBLIC 'CODE'
_TEXT	ENDS
;	COMDAT ??0D3DXPLANE@@QAE@MMMM@Z
_TEXT	SEGMENT PARA USE32 PUBLIC 'CODE'
_TEXT	ENDS
;	COMDAT ??0D3DXCOLOR@@QAE@MMMM@Z
_TEXT	SEGMENT PARA USE32 PUBLIC 'CODE'
_TEXT	ENDS
;	COMDAT ?appRound@@YAHM@Z
_TEXT	SEGMENT PARA USE32 PUBLIC 'CODE'
_TEXT	ENDS
;	COMDAT __imp_?Serialize@FOutputDevice@@UAEXPBDW4EName@@@Z
_TEXT	SEGMENT PARA USE32 PUBLIC 'CODE'
_TEXT	ENDS
;	COMDAT __imp_?Flush@FOutputDevice@@UAEXXZ
_TEXT	SEGMENT PARA USE32 PUBLIC 'CODE'
_TEXT	ENDS
;	COMDAT ??1FConfigCache@@UAE@XZ
_TEXT	SEGMENT PARA USE32 PUBLIC 'CODE'
_TEXT	ENDS
;	COMDAT ??_GFConfigCache@@UAEPAXI@Z
_TEXT	SEGMENT PARA USE32 PUBLIC 'CODE'
_TEXT	ENDS
;	COMDAT ?appToUpper@@YAGG@Z
_TEXT	SEGMENT PARA USE32 PUBLIC 'CODE'
_TEXT	ENDS
;	COMDAT ?appToLower@@YAGG@Z
_TEXT	SEGMENT PARA USE32 PUBLIC 'CODE'
_TEXT	ENDS
;	COMDAT ?appStrihash@@YAKPBG@Z
_TEXT	SEGMENT PARA USE32 PUBLIC 'CODE'
_TEXT	ENDS
;	COMDAT ?appSin@@YANN@Z
_TEXT	SEGMENT PARA USE32 PUBLIC 'CODE'
_TEXT	ENDS
;	COMDAT ?appCos@@YANN@Z
_TEXT	SEGMENT PARA USE32 PUBLIC 'CODE'
_TEXT	ENDS
;	COMDAT ?appAcos@@YANN@Z
_TEXT	SEGMENT PARA USE32 PUBLIC 'CODE'
_TEXT	ENDS
;	COMDAT ?appRand@@YAHXZ
_TEXT	SEGMENT PARA USE32 PUBLIC 'CODE'
_TEXT	ENDS
;	COMDAT ?appFrand@@YAMXZ
_TEXT	SEGMENT PARA USE32 PUBLIC 'CODE'
_TEXT	ENDS
;	COMDAT ?appSqrt@@YANN@Z
_TEXT	SEGMENT PARA USE32 PUBLIC 'CODE'
_TEXT	ENDS
;	COMDAT ?appFloor@@YAHM@Z
_TEXT	SEGMENT PARA USE32 PUBLIC 'CODE'
_TEXT	ENDS
;	COMDAT ?appMemcpy@@YAXPAXPBXH@Z
_TEXT	SEGMENT PARA USE32 PUBLIC 'CODE'
_TEXT	ENDS
;	COMDAT ?appMemzero@@YAXPAXI@Z
_TEXT	SEGMENT PARA USE32 PUBLIC 'CODE'
_TEXT	ENDS
;	COMDAT ??2@YAPAXIPBG@Z
_TEXT	SEGMENT PARA USE32 PUBLIC 'CODE'
_TEXT	ENDS
;	COMDAT ??2@YAPAXI@Z
_TEXT	SEGMENT PARA USE32 PUBLIC 'CODE'
_TEXT	ENDS
;	COMDAT ??3@YAXPAX@Z
_TEXT	SEGMENT PARA USE32 PUBLIC 'CODE'
_TEXT	ENDS
;	COMDAT ??2@YAPAXIPAX@Z
_TEXT	SEGMENT PARA USE32 PUBLIC 'CODE'
_TEXT	ENDS
;	COMDAT ??3@YAXPAX0@Z
_TEXT	SEGMENT PARA USE32 PUBLIC 'CODE'
_TEXT	ENDS
;	COMDAT ??_U@YAPAXIPBG@Z
_TEXT	SEGMENT PARA USE32 PUBLIC 'CODE'
_TEXT	ENDS
;	COMDAT ??_U@YAPAXI@Z
_TEXT	SEGMENT PARA USE32 PUBLIC 'CODE'
_TEXT	ENDS
;	COMDAT ??_V@YAXPAX@Z
_TEXT	SEGMENT PARA USE32 PUBLIC 'CODE'
_TEXT	ENDS
;	COMDAT __imp_??1FArchive@@UAE@XZ
_TEXT	SEGMENT PARA USE32 PUBLIC 'CODE'
_TEXT	ENDS
;	COMDAT __imp_?SerializeBits@FArchive@@UAEXPAXH@Z
_TEXT	SEGMENT PARA USE32 PUBLIC 'CODE'
_TEXT	ENDS
;	COMDAT __imp_?SerializeInt@FArchive@@UAEXAAKK@Z
_TEXT	SEGMENT PARA USE32 PUBLIC 'CODE'
_TEXT	ENDS
;	COMDAT __imp_?Preload@FArchive@@UAEXPAVUObject@@@Z
_TEXT	SEGMENT PARA USE32 PUBLIC 'CODE'
_TEXT	ENDS
;	COMDAT __imp_?CountBytes@FArchive@@UAEXKK@Z
_TEXT	SEGMENT PARA USE32 PUBLIC 'CODE'
_TEXT	ENDS
;	COMDAT __imp_??6FArchive@@UAEAAV0@AAVFName@@@Z
_TEXT	SEGMENT PARA USE32 PUBLIC 'CODE'
_TEXT	ENDS
;	COMDAT __imp_??6FArchive@@UAEAAV0@AAPAVUObject@@@Z
_TEXT	SEGMENT PARA USE32 PUBLIC 'CODE'
_TEXT	ENDS
;	COMDAT __imp_?MapName@FArchive@@UAEHPAVFName@@@Z
_TEXT	SEGMENT PARA USE32 PUBLIC 'CODE'
_TEXT	ENDS
;	COMDAT __imp_?MapObject@FArchive@@UAEHPAVUObject@@@Z
_TEXT	SEGMENT PARA USE32 PUBLIC 'CODE'
_TEXT	ENDS
;	COMDAT __imp_?TotalSize@FArchive@@UAEHXZ
_TEXT	SEGMENT PARA USE32 PUBLIC 'CODE'
_TEXT	ENDS
;	COMDAT __imp_?AtEnd@FArchive@@UAEHXZ
_TEXT	SEGMENT PARA USE32 PUBLIC 'CODE'
_TEXT	ENDS
;	COMDAT __imp_?AttachLazyLoader@FArchive@@UAEXPAVFLazyLoader@@@Z
_TEXT	SEGMENT PARA USE32 PUBLIC 'CODE'
_TEXT	ENDS
;	COMDAT __imp_?DetachLazyLoader@FArchive@@UAEXPAVFLazyLoader@@@Z
_TEXT	SEGMENT PARA USE32 PUBLIC 'CODE'
_TEXT	ENDS
;	COMDAT __imp_?Precache@FArchive@@UAEXH@Z
_TEXT	SEGMENT PARA USE32 PUBLIC 'CODE'
_TEXT	ENDS
;	COMDAT __imp_?Flush@FArchive@@UAEXXZ
_TEXT	SEGMENT PARA USE32 PUBLIC 'CODE'
_TEXT	ENDS
;	COMDAT __imp_?Close@FArchive@@UAEHXZ
_TEXT	SEGMENT PARA USE32 PUBLIC 'CODE'
_TEXT	ENDS
;	COMDAT __imp_?GetError@FArchive@@UAEHXZ
_TEXT	SEGMENT PARA USE32 PUBLIC 'CODE'
_TEXT	ENDS
;	COMDAT __imp_?ByteOrderSerialize@FArchive@@QAEAAV1@PAXH@Z
_TEXT	SEGMENT PARA USE32 PUBLIC 'CODE'
_TEXT	ENDS
;	COMDAT __imp_??0FArchive@@QAE@XZ
_TEXT	SEGMENT PARA USE32 PUBLIC 'CODE'
_TEXT	ENDS
;	COMDAT __imp_?Ver@FArchive@@QAEHXZ
_TEXT	SEGMENT PARA USE32 PUBLIC 'CODE'
_TEXT	ENDS
;	COMDAT __imp_?IsLoading@FArchive@@QAEHXZ
_TEXT	SEGMENT PARA USE32 PUBLIC 'CODE'
_TEXT	ENDS
;	COMDAT __imp_?IsSaving@FArchive@@QAEHXZ
_TEXT	SEGMENT PARA USE32 PUBLIC 'CODE'
_TEXT	ENDS
;	COMDAT __imp_?IsTrans@FArchive@@QAEHXZ
_TEXT	SEGMENT PARA USE32 PUBLIC 'CODE'
_TEXT	ENDS
;	COMDAT __imp_?IsPersistent@FArchive@@QAEHXZ
_TEXT	SEGMENT PARA USE32 PUBLIC 'CODE'
_TEXT	ENDS
;	COMDAT ??6@YAAAVFArchive@@AAV0@AAE@Z
_TEXT	SEGMENT PARA USE32 PUBLIC 'CODE'
_TEXT	ENDS
;	COMDAT ??6@YAAAVFArchive@@AAV0@AAG@Z
_TEXT	SEGMENT PARA USE32 PUBLIC 'CODE'
_TEXT	ENDS
;	COMDAT ??6@YAAAVFArchive@@AAV0@AAK@Z
_TEXT	SEGMENT PARA USE32 PUBLIC 'CODE'
_TEXT	ENDS
;	COMDAT ??6@YAAAVFArchive@@AAV0@AAH@Z
_TEXT	SEGMENT PARA USE32 PUBLIC 'CODE'
_TEXT	ENDS
;	COMDAT ??6@YAAAVFArchive@@AAV0@AAM@Z
_TEXT	SEGMENT PARA USE32 PUBLIC 'CODE'
_TEXT	ENDS
;	COMDAT ??6@YAAAVFArchive@@AAV0@AAN@Z
_TEXT	SEGMENT PARA USE32 PUBLIC 'CODE'
_TEXT	ENDS
;	COMDAT ??6@YAAAVFArchive@@AAV0@AA_K@Z
_TEXT	SEGMENT PARA USE32 PUBLIC 'CODE'
_TEXT	ENDS
;	COMDAT ?NeedsDestructor@?$TTypeInfo@E@@SAHXZ
_TEXT	SEGMENT PARA USE32 PUBLIC 'CODE'
_TEXT	ENDS
;	COMDAT ?NeedsDestructor@?$TTypeInfo@H@@SAHXZ
_TEXT	SEGMENT PARA USE32 PUBLIC 'CODE'
_TEXT	ENDS
;	COMDAT ?NeedsDestructor@?$TTypeInfo@G@@SAHXZ
_TEXT	SEGMENT PARA USE32 PUBLIC 'CODE'
_TEXT	ENDS
;	COMDAT ?NeedsDestructor@?$TTypeInfo@VFName@@@@SAHXZ
_TEXT	SEGMENT PARA USE32 PUBLIC 'CODE'
_TEXT	ENDS
;	COMDAT __imp_?Num@FArray@@QBEHXZ
_TEXT	SEGMENT PARA USE32 PUBLIC 'CODE'
_TEXT	ENDS
;	COMDAT __imp_?Insert@FArray@@QAEXHHH@Z
_TEXT	SEGMENT PARA USE32 PUBLIC 'CODE'
_TEXT	ENDS
;	COMDAT __imp_?Add@FArray@@QAEHHH@Z
_TEXT	SEGMENT PARA USE32 PUBLIC 'CODE'
_TEXT	ENDS
;	COMDAT __imp_?Shrink@FArray@@QAEXH@Z
_TEXT	SEGMENT PARA USE32 PUBLIC 'CODE'
_TEXT	ENDS
;	COMDAT __imp_?Empty@FArray@@QAEXHH@Z
_TEXT	SEGMENT PARA USE32 PUBLIC 'CODE'
_TEXT	ENDS
;	COMDAT __imp_??0FArray@@QAE@XZ
_TEXT	SEGMENT PARA USE32 PUBLIC 'CODE'
_TEXT	ENDS
;	COMDAT __imp_??0FArray@@QAE@W4ENoInit@@@Z
_TEXT	SEGMENT PARA USE32 PUBLIC 'CODE'
_TEXT	ENDS
;	COMDAT __imp_??1FArray@@QAE@XZ
_TEXT	SEGMENT PARA USE32 PUBLIC 'CODE'
_TEXT	ENDS
;	COMDAT __imp_?CountBytes@FArray@@QAEXAAVFArchive@@H@Z
_TEXT	SEGMENT PARA USE32 PUBLIC 'CODE'
_TEXT	ENDS
;	COMDAT __imp_??0FArray@@IAE@HH@Z
_TEXT	SEGMENT PARA USE32 PUBLIC 'CODE'
_TEXT	ENDS
;	COMDAT ??0FLazyLoader@@QAE@XZ
_TEXT	SEGMENT PARA USE32 PUBLIC 'CODE'
_TEXT	ENDS
;	COMDAT __imp_??0FString@@QAE@XZ
_TEXT	SEGMENT PARA USE32 PUBLIC 'CODE'
_TEXT	ENDS
;	COMDAT __imp_??0FString@@QAE@ABV0@@Z
_TEXT	SEGMENT PARA USE32 PUBLIC 'CODE'
_TEXT	ENDS
;	COMDAT __imp_??0FString@@QAE@PBG@Z
_TEXT	SEGMENT PARA USE32 PUBLIC 'CODE'
_TEXT	ENDS
;	COMDAT __imp_??0FString@@QAE@W4ENoInit@@@Z
_TEXT	SEGMENT PARA USE32 PUBLIC 'CODE'
_TEXT	ENDS
;	COMDAT __imp_??4FString@@QAEAAV0@ABV0@@Z
_TEXT	SEGMENT PARA USE32 PUBLIC 'CODE'
_TEXT	ENDS
;	COMDAT __imp_??1FString@@QAE@XZ
_TEXT	SEGMENT PARA USE32 PUBLIC 'CODE'
_TEXT	ENDS
;	COMDAT __imp_??DFString@@QBEPBGXZ
_TEXT	SEGMENT PARA USE32 PUBLIC 'CODE'
_TEXT	ENDS
;	COMDAT __imp_??YFString@@QAEAAV0@PBG@Z
_TEXT	SEGMENT PARA USE32 PUBLIC 'CODE'
_TEXT	ENDS
;	COMDAT __imp_??HFString@@QAE?AV0@PBG@Z
_TEXT	SEGMENT PARA USE32 PUBLIC 'CODE'
_TEXT	ENDS
;	COMDAT __imp_??XFString@@QAEAAV0@PBG@Z
_TEXT	SEGMENT PARA USE32 PUBLIC 'CODE'
_TEXT	ENDS
;	COMDAT __imp_??DFString@@QBE?AV0@PBG@Z
_TEXT	SEGMENT PARA USE32 PUBLIC 'CODE'
_TEXT	ENDS
;	COMDAT __imp_?Len@FString@@QBEHXZ
_TEXT	SEGMENT PARA USE32 PUBLIC 'CODE'
_TEXT	ENDS
;	COMDAT __imp_?Left@FString@@QBE?AV1@H@Z
_TEXT	SEGMENT PARA USE32 PUBLIC 'CODE'
_TEXT	ENDS
;	COMDAT __imp_?Mid@FString@@QBE?AV1@HH@Z
_TEXT	SEGMENT PARA USE32 PUBLIC 'CODE'
_TEXT	ENDS
;	COMDAT __imp_?InStr@FString@@QBEHPBGH@Z
_TEXT	SEGMENT PARA USE32 PUBLIC 'CODE'
_TEXT	ENDS
;	COMDAT __imp_?InStr@FString@@QBEHABV1@H@Z
_TEXT	SEGMENT PARA USE32 PUBLIC 'CODE'
_TEXT	ENDS
;	COMDAT __imp_??0FString@@AAE@HPBG@Z
_TEXT	SEGMENT PARA USE32 PUBLIC 'CODE'
_TEXT	ENDS
;	COMDAT __imp_??0FStringNoInit@@QAE@XZ
_TEXT	SEGMENT PARA USE32 PUBLIC 'CODE'
_TEXT	ENDS
;	COMDAT __imp_??4FStringNoInit@@QAEAAU0@PBG@Z
_TEXT	SEGMENT PARA USE32 PUBLIC 'CODE'
_TEXT	ENDS
;	COMDAT ?GetTypeHash@@YAKABVFString@@@Z
_TEXT	SEGMENT PARA USE32 PUBLIC 'CODE'
_TEXT	ENDS
;	COMDAT ?Serialize@FStringOutputDevice@@UAEXPBGW4EName@@@Z
_TEXT	SEGMENT PARA USE32 PUBLIC 'CODE'
_TEXT	ENDS
;	COMDAT __imp_??0FOutputDevice@@QAE@XZ
_TEXT	SEGMENT PARA USE32 PUBLIC 'CODE'
_TEXT	ENDS
;	COMDAT ??0FBufferWriter@@QAE@AAV?$TArray@E@@@Z
_TEXT	SEGMENT PARA USE32 PUBLIC 'CODE'
_TEXT	ENDS
;	COMDAT ?Serialize@FBufferWriter@@UAEXPAXH@Z
_TEXT	SEGMENT PARA USE32 PUBLIC 'CODE'
_TEXT	ENDS
;	COMDAT ?Tell@FBufferWriter@@UAEHXZ
_TEXT	SEGMENT PARA USE32 PUBLIC 'CODE'
_TEXT	ENDS
;	COMDAT ?Seek@FBufferWriter@@UAEXH@Z
_TEXT	SEGMENT PARA USE32 PUBLIC 'CODE'
_TEXT	ENDS
;	COMDAT ?TotalSize@FBufferWriter@@UAEHXZ
_TEXT	SEGMENT PARA USE32 PUBLIC 'CODE'
_TEXT	ENDS
;	COMDAT ??_GFBufferWriter@@UAEPAXI@Z
_TEXT	SEGMENT PARA USE32 PUBLIC 'CODE'
_TEXT	ENDS
;	COMDAT ??1FBufferWriter@@UAE@XZ
_TEXT	SEGMENT PARA USE32 PUBLIC 'CODE'
_TEXT	ENDS
;	COMDAT ??_GFBufferArchive@@UAEPAXI@Z
_TEXT	SEGMENT PARA USE32 PUBLIC 'CODE'
_TEXT	ENDS
;	COMDAT ??1FBufferArchive@@UAE@XZ
_TEXT	SEGMENT PARA USE32 PUBLIC 'CODE'
_TEXT	ENDS
;	COMDAT __imp_??1FBufferReader@@UAE@XZ
_TEXT	SEGMENT PARA USE32 PUBLIC 'CODE'
_TEXT	ENDS
;	COMDAT __imp_??DFName@@QBEPBGXZ
_TEXT	SEGMENT PARA USE32 PUBLIC 'CODE'
_TEXT	ENDS
;	COMDAT __imp_?GetIndex@FName@@QBEHXZ
_TEXT	SEGMENT PARA USE32 PUBLIC 'CODE'
_TEXT	ENDS
;	COMDAT __imp_??0FName@@QAE@W4EName@@@Z
_TEXT	SEGMENT PARA USE32 PUBLIC 'CODE'
_TEXT	ENDS
;	COMDAT __imp_??0FName@@QAE@XZ
_TEXT	SEGMENT PARA USE32 PUBLIC 'CODE'
_TEXT	ENDS
;	COMDAT ?GetTypeHash@@YAKVFName@@@Z
_TEXT	SEGMENT PARA USE32 PUBLIC 'CODE'
_TEXT	ENDS
;	COMDAT __imp_??1FFrame@@QAE@XZ
_TEXT	SEGMENT PARA USE32 PUBLIC 'CODE'
_TEXT	ENDS
;	COMDAT ??0FIteratorList@@QAE@XZ
_TEXT	SEGMENT PARA USE32 PUBLIC 'CODE'
_TEXT	ENDS
;	COMDAT ??0FIteratorList@@QAE@PAU0@@Z
_TEXT	SEGMENT PARA USE32 PUBLIC 'CODE'
_TEXT	ENDS
;	COMDAT __imp_??0FGuid@@QAE@XZ
_TEXT	SEGMENT PARA USE32 PUBLIC 'CODE'
_TEXT	ENDS
;	COMDAT __imp_??0FGuid@@QAE@KKKK@Z
_TEXT	SEGMENT PARA USE32 PUBLIC 'CODE'
_TEXT	ENDS
;	COMDAT ??6@YAAAVFArchive@@AAV0@AAVFGuid@@@Z
_TEXT	SEGMENT PARA USE32 PUBLIC 'CODE'
_TEXT	ENDS
;	COMDAT __imp_?StaticClass@UObject@@SAPAVUClass@@XZ
_TEXT	SEGMENT PARA USE32 PUBLIC 'CODE'
_TEXT	ENDS
;	COMDAT __imp_??2UObject@@SAPAXIPAW4EInternal@@@Z
_TEXT	SEGMENT PARA USE32 PUBLIC 'CODE'
_TEXT	ENDS
;	COMDAT __imp_?StaticConfigName@UObject@@SAPBGXZ
_TEXT	SEGMENT PARA USE32 PUBLIC 'CODE'
_TEXT	ENDS
;	COMDAT __imp_??3UObject@@SAXPAXI@Z
_TEXT	SEGMENT PARA USE32 PUBLIC 'CODE'
_TEXT	ENDS
;	COMDAT __imp_?IsPendingKill@UObject@@UAEHXZ
_TEXT	SEGMENT PARA USE32 PUBLIC 'CODE'
_TEXT	ENDS
;	COMDAT __imp_?GetClass@UObject@@QBEPAVUClass@@XZ
_TEXT	SEGMENT PARA USE32 PUBLIC 'CODE'
_TEXT	ENDS
;	COMDAT __imp_?GetFlags@UObject@@QBEKXZ
_TEXT	SEGMENT PARA USE32 PUBLIC 'CODE'
_TEXT	ENDS
;	COMDAT __imp_?GetName@UObject@@UBEPBGXZ
_TEXT	SEGMENT PARA USE32 PUBLIC 'CODE'
_TEXT	ENDS
;	COMDAT __imp_?GetFName@UObject@@QBE?BVFName@@XZ
_TEXT	SEGMENT PARA USE32 PUBLIC 'CODE'
_TEXT	ENDS
;	COMDAT __imp_?GetOuter@UObject@@QBEPAV1@XZ
_TEXT	SEGMENT PARA USE32 PUBLIC 'CODE'
_TEXT	ENDS
;	COMDAT __imp_?GetIndex@UObject@@QBEKXZ
_TEXT	SEGMENT PARA USE32 PUBLIC 'CODE'
_TEXT	ENDS
;	COMDAT ??_GUObject@@UAEPAXI@Z
_TEXT	SEGMENT PARA USE32 PUBLIC 'CODE'
_TEXT	ENDS
;	COMDAT ?GetTypeHash@@YAKPBVUObject@@@Z
_TEXT	SEGMENT PARA USE32 PUBLIC 'CODE'
_TEXT	ENDS
;	COMDAT ??EFObjectIterator@@QAEXXZ
_TEXT	SEGMENT PARA USE32 PUBLIC 'CODE'
_TEXT	ENDS
;	COMDAT __imp_?StaticClass@UPackageMap@@SAPAVUClass@@XZ
_TEXT	SEGMENT PARA USE32 PUBLIC 'CODE'
_TEXT	ENDS
;	COMDAT __imp_??2UPackageMap@@SAPAXIPAW4EInternal@@@Z
_TEXT	SEGMENT PARA USE32 PUBLIC 'CODE'
_TEXT	ENDS
;	COMDAT __imp_??1UPackageMap@@UAE@XZ
_TEXT	SEGMENT PARA USE32 PUBLIC 'CODE'
_TEXT	ENDS
;	COMDAT __imp_?GetMaxObjectIndex@UPackageMap@@UAEHXZ
_TEXT	SEGMENT PARA USE32 PUBLIC 'CODE'
_TEXT	ENDS
;	COMDAT ??_GUPackageMap@@UAEPAXI@Z
_TEXT	SEGMENT PARA USE32 PUBLIC 'CODE'
_TEXT	ENDS
;	COMDAT ??1?$TMap@PAVUObject@@H@@QAE@XZ
_TEXT	SEGMENT PARA USE32 PUBLIC 'CODE'
_TEXT	ENDS
;	COMDAT ??1?$TMap@PAVUObject@@PAVFClassNetCache@@@@QAE@XZ
_TEXT	SEGMENT PARA USE32 PUBLIC 'CODE'
_TEXT	ENDS
;	COMDAT __imp_??0UPackageMap@@QAE@XZ
_TEXT	SEGMENT PARA USE32 PUBLIC 'CODE'
_TEXT	ENDS
;	COMDAT ??0?$TMap@PAVUObject@@H@@QAE@XZ
_TEXT	SEGMENT PARA USE32 PUBLIC 'CODE'
_TEXT	ENDS
;	COMDAT ??0?$TMap@PAVUObject@@PAVFClassNetCache@@@@QAE@XZ
_TEXT	SEGMENT PARA USE32 PUBLIC 'CODE'
_TEXT	ENDS
;	COMDAT __imp_?StaticClass@UPackage@@SAPAVUClass@@XZ
_TEXT	SEGMENT PARA USE32 PUBLIC 'CODE'
_TEXT	ENDS
;	COMDAT __imp_??2UPackage@@SAPAXIPAW4EInternal@@@Z
_TEXT	SEGMENT PARA USE32 PUBLIC 'CODE'
_TEXT	ENDS
;	COMDAT __imp_??1UPackage@@UAE@XZ
_TEXT	SEGMENT PARA USE32 PUBLIC 'CODE'
_TEXT	ENDS
;	COMDAT ??_GUPackage@@UAEPAXI@Z
_TEXT	SEGMENT PARA USE32 PUBLIC 'CODE'
_TEXT	ENDS
;	COMDAT __imp_?StaticClass@USubsystem@@SAPAVUClass@@XZ
_TEXT	SEGMENT PARA USE32 PUBLIC 'CODE'
_TEXT	ENDS
;	COMDAT __imp_??1USubsystem@@UAE@XZ
_TEXT	SEGMENT PARA USE32 PUBLIC 'CODE'
_TEXT	ENDS
;	COMDAT __imp_??0USubsystem@@IAE@XZ
_TEXT	SEGMENT PARA USE32 PUBLIC 'CODE'
_TEXT	ENDS
;	COMDAT __imp_?Tick@USubsystem@@UAIXM@Z
_TEXT	SEGMENT PARA USE32 PUBLIC 'CODE'
_TEXT	ENDS
;	COMDAT __imp_??0FExec@@QAE@XZ
_TEXT	SEGMENT PARA USE32 PUBLIC 'CODE'
_TEXT	ENDS
;	COMDAT __imp_?StaticClass@UCommandlet@@SAPAVUClass@@XZ
_TEXT	SEGMENT PARA USE32 PUBLIC 'CODE'
_TEXT	ENDS
;	COMDAT __imp_??2UCommandlet@@SAPAXIPAW4EInternal@@@Z
_TEXT	SEGMENT PARA USE32 PUBLIC 'CODE'
_TEXT	ENDS
;	COMDAT __imp_??1UCommandlet@@UAE@XZ
_TEXT	SEGMENT PARA USE32 PUBLIC 'CODE'
_TEXT	ENDS
;	COMDAT ??_GUCommandlet@@UAEPAXI@Z
_TEXT	SEGMENT PARA USE32 PUBLIC 'CODE'
_TEXT	ENDS
;	COMDAT __imp_??1FStringNoInit@@QAE@XZ
_TEXT	SEGMENT PARA USE32 PUBLIC 'CODE'
_TEXT	ENDS
;	COMDAT ??0UCommandlet_eventMain_Parms@@QAE@XZ
_TEXT	SEGMENT PARA USE32 PUBLIC 'CODE'
_TEXT	ENDS
;	COMDAT ??1UCommandlet_eventMain_Parms@@QAE@XZ
_TEXT	SEGMENT PARA USE32 PUBLIC 'CODE'
_TEXT	ENDS
;	COMDAT __imp_?StaticClass@ULanguage@@SAPAVUClass@@XZ
_TEXT	SEGMENT PARA USE32 PUBLIC 'CODE'
_TEXT	ENDS
;	COMDAT __imp_??1ULanguage@@UAE@XZ
_TEXT	SEGMENT PARA USE32 PUBLIC 'CODE'
_TEXT	ENDS
;	COMDAT __imp_?StaticClass@UTextBuffer@@SAPAVUClass@@XZ
_TEXT	SEGMENT PARA USE32 PUBLIC 'CODE'
_TEXT	ENDS
;	COMDAT __imp_??2UTextBuffer@@SAPAXIPAW4EInternal@@@Z
_TEXT	SEGMENT PARA USE32 PUBLIC 'CODE'
_TEXT	ENDS
;	COMDAT __imp_??1UTextBuffer@@UAE@XZ
_TEXT	SEGMENT PARA USE32 PUBLIC 'CODE'
_TEXT	ENDS
;	COMDAT ??_GUTextBuffer@@UAEPAXI@Z
_TEXT	SEGMENT PARA USE32 PUBLIC 'CODE'
_TEXT	ENDS
;	COMDAT __imp_?StaticClass@USystem@@SAPAVUClass@@XZ
_TEXT	SEGMENT PARA USE32 PUBLIC 'CODE'
_TEXT	ENDS
;	COMDAT __imp_??2USystem@@SAPAXIPAW4EInternal@@@Z
_TEXT	SEGMENT PARA USE32 PUBLIC 'CODE'
_TEXT	ENDS
;	COMDAT __imp_??1USystem@@UAE@XZ
_TEXT	SEGMENT PARA USE32 PUBLIC 'CODE'
_TEXT	ENDS
;	COMDAT ??_GUSystem@@UAEPAXI@Z
_TEXT	SEGMENT PARA USE32 PUBLIC 'CODE'
_TEXT	ENDS
;	COMDAT __imp_?StaticClass@UField@@SAPAVUClass@@XZ
_TEXT	SEGMENT PARA USE32 PUBLIC 'CODE'
_TEXT	ENDS
;	COMDAT __imp_??1UField@@UAE@XZ
_TEXT	SEGMENT PARA USE32 PUBLIC 'CODE'
_TEXT	ENDS
;	COMDAT __imp_??0UField@@IAE@XZ
_TEXT	SEGMENT PARA USE32 PUBLIC 'CODE'
_TEXT	ENDS
;	COMDAT __imp_?StaticClass@UStruct@@SAPAVUClass@@XZ
_TEXT	SEGMENT PARA USE32 PUBLIC 'CODE'
_TEXT	ENDS
;	COMDAT __imp_??2UStruct@@SAPAXIPAW4EInternal@@@Z
_TEXT	SEGMENT PARA USE32 PUBLIC 'CODE'
_TEXT	ENDS
;	COMDAT __imp_??1UStruct@@UAE@XZ
_TEXT	SEGMENT PARA USE32 PUBLIC 'CODE'
_TEXT	ENDS
;	COMDAT __imp_??0UStruct@@IAE@XZ
_TEXT	SEGMENT PARA USE32 PUBLIC 'CODE'
_TEXT	ENDS
;	COMDAT __imp_?GetInheritanceSuper@UStruct@@UAEPAV1@XZ
_TEXT	SEGMENT PARA USE32 PUBLIC 'CODE'
_TEXT	ENDS
;	COMDAT __imp_?GetPropertiesSize@UStruct@@UAEHXZ
_TEXT	SEGMENT PARA USE32 PUBLIC 'CODE'
_TEXT	ENDS
;	COMDAT __imp_?GetNameCPP@UStruct@@UAEPAGXZ
_TEXT	SEGMENT PARA USE32 PUBLIC 'CODE'
_TEXT	ENDS
;	COMDAT __imp_?GetSuperStruct@UStruct@@QBEPAV1@XZ
_TEXT	SEGMENT PARA USE32 PUBLIC 'CODE'
_TEXT	ENDS
;	COMDAT ??_GUStruct@@UAEPAXI@Z
_TEXT	SEGMENT PARA USE32 PUBLIC 'CODE'
_TEXT	ENDS
;	COMDAT __imp_?StaticClass@UFunction@@SAPAVUClass@@XZ
_TEXT	SEGMENT PARA USE32 PUBLIC 'CODE'
_TEXT	ENDS
;	COMDAT __imp_??2UFunction@@SAPAXIPAW4EInternal@@@Z
_TEXT	SEGMENT PARA USE32 PUBLIC 'CODE'
_TEXT	ENDS
;	COMDAT __imp_??1UFunction@@UAE@XZ
_TEXT	SEGMENT PARA USE32 PUBLIC 'CODE'
_TEXT	ENDS
;	COMDAT __imp_??0UFunction@@IAE@XZ
_TEXT	SEGMENT PARA USE32 PUBLIC 'CODE'
_TEXT	ENDS
;	COMDAT __imp_?MergeBools@UFunction@@UAEHXZ
_TEXT	SEGMENT PARA USE32 PUBLIC 'CODE'
_TEXT	ENDS
;	COMDAT __imp_?GetInheritanceSuper@UFunction@@UAEPAVUStruct@@XZ
_TEXT	SEGMENT PARA USE32 PUBLIC 'CODE'
_TEXT	ENDS
;	COMDAT ??_GUFunction@@UAEPAXI@Z
_TEXT	SEGMENT PARA USE32 PUBLIC 'CODE'
_TEXT	ENDS
;	COMDAT __imp_?StaticClass@UState@@SAPAVUClass@@XZ
_TEXT	SEGMENT PARA USE32 PUBLIC 'CODE'
_TEXT	ENDS
;	COMDAT __imp_??2UState@@SAPAXIPAW4EInternal@@@Z
_TEXT	SEGMENT PARA USE32 PUBLIC 'CODE'
_TEXT	ENDS
;	COMDAT __imp_??1UState@@UAE@XZ
_TEXT	SEGMENT PARA USE32 PUBLIC 'CODE'
_TEXT	ENDS
;	COMDAT __imp_??0UState@@IAE@XZ
_TEXT	SEGMENT PARA USE32 PUBLIC 'CODE'
_TEXT	ENDS
;	COMDAT __imp_?MergeBools@UState@@UAEHXZ
_TEXT	SEGMENT PARA USE32 PUBLIC 'CODE'
_TEXT	ENDS
;	COMDAT __imp_?GetInheritanceSuper@UState@@UAEPAVUStruct@@XZ
_TEXT	SEGMENT PARA USE32 PUBLIC 'CODE'
_TEXT	ENDS
;	COMDAT __imp_?GetSuperState@UState@@QBEPAV1@XZ
_TEXT	SEGMENT PARA USE32 PUBLIC 'CODE'
_TEXT	ENDS
;	COMDAT ??_GUState@@UAEPAXI@Z
_TEXT	SEGMENT PARA USE32 PUBLIC 'CODE'
_TEXT	ENDS
;	COMDAT __imp_?StaticClass@UEnum@@SAPAVUClass@@XZ
_TEXT	SEGMENT PARA USE32 PUBLIC 'CODE'
_TEXT	ENDS
;	COMDAT __imp_??2UEnum@@SAPAXIPAW4EInternal@@@Z
_TEXT	SEGMENT PARA USE32 PUBLIC 'CODE'
_TEXT	ENDS
;	COMDAT __imp_??1UEnum@@UAE@XZ
_TEXT	SEGMENT PARA USE32 PUBLIC 'CODE'
_TEXT	ENDS
;	COMDAT __imp_??0UEnum@@IAE@XZ
_TEXT	SEGMENT PARA USE32 PUBLIC 'CODE'
_TEXT	ENDS
;	COMDAT ??_GUEnum@@UAEPAXI@Z
_TEXT	SEGMENT PARA USE32 PUBLIC 'CODE'
_TEXT	ENDS
;	COMDAT __imp_?StaticClass@UClass@@SAPAV1@XZ
_TEXT	SEGMENT PARA USE32 PUBLIC 'CODE'
_TEXT	ENDS
;	COMDAT __imp_??2UClass@@SAPAXIPAW4EInternal@@@Z
_TEXT	SEGMENT PARA USE32 PUBLIC 'CODE'
_TEXT	ENDS
;	COMDAT __imp_??1UClass@@UAE@XZ
_TEXT	SEGMENT PARA USE32 PUBLIC 'CODE'
_TEXT	ENDS
;	COMDAT __imp_?MergeBools@UClass@@UAEHXZ
_TEXT	SEGMENT PARA USE32 PUBLIC 'CODE'
_TEXT	ENDS
;	COMDAT __imp_?GetInheritanceSuper@UClass@@UAEPAVUStruct@@XZ
_TEXT	SEGMENT PARA USE32 PUBLIC 'CODE'
_TEXT	ENDS
;	COMDAT __imp_?GetNameCPP@UClass@@UAEPAGXZ
_TEXT	SEGMENT PARA USE32 PUBLIC 'CODE'
_TEXT	ENDS
;	COMDAT __imp_?GetSuperClass@UClass@@QBEPAV1@XZ
_TEXT	SEGMENT PARA USE32 PUBLIC 'CODE'
_TEXT	ENDS
;	COMDAT __imp_?GetDefaultActor@UClass@@QAEPAVAActor@@XZ
_TEXT	SEGMENT PARA USE32 PUBLIC 'CODE'
_TEXT	ENDS
;	COMDAT ??_GUClass@@UAEPAXI@Z
_TEXT	SEGMENT PARA USE32 PUBLIC 'CODE'
_TEXT	ENDS
;	COMDAT __imp_?StaticClass@UConst@@SAPAVUClass@@XZ
_TEXT	SEGMENT PARA USE32 PUBLIC 'CODE'
_TEXT	ENDS
;	COMDAT __imp_??2UConst@@SAPAXIPAW4EInternal@@@Z
_TEXT	SEGMENT PARA USE32 PUBLIC 'CODE'
_TEXT	ENDS
;	COMDAT __imp_??1UConst@@UAE@XZ
_TEXT	SEGMENT PARA USE32 PUBLIC 'CODE'
_TEXT	ENDS
;	COMDAT __imp_??0UConst@@IAE@XZ
_TEXT	SEGMENT PARA USE32 PUBLIC 'CODE'
_TEXT	ENDS
;	COMDAT ??_GUConst@@UAEPAXI@Z
_TEXT	SEGMENT PARA USE32 PUBLIC 'CODE'
_TEXT	ENDS
;	COMDAT __imp_?StaticClass@UProperty@@SAPAVUClass@@XZ
_TEXT	SEGMENT PARA USE32 PUBLIC 'CODE'
_TEXT	ENDS
;	COMDAT __imp_??1UProperty@@UAE@XZ
_TEXT	SEGMENT PARA USE32 PUBLIC 'CODE'
_TEXT	ENDS
;	COMDAT __imp_?Matches@UProperty@@QBEHPBX0H@Z
_TEXT	SEGMENT PARA USE32 PUBLIC 'CODE'
_TEXT	ENDS
;	COMDAT __imp_?StaticClass@UByteProperty@@SAPAVUClass@@XZ
_TEXT	SEGMENT PARA USE32 PUBLIC 'CODE'
_TEXT	ENDS
;	COMDAT __imp_??2UByteProperty@@SAPAXIPAW4EInternal@@@Z
_TEXT	SEGMENT PARA USE32 PUBLIC 'CODE'
_TEXT	ENDS
;	COMDAT __imp_??1UByteProperty@@UAE@XZ
_TEXT	SEGMENT PARA USE32 PUBLIC 'CODE'
_TEXT	ENDS
;	COMDAT __imp_??0UByteProperty@@QAE@XZ
_TEXT	SEGMENT PARA USE32 PUBLIC 'CODE'
_TEXT	ENDS
;	COMDAT ??_GUByteProperty@@UAEPAXI@Z
_TEXT	SEGMENT PARA USE32 PUBLIC 'CODE'
_TEXT	ENDS
;	COMDAT __imp_?StaticClass@UIntProperty@@SAPAVUClass@@XZ
_TEXT	SEGMENT PARA USE32 PUBLIC 'CODE'
_TEXT	ENDS
;	COMDAT __imp_??2UIntProperty@@SAPAXIPAW4EInternal@@@Z
_TEXT	SEGMENT PARA USE32 PUBLIC 'CODE'
_TEXT	ENDS
;	COMDAT __imp_??1UIntProperty@@UAE@XZ
_TEXT	SEGMENT PARA USE32 PUBLIC 'CODE'
_TEXT	ENDS
;	COMDAT __imp_??0UIntProperty@@QAE@XZ
_TEXT	SEGMENT PARA USE32 PUBLIC 'CODE'
_TEXT	ENDS
;	COMDAT ??_GUIntProperty@@UAEPAXI@Z
_TEXT	SEGMENT PARA USE32 PUBLIC 'CODE'
_TEXT	ENDS
;	COMDAT __imp_?StaticClass@UBoolProperty@@SAPAVUClass@@XZ
_TEXT	SEGMENT PARA USE32 PUBLIC 'CODE'
_TEXT	ENDS
;	COMDAT __imp_??2UBoolProperty@@SAPAXIPAW4EInternal@@@Z
_TEXT	SEGMENT PARA USE32 PUBLIC 'CODE'
_TEXT	ENDS
;	COMDAT __imp_??1UBoolProperty@@UAE@XZ
_TEXT	SEGMENT PARA USE32 PUBLIC 'CODE'
_TEXT	ENDS
;	COMDAT __imp_??0UBoolProperty@@QAE@XZ
_TEXT	SEGMENT PARA USE32 PUBLIC 'CODE'
_TEXT	ENDS
;	COMDAT ??_GUBoolProperty@@UAEPAXI@Z
_TEXT	SEGMENT PARA USE32 PUBLIC 'CODE'
_TEXT	ENDS
;	COMDAT __imp_?StaticClass@UFloatProperty@@SAPAVUClass@@XZ
_TEXT	SEGMENT PARA USE32 PUBLIC 'CODE'
_TEXT	ENDS
;	COMDAT __imp_??2UFloatProperty@@SAPAXIPAW4EInternal@@@Z
_TEXT	SEGMENT PARA USE32 PUBLIC 'CODE'
_TEXT	ENDS
;	COMDAT __imp_??1UFloatProperty@@UAE@XZ
_TEXT	SEGMENT PARA USE32 PUBLIC 'CODE'
_TEXT	ENDS
;	COMDAT __imp_??0UFloatProperty@@QAE@XZ
_TEXT	SEGMENT PARA USE32 PUBLIC 'CODE'
_TEXT	ENDS
;	COMDAT ??_GUFloatProperty@@UAEPAXI@Z
_TEXT	SEGMENT PARA USE32 PUBLIC 'CODE'
_TEXT	ENDS
;	COMDAT __imp_?StaticClass@UObjectProperty@@SAPAVUClass@@XZ
_TEXT	SEGMENT PARA USE32 PUBLIC 'CODE'
_TEXT	ENDS
;	COMDAT __imp_??2UObjectProperty@@SAPAXIPAW4EInternal@@@Z
_TEXT	SEGMENT PARA USE32 PUBLIC 'CODE'
_TEXT	ENDS
;	COMDAT __imp_??1UObjectProperty@@UAE@XZ
_TEXT	SEGMENT PARA USE32 PUBLIC 'CODE'
_TEXT	ENDS
;	COMDAT __imp_??0UObjectProperty@@QAE@XZ
_TEXT	SEGMENT PARA USE32 PUBLIC 'CODE'
_TEXT	ENDS
;	COMDAT __imp_??0UObjectProperty@@QAE@W4ECppProperty@@HPBGKPAVUClass@@@Z
_TEXT	SEGMENT PARA USE32 PUBLIC 'CODE'
_TEXT	ENDS
;	COMDAT ??_GUObjectProperty@@UAEPAXI@Z
_TEXT	SEGMENT PARA USE32 PUBLIC 'CODE'
_TEXT	ENDS
;	COMDAT __imp_?StaticClass@UClassProperty@@SAPAVUClass@@XZ
_TEXT	SEGMENT PARA USE32 PUBLIC 'CODE'
_TEXT	ENDS
;	COMDAT __imp_??2UClassProperty@@SAPAXIPAW4EInternal@@@Z
_TEXT	SEGMENT PARA USE32 PUBLIC 'CODE'
_TEXT	ENDS
;	COMDAT __imp_??1UClassProperty@@UAE@XZ
_TEXT	SEGMENT PARA USE32 PUBLIC 'CODE'
_TEXT	ENDS
;	COMDAT __imp_??0UClassProperty@@QAE@XZ
_TEXT	SEGMENT PARA USE32 PUBLIC 'CODE'
_TEXT	ENDS
;	COMDAT __imp_?GetID@UClassProperty@@UBEEXZ
_TEXT	SEGMENT PARA USE32 PUBLIC 'CODE'
_TEXT	ENDS
;	COMDAT ??_GUClassProperty@@UAEPAXI@Z
_TEXT	SEGMENT PARA USE32 PUBLIC 'CODE'
_TEXT	ENDS
;	COMDAT __imp_?StaticClass@UNameProperty@@SAPAVUClass@@XZ
_TEXT	SEGMENT PARA USE32 PUBLIC 'CODE'
_TEXT	ENDS
;	COMDAT __imp_??2UNameProperty@@SAPAXIPAW4EInternal@@@Z
_TEXT	SEGMENT PARA USE32 PUBLIC 'CODE'
_TEXT	ENDS
;	COMDAT __imp_??1UNameProperty@@UAE@XZ
_TEXT	SEGMENT PARA USE32 PUBLIC 'CODE'
_TEXT	ENDS
;	COMDAT __imp_??0UNameProperty@@QAE@XZ
_TEXT	SEGMENT PARA USE32 PUBLIC 'CODE'
_TEXT	ENDS
;	COMDAT ??_GUNameProperty@@UAEPAXI@Z
_TEXT	SEGMENT PARA USE32 PUBLIC 'CODE'
_TEXT	ENDS
;	COMDAT __imp_?StaticClass@UStrProperty@@SAPAVUClass@@XZ
_TEXT	SEGMENT PARA USE32 PUBLIC 'CODE'
_TEXT	ENDS
;	COMDAT __imp_??2UStrProperty@@SAPAXIPAW4EInternal@@@Z
_TEXT	SEGMENT PARA USE32 PUBLIC 'CODE'
_TEXT	ENDS
;	COMDAT __imp_??1UStrProperty@@UAE@XZ
_TEXT	SEGMENT PARA USE32 PUBLIC 'CODE'
_TEXT	ENDS
;	COMDAT __imp_??0UStrProperty@@QAE@XZ
_TEXT	SEGMENT PARA USE32 PUBLIC 'CODE'
_TEXT	ENDS
;	COMDAT ??_GUStrProperty@@UAEPAXI@Z
_TEXT	SEGMENT PARA USE32 PUBLIC 'CODE'
_TEXT	ENDS
;	COMDAT __imp_?StaticClass@UFixedArrayProperty@@SAPAVUClass@@XZ
_TEXT	SEGMENT PARA USE32 PUBLIC 'CODE'
_TEXT	ENDS
;	COMDAT __imp_??2UFixedArrayProperty@@SAPAXIPAW4EInternal@@@Z
_TEXT	SEGMENT PARA USE32 PUBLIC 'CODE'
_TEXT	ENDS
;	COMDAT __imp_??1UFixedArrayProperty@@UAE@XZ
_TEXT	SEGMENT PARA USE32 PUBLIC 'CODE'
_TEXT	ENDS
;	COMDAT __imp_??0UFixedArrayProperty@@QAE@XZ
_TEXT	SEGMENT PARA USE32 PUBLIC 'CODE'
_TEXT	ENDS
;	COMDAT ??_GUFixedArrayProperty@@UAEPAXI@Z
_TEXT	SEGMENT PARA USE32 PUBLIC 'CODE'
_TEXT	ENDS
;	COMDAT __imp_?StaticClass@UArrayProperty@@SAPAVUClass@@XZ
_TEXT	SEGMENT PARA USE32 PUBLIC 'CODE'
_TEXT	ENDS
;	COMDAT __imp_??2UArrayProperty@@SAPAXIPAW4EInternal@@@Z
_TEXT	SEGMENT PARA USE32 PUBLIC 'CODE'
_TEXT	ENDS
;	COMDAT __imp_??1UArrayProperty@@UAE@XZ
_TEXT	SEGMENT PARA USE32 PUBLIC 'CODE'
_TEXT	ENDS
;	COMDAT __imp_??0UArrayProperty@@QAE@XZ
_TEXT	SEGMENT PARA USE32 PUBLIC 'CODE'
_TEXT	ENDS
;	COMDAT ??_GUArrayProperty@@UAEPAXI@Z
_TEXT	SEGMENT PARA USE32 PUBLIC 'CODE'
_TEXT	ENDS
;	COMDAT __imp_?StaticClass@UMapProperty@@SAPAVUClass@@XZ
_TEXT	SEGMENT PARA USE32 PUBLIC 'CODE'
_TEXT	ENDS
;	COMDAT __imp_??2UMapProperty@@SAPAXIPAW4EInternal@@@Z
_TEXT	SEGMENT PARA USE32 PUBLIC 'CODE'
_TEXT	ENDS
;	COMDAT __imp_??1UMapProperty@@UAE@XZ
_TEXT	SEGMENT PARA USE32 PUBLIC 'CODE'
_TEXT	ENDS
;	COMDAT __imp_??0UMapProperty@@QAE@XZ
_TEXT	SEGMENT PARA USE32 PUBLIC 'CODE'
_TEXT	ENDS
;	COMDAT ??_GUMapProperty@@UAEPAXI@Z
_TEXT	SEGMENT PARA USE32 PUBLIC 'CODE'
_TEXT	ENDS
;	COMDAT __imp_?StaticClass@UStructProperty@@SAPAVUClass@@XZ
_TEXT	SEGMENT PARA USE32 PUBLIC 'CODE'
_TEXT	ENDS
;	COMDAT __imp_??2UStructProperty@@SAPAXIPAW4EInternal@@@Z
_TEXT	SEGMENT PARA USE32 PUBLIC 'CODE'
_TEXT	ENDS
;	COMDAT __imp_??1UStructProperty@@UAE@XZ
_TEXT	SEGMENT PARA USE32 PUBLIC 'CODE'
_TEXT	ENDS
;	COMDAT __imp_??0UStructProperty@@QAE@XZ
_TEXT	SEGMENT PARA USE32 PUBLIC 'CODE'
_TEXT	ENDS
;	COMDAT ??_GUStructProperty@@UAEPAXI@Z
_TEXT	SEGMENT PARA USE32 PUBLIC 'CODE'
_TEXT	ENDS
;	COMDAT __imp_?IsA@UObject@@QBIHPAVUClass@@@Z
_TEXT	SEGMENT PARA USE32 PUBLIC 'CODE'
_TEXT	ENDS
;	COMDAT __imp_?IsProbing@UObject@@QAEHVFName@@@Z
_TEXT	SEGMENT PARA USE32 PUBLIC 'CODE'
_TEXT	ENDS
;	COMDAT __imp_??0FFrame@@QAE@PAVUObject@@@Z
_TEXT	SEGMENT PARA USE32 PUBLIC 'CODE'
_TEXT	ENDS
;	COMDAT __imp_??1FStateFrame@@QAE@XZ
_TEXT	SEGMENT PARA USE32 PUBLIC 'CODE'
_TEXT	ENDS
;	COMDAT ??_GFStateFrame@@QAEPAXI@Z
_TEXT	SEGMENT PARA USE32 PUBLIC 'CODE'
_TEXT	ENDS
;	COMDAT ??0FGenerationInfo@@QAE@HH@Z
_TEXT	SEGMENT PARA USE32 PUBLIC 'CODE'
_TEXT	ENDS
;	COMDAT ??6@YAAAVFArchive@@AAV0@AAUFGenerationInfo@@@Z
_TEXT	SEGMENT PARA USE32 PUBLIC 'CODE'
_TEXT	ENDS
;	COMDAT ??0FPackageFileSummary@@QAE@XZ
_TEXT	SEGMENT PARA USE32 PUBLIC 'CODE'
_TEXT	ENDS
;	COMDAT __imp_?StaticClass@ULinker@@SAPAVUClass@@XZ
_TEXT	SEGMENT PARA USE32 PUBLIC 'CODE'
_TEXT	ENDS
;	COMDAT __imp_??2ULinker@@SAPAXIPAW4EInternal@@@Z
_TEXT	SEGMENT PARA USE32 PUBLIC 'CODE'
_TEXT	ENDS
;	COMDAT __imp_??1ULinker@@UAE@XZ
_TEXT	SEGMENT PARA USE32 PUBLIC 'CODE'
_TEXT	ENDS
;	COMDAT __imp_??0ULinker@@IAE@XZ
_TEXT	SEGMENT PARA USE32 PUBLIC 'CODE'
_TEXT	ENDS
;	COMDAT ??_GULinker@@UAEPAXI@Z
_TEXT	SEGMENT PARA USE32 PUBLIC 'CODE'
_TEXT	ENDS
;	COMDAT ??1FPackageFileSummary@@QAE@XZ
_TEXT	SEGMENT PARA USE32 PUBLIC 'CODE'
_TEXT	ENDS
;	COMDAT ?StaticClass@ULinkerLoad@@SAPAVUClass@@XZ
_TEXT	SEGMENT PARA USE32 PUBLIC 'CODE'
_TEXT	ENDS
;	COMDAT ??2ULinkerLoad@@SAPAXIPAW4EInternal@@@Z
_TEXT	SEGMENT PARA USE32 PUBLIC 'CODE'
_TEXT	ENDS
;	COMDAT ??1ULinkerLoad@@UAE@XZ
_TEXT	SEGMENT PARA USE32 PUBLIC 'CODE'
_TEXT	ENDS
;	COMDAT ??0ULinkerLoad@@IAE@XZ
_TEXT	SEGMENT PARA USE32 PUBLIC 'CODE'
_TEXT	ENDS
;	COMDAT ??_GULinkerLoad@@UAEPAXI@Z
_TEXT	SEGMENT PARA USE32 PUBLIC 'CODE'
_TEXT	ENDS
;	COMDAT ?StaticClass@ULinkerSave@@SAPAVUClass@@XZ
_TEXT	SEGMENT PARA USE32 PUBLIC 'CODE'
_TEXT	ENDS
;	COMDAT ??2ULinkerSave@@SAPAXIPAW4EInternal@@@Z
_TEXT	SEGMENT PARA USE32 PUBLIC 'CODE'
_TEXT	ENDS
;	COMDAT ??1ULinkerSave@@UAE@XZ
_TEXT	SEGMENT PARA USE32 PUBLIC 'CODE'
_TEXT	ENDS
;	COMDAT ??0ULinkerSave@@IAE@XZ
_TEXT	SEGMENT PARA USE32 PUBLIC 'CODE'
_TEXT	ENDS
;	COMDAT ??_GULinkerSave@@UAEPAXI@Z
_TEXT	SEGMENT PARA USE32 PUBLIC 'CODE'
_TEXT	ENDS
;	COMDAT __imp_?StaticClass@UFactory@@SAPAVUClass@@XZ
_TEXT	SEGMENT PARA USE32 PUBLIC 'CODE'
_TEXT	ENDS
;	COMDAT __imp_??1UFactory@@UAE@XZ
_TEXT	SEGMENT PARA USE32 PUBLIC 'CODE'
_TEXT	ENDS
;	COMDAT __imp_?StaticClass@UExporter@@SAPAVUClass@@XZ
_TEXT	SEGMENT PARA USE32 PUBLIC 'CODE'
_TEXT	ENDS
;	COMDAT __imp_??1UExporter@@UAE@XZ
_TEXT	SEGMENT PARA USE32 PUBLIC 'CODE'
_TEXT	ENDS
;	COMDAT __imp_?GHash@FMemCache@@QAEKK@Z
_TEXT	SEGMENT PARA USE32 PUBLIC 'CODE'
_TEXT	ENDS
;	COMDAT __imp_?PushBytes@FMemStack@@QAEPAEHH@Z
_TEXT	SEGMENT PARA USE32 PUBLIC 'CODE'
_TEXT	ENDS
;	COMDAT __imp_?Tick@FMemStack@@QAEXXZ
_TEXT	SEGMENT PARA USE32 PUBLIC 'CODE'
_TEXT	ENDS
;	COMDAT ?FSnap@@YAMMM@Z
_TEXT	SEGMENT PARA USE32 PUBLIC 'CODE'
_TEXT	ENDS
;	COMDAT ?FSheerSnap@@YAMM@Z
_TEXT	SEGMENT PARA USE32 PUBLIC 'CODE'
_TEXT	ENDS
;	COMDAT ?FAddAngleConfined@@YIGHHHH@Z
_TEXT	SEGMENT PARA USE32 PUBLIC 'CODE'
_TEXT	ENDS
;	COMDAT __imp_??0FVector@@QAE@XZ
_TEXT	SEGMENT PARA USE32 PUBLIC 'CODE'
_TEXT	ENDS
;	COMDAT __imp_??0FVector@@QAE@MMM@Z
_TEXT	SEGMENT PARA USE32 PUBLIC 'CODE'
_TEXT	ENDS
;	COMDAT __imp_??TFVector@@QBE?AV0@ABV0@@Z
_TEXT	SEGMENT PARA USE32 PUBLIC 'CODE'
_TEXT	ENDS
;	COMDAT __imp_??UFVector@@QBEMABV0@@Z
_TEXT	SEGMENT PARA USE32 PUBLIC 'CODE'
_TEXT	ENDS
;	COMDAT ??D@YA?AVFVector@@MABV0@@Z
_TEXT	SEGMENT PARA USE32 PUBLIC 'CODE'
_TEXT	ENDS
;	COMDAT __imp_??HFVector@@QBE?AV0@ABV0@@Z
_TEXT	SEGMENT PARA USE32 PUBLIC 'CODE'
_TEXT	ENDS
;	COMDAT __imp_??GFVector@@QBE?AV0@ABV0@@Z
_TEXT	SEGMENT PARA USE32 PUBLIC 'CODE'
_TEXT	ENDS
;	COMDAT __imp_??DFVector@@QBE?AV0@M@Z
_TEXT	SEGMENT PARA USE32 PUBLIC 'CODE'
_TEXT	ENDS
;	COMDAT __imp_??KFVector@@QBE?AV0@M@Z
_TEXT	SEGMENT PARA USE32 PUBLIC 'CODE'
_TEXT	ENDS
;	COMDAT __imp_??8FVector@@QBEHABV0@@Z
_TEXT	SEGMENT PARA USE32 PUBLIC 'CODE'
_TEXT	ENDS
;	COMDAT __imp_??9FVector@@QBEHABV0@@Z
_TEXT	SEGMENT PARA USE32 PUBLIC 'CODE'
_TEXT	ENDS
;	COMDAT __imp_??GFVector@@QBE?AV0@XZ
_TEXT	SEGMENT PARA USE32 PUBLIC 'CODE'
_TEXT	ENDS
;	COMDAT __imp_??YFVector@@QAE?AV0@ABV0@@Z
_TEXT	SEGMENT PARA USE32 PUBLIC 'CODE'
_TEXT	ENDS
;	COMDAT __imp_??ZFVector@@QAE?AV0@ABV0@@Z
_TEXT	SEGMENT PARA USE32 PUBLIC 'CODE'
_TEXT	ENDS
;	COMDAT __imp_??XFVector@@QAE?AV0@M@Z
_TEXT	SEGMENT PARA USE32 PUBLIC 'CODE'
_TEXT	ENDS
;	COMDAT __imp_??_0FVector@@QAE?AV0@M@Z
_TEXT	SEGMENT PARA USE32 PUBLIC 'CODE'
_TEXT	ENDS
;	COMDAT __imp_??XFVector@@QAE?AV0@ABV0@@Z
_TEXT	SEGMENT PARA USE32 PUBLIC 'CODE'
_TEXT	ENDS
;	COMDAT __imp_??_0FVector@@QAE?AV0@ABV0@@Z
_TEXT	SEGMENT PARA USE32 PUBLIC 'CODE'
_TEXT	ENDS
;	COMDAT __imp_?SizeSquared@FVector@@QBEMXZ
_TEXT	SEGMENT PARA USE32 PUBLIC 'CODE'
_TEXT	ENDS
;	COMDAT __imp_?Normalize@FVector@@QAEHXZ
_TEXT	SEGMENT PARA USE32 PUBLIC 'CODE'
_TEXT	ENDS
;	COMDAT __imp_?UnsafeNormal@FVector@@QBE?AV1@XZ
_TEXT	SEGMENT PARA USE32 PUBLIC 'CODE'
_TEXT	ENDS
;	COMDAT __imp_?BoundToCube@FVector@@QAE?AV1@M@Z
_TEXT	SEGMENT PARA USE32 PUBLIC 'CODE'
_TEXT	ENDS
;	COMDAT ??6@YAAAVFArchive@@AAV0@AAVFVector@@@Z
_TEXT	SEGMENT PARA USE32 PUBLIC 'CODE'
_TEXT	ENDS
;	COMDAT __imp_?ToStd@FVector@@QBE?AV1@XZ
_TEXT	SEGMENT PARA USE32 PUBLIC 'CODE'
_TEXT	ENDS
;	COMDAT __imp_?ToUnr@FVector@@QBE?AV1@XZ
_TEXT	SEGMENT PARA USE32 PUBLIC 'CODE'
_TEXT	ENDS
;	COMDAT __imp_??0FVectorDouble@@QAE@NNN@Z
_TEXT	SEGMENT PARA USE32 PUBLIC 'CODE'
_TEXT	ENDS
;	COMDAT __imp_??HFVectorDouble@@QBE?AV0@ABV0@@Z
_TEXT	SEGMENT PARA USE32 PUBLIC 'CODE'
_TEXT	ENDS
;	COMDAT __imp_?BoundToCube@FVectorDouble@@QAE?AV1@N@Z
_TEXT	SEGMENT PARA USE32 PUBLIC 'CODE'
_TEXT	ENDS
;	COMDAT __imp_??0FQuat@@QAE@XZ
_TEXT	SEGMENT PARA USE32 PUBLIC 'CODE'
_TEXT	ENDS
;	COMDAT __imp_??0FQuat@@QAE@ABVFVector@@M@Z
_TEXT	SEGMENT PARA USE32 PUBLIC 'CODE'
_TEXT	ENDS
;	COMDAT __imp_??4FQuat@@QAEAAV0@ABV0@@Z
_TEXT	SEGMENT PARA USE32 PUBLIC 'CODE'
_TEXT	ENDS
;	COMDAT __imp_?SizeSquared@FQuat@@QBEMXZ
_TEXT	SEGMENT PARA USE32 PUBLIC 'CODE'
_TEXT	ENDS
;	COMDAT __imp_?Size@FQuat@@QBEMXZ
_TEXT	SEGMENT PARA USE32 PUBLIC 'CODE'
_TEXT	ENDS
;	COMDAT __imp_?Normalize@FQuat@@QAEMXZ
_TEXT	SEGMENT PARA USE32 PUBLIC 'CODE'
_TEXT	ENDS
;	COMDAT __imp_??GFQuat@@QBE?AV0@XZ
_TEXT	SEGMENT PARA USE32 PUBLIC 'CODE'
_TEXT	ENDS
;	COMDAT __imp_??DFQuat@@QBE?AV0@ABV0@@Z
_TEXT	SEGMENT PARA USE32 PUBLIC 'CODE'
_TEXT	ENDS
;	COMDAT __imp_??UFQuat@@QBEMABV0@@Z
_TEXT	SEGMENT PARA USE32 PUBLIC 'CODE'
_TEXT	ENDS
;	COMDAT __imp_??8FQuat@@QBEHABV0@@Z
_TEXT	SEGMENT PARA USE32 PUBLIC 'CODE'
_TEXT	ENDS
;	COMDAT ??_H@YGXPAXIHP6EX0@Z@Z
_TEXT	SEGMENT PARA USE32 PUBLIC 'CODE'
_TEXT	ENDS
;	COMDAT __imp_??0FPlane@@QAE@XZ
_TEXT	SEGMENT PARA USE32 PUBLIC 'CODE'
_TEXT	ENDS
;	COMDAT __imp_??0FPlane@@QAE@ABV0@@Z
_TEXT	SEGMENT PARA USE32 PUBLIC 'CODE'
_TEXT	ENDS
;	COMDAT __imp_??0FPlane@@QAE@ABVFVector@@@Z
_TEXT	SEGMENT PARA USE32 PUBLIC 'CODE'
_TEXT	ENDS
;	COMDAT __imp_??0FPlane@@QAE@MMMM@Z
_TEXT	SEGMENT PARA USE32 PUBLIC 'CODE'
_TEXT	ENDS
;	COMDAT __imp_??0FPlane@@QAE@VFVector@@M@Z
_TEXT	SEGMENT PARA USE32 PUBLIC 'CODE'
_TEXT	ENDS
;	COMDAT __imp_?PlaneDot@FPlane@@QBEMABVFVector@@@Z
_TEXT	SEGMENT PARA USE32 PUBLIC 'CODE'
_TEXT	ENDS
;	COMDAT ??6@YAAAVFArchive@@AAV0@AAVFPlane@@@Z
_TEXT	SEGMENT PARA USE32 PUBLIC 'CODE'
_TEXT	ENDS
;	COMDAT __imp_??0FSphere@@QAE@H@Z
_TEXT	SEGMENT PARA USE32 PUBLIC 'CODE'
_TEXT	ENDS
;	COMDAT __imp_??0FScale@@QAE@XZ
_TEXT	SEGMENT PARA USE32 PUBLIC 'CODE'
_TEXT	ENDS
;	COMDAT __imp_?Orientation@FScale@@QAEMXZ
_TEXT	SEGMENT PARA USE32 PUBLIC 'CODE'
_TEXT	ENDS
;	COMDAT __imp_??0FCoords@@QAE@XZ
_TEXT	SEGMENT PARA USE32 PUBLIC 'CODE'
_TEXT	ENDS
;	COMDAT __imp_??0FCoords@@QAE@ABVFVector@@@Z
_TEXT	SEGMENT PARA USE32 PUBLIC 'CODE'
_TEXT	ENDS
;	COMDAT __imp_??0FCoords@@QAE@ABVFVector@@000@Z
_TEXT	SEGMENT PARA USE32 PUBLIC 'CODE'
_TEXT	ENDS
;	COMDAT __imp_??0FModelCoords@@QAE@ABVFCoords@@0@Z
_TEXT	SEGMENT PARA USE32 PUBLIC 'CODE'
_TEXT	ENDS
;	COMDAT __imp_??0FRotator@@QAE@XZ
_TEXT	SEGMENT PARA USE32 PUBLIC 'CODE'
_TEXT	ENDS
;	COMDAT __imp_??0FRotator@@QAE@HHH@Z
_TEXT	SEGMENT PARA USE32 PUBLIC 'CODE'
_TEXT	ENDS
;	COMDAT __imp_??HFRotator@@QBE?AV0@ABV0@@Z
_TEXT	SEGMENT PARA USE32 PUBLIC 'CODE'
_TEXT	ENDS
;	COMDAT __imp_??DFRotator@@QBE?AV0@M@Z
_TEXT	SEGMENT PARA USE32 PUBLIC 'CODE'
_TEXT	ENDS
;	COMDAT ??D@YA?AVFRotator@@MABV0@@Z
_TEXT	SEGMENT PARA USE32 PUBLIC 'CODE'
_TEXT	ENDS
;	COMDAT __imp_??0FRange@@QAE@MM@Z
_TEXT	SEGMENT PARA USE32 PUBLIC 'CODE'
_TEXT	ENDS
;	COMDAT __imp_??0FBox@@QAE@XZ
_TEXT	SEGMENT PARA USE32 PUBLIC 'CODE'
_TEXT	ENDS
;	COMDAT __imp_??0FBox@@QAE@H@Z
_TEXT	SEGMENT PARA USE32 PUBLIC 'CODE'
_TEXT	ENDS
;	COMDAT __imp_??0FBox@@QAE@ABVFVector@@0@Z
_TEXT	SEGMENT PARA USE32 PUBLIC 'CODE'
_TEXT	ENDS
;	COMDAT __imp_?GetExtrema@FBox@@QBEABVFVector@@H@Z
_TEXT	SEGMENT PARA USE32 PUBLIC 'CODE'
_TEXT	ENDS
;	COMDAT __imp_?Init@FBox@@QAEXXZ
_TEXT	SEGMENT PARA USE32 PUBLIC 'CODE'
_TEXT	ENDS
;	COMDAT __imp_??YFBox@@QAEAAV0@ABVFVector@@@Z
_TEXT	SEGMENT PARA USE32 PUBLIC 'CODE'
_TEXT	ENDS
;	COMDAT __imp_??YFBox@@QAEAAV0@ABV0@@Z
_TEXT	SEGMENT PARA USE32 PUBLIC 'CODE'
_TEXT	ENDS
;	COMDAT __imp_?SinTab@FGlobalMath@@QAEMH@Z
_TEXT	SEGMENT PARA USE32 PUBLIC 'CODE'
_TEXT	ENDS
;	COMDAT __imp_?CosTab@FGlobalMath@@QAEMH@Z
_TEXT	SEGMENT PARA USE32 PUBLIC 'CODE'
_TEXT	ENDS
;	COMDAT ?ReduceAngle@@YAHH@Z
_TEXT	SEGMENT PARA USE32 PUBLIC 'CODE'
_TEXT	ENDS
;	COMDAT ?ASMTransformPoint@@YAXABVFCoords@@ABVFVector@@AAV2@@Z
_TEXT	SEGMENT PARA USE32 PUBLIC 'CODE'
_TEXT	ENDS
;	COMDAT ?ASMTransformVector@@YAXABVFCoords@@ABVFVector@@AAV2@@Z
_TEXT	SEGMENT PARA USE32 PUBLIC 'CODE'
_TEXT	ENDS
;	COMDAT __imp_?TransformPointBy@FVector@@QBE?AV1@ABVFCoords@@@Z
_TEXT	SEGMENT PARA USE32 PUBLIC 'CODE'
_TEXT	ENDS
;	COMDAT __imp_?TransformVectorBy@FVector@@QBE?AV1@ABVFCoords@@@Z
_TEXT	SEGMENT PARA USE32 PUBLIC 'CODE'
_TEXT	ENDS
;	COMDAT __imp_?MirrorByVector@FVector@@QBE?AV1@ABV1@@Z
_TEXT	SEGMENT PARA USE32 PUBLIC 'CODE'
_TEXT	ENDS
;	COMDAT __imp_?MirrorByPlane@FVector@@QBE?AV1@ABVFPlane@@@Z
_TEXT	SEGMENT PARA USE32 PUBLIC 'CODE'
_TEXT	ENDS
;	COMDAT ?FPointPlaneDist@@YAMABVFVector@@00@Z
_TEXT	SEGMENT PARA USE32 PUBLIC 'CODE'
_TEXT	ENDS
;	COMDAT ?FParallel@@YAHABVFVector@@0@Z
_TEXT	SEGMENT PARA USE32 PUBLIC 'CODE'
_TEXT	ENDS
;	COMDAT __imp_?Transpose@FCoords@@QBE?AV1@XZ
_TEXT	SEGMENT PARA USE32 PUBLIC 'CODE'
_TEXT	ENDS
;	COMDAT __imp_??XFCoords@@QAEAAV0@ABV0@@Z
_TEXT	SEGMENT PARA USE32 PUBLIC 'CODE'
_TEXT	ENDS
;	COMDAT __imp_??DFCoords@@QBE?AV0@ABV0@@Z
_TEXT	SEGMENT PARA USE32 PUBLIC 'CODE'
_TEXT	ENDS
;	COMDAT __imp_??XFCoords@@QAEAAV0@ABVFRotator@@@Z
_TEXT	SEGMENT PARA USE32 PUBLIC 'CODE'
_TEXT	ENDS
;	COMDAT __imp_??DFCoords@@QBE?AV0@ABVFRotator@@@Z
_TEXT	SEGMENT PARA USE32 PUBLIC 'CODE'
_TEXT	ENDS
;	COMDAT __imp_??XFCoords@@QAEAAV0@ABVFVector@@@Z
_TEXT	SEGMENT PARA USE32 PUBLIC 'CODE'
_TEXT	ENDS
;	COMDAT __imp_??DFCoords@@QBE?AV0@ABVFVector@@@Z
_TEXT	SEGMENT PARA USE32 PUBLIC 'CODE'
_TEXT	ENDS
;	COMDAT __imp_??_0FCoords@@QAEAAV0@ABVFRotator@@@Z
_TEXT	SEGMENT PARA USE32 PUBLIC 'CODE'
_TEXT	ENDS
;	COMDAT __imp_??KFCoords@@QBE?AV0@ABVFRotator@@@Z
_TEXT	SEGMENT PARA USE32 PUBLIC 'CODE'
_TEXT	ENDS
;	COMDAT __imp_??_0FCoords@@QAEAAV0@ABVFVector@@@Z
_TEXT	SEGMENT PARA USE32 PUBLIC 'CODE'
_TEXT	ENDS
;	COMDAT __imp_??KFCoords@@QBE?AV0@ABVFVector@@@Z
_TEXT	SEGMENT PARA USE32 PUBLIC 'CODE'
_TEXT	ENDS
;	COMDAT __imp_??XFCoords@@QAEAAV0@ABVFScale@@@Z
_TEXT	SEGMENT PARA USE32 PUBLIC 'CODE'
_TEXT	ENDS
;	COMDAT __imp_??DFCoords@@QBE?AV0@ABVFScale@@@Z
_TEXT	SEGMENT PARA USE32 PUBLIC 'CODE'
_TEXT	ENDS
;	COMDAT __imp_??_0FCoords@@QAEAAV0@ABVFScale@@@Z
_TEXT	SEGMENT PARA USE32 PUBLIC 'CODE'
_TEXT	ENDS
;	COMDAT __imp_??KFCoords@@QBE?AV0@ABVFScale@@@Z
_TEXT	SEGMENT PARA USE32 PUBLIC 'CODE'
_TEXT	ENDS
;	COMDAT __imp_??0FMatrix@@QAE@XZ
_TEXT	SEGMENT PARA USE32 PUBLIC 'CODE'
_TEXT	ENDS
;	COMDAT __imp_??0FMatrix@@QAE@ABV0@@Z
_TEXT	SEGMENT PARA USE32 PUBLIC 'CODE'
_TEXT	ENDS
;	COMDAT __imp_??6FCoords@@QBE?AV0@ABV0@@Z
_TEXT	SEGMENT PARA USE32 PUBLIC 'CODE'
_TEXT	ENDS
;	COMDAT __imp_??SFCoords@@QBE?AV0@XZ
_TEXT	SEGMENT PARA USE32 PUBLIC 'CODE'
_TEXT	ENDS
;	COMDAT ?Splerp@@YAMM@Z
_TEXT	SEGMENT PARA USE32 PUBLIC 'CODE'
_TEXT	ENDS
;	COMDAT __imp_??0FPointRegion@@QAE@XZ
_TEXT	SEGMENT PARA USE32 PUBLIC 'CODE'
_TEXT	ENDS
;	COMDAT ?IsCsg@FBspNode@@QBEHK@Z
_TEXT	SEGMENT PARA USE32 PUBLIC 'CODE'
_TEXT	ENDS
;	COMDAT __imp_?StaticClass@UPolys@@SAPAVUClass@@XZ
_TEXT	SEGMENT PARA USE32 PUBLIC 'CODE'
_TEXT	ENDS
;	COMDAT __imp_??2UPolys@@SAPAXIPAW4EInternal@@@Z
_TEXT	SEGMENT PARA USE32 PUBLIC 'CODE'
_TEXT	ENDS
;	COMDAT __imp_??1UPolys@@UAE@XZ
_TEXT	SEGMENT PARA USE32 PUBLIC 'CODE'
_TEXT	ENDS
;	COMDAT __imp_??0UPolys@@QAE@XZ
_TEXT	SEGMENT PARA USE32 PUBLIC 'CODE'
_TEXT	ENDS
;	COMDAT __imp_?Serialize@UPolys@@UAEXAAVFArchive@@@Z
_TEXT	SEGMENT PARA USE32 PUBLIC 'CODE'
_TEXT	ENDS
;	COMDAT ??_GUPolys@@UAEPAXI@Z
_TEXT	SEGMENT PARA USE32 PUBLIC 'CODE'
_TEXT	ENDS
;	COMDAT ??1?$TTransArray@VFPoly@@@@QAE@XZ
_TEXT	SEGMENT PARA USE32 PUBLIC 'CODE'
_TEXT	ENDS
;	COMDAT ??0FIteratorActorList@@QAE@XZ
_TEXT	SEGMENT PARA USE32 PUBLIC 'CODE'
_TEXT	ENDS
;	COMDAT ??0FIteratorActorList@@QAE@PAU0@PAVAActor@@@Z
_TEXT	SEGMENT PARA USE32 PUBLIC 'CODE'
_TEXT	ENDS
;	COMDAT __imp_?StaticClass@UPrimitive@@SAPAVUClass@@XZ
_TEXT	SEGMENT PARA USE32 PUBLIC 'CODE'
_TEXT	ENDS
;	COMDAT __imp_??2UPrimitive@@SAPAXIPAW4EInternal@@@Z
_TEXT	SEGMENT PARA USE32 PUBLIC 'CODE'
_TEXT	ENDS
;	COMDAT __imp_??1UPrimitive@@UAE@XZ
_TEXT	SEGMENT PARA USE32 PUBLIC 'CODE'
_TEXT	ENDS
;	COMDAT __imp_??0UPrimitive@@QAE@XZ
_TEXT	SEGMENT PARA USE32 PUBLIC 'CODE'
_TEXT	ENDS
;	COMDAT ??_GUPrimitive@@UAEPAXI@Z
_TEXT	SEGMENT PARA USE32 PUBLIC 'CODE'
_TEXT	ENDS
;	COMDAT __imp_?StaticClass@UModel@@SAPAVUClass@@XZ
_TEXT	SEGMENT PARA USE32 PUBLIC 'CODE'
_TEXT	ENDS
;	COMDAT __imp_??2UModel@@SAPAXIPAW4EInternal@@@Z
_TEXT	SEGMENT PARA USE32 PUBLIC 'CODE'
_TEXT	ENDS
;	COMDAT __imp_??1UModel@@UAE@XZ
_TEXT	SEGMENT PARA USE32 PUBLIC 'CODE'
_TEXT	ENDS
;	COMDAT __imp_??0UModel@@QAE@XZ
_TEXT	SEGMENT PARA USE32 PUBLIC 'CODE'
_TEXT	ENDS
;	COMDAT ??_GUModel@@UAEPAXI@Z
_TEXT	SEGMENT PARA USE32 PUBLIC 'CODE'
_TEXT	ENDS
;	COMDAT ??1?$TTransArray@VFBspNode@@@@QAE@XZ
_TEXT	SEGMENT PARA USE32 PUBLIC 'CODE'
_TEXT	ENDS
;	COMDAT ??1?$TTransArray@VFVert@@@@QAE@XZ
_TEXT	SEGMENT PARA USE32 PUBLIC 'CODE'
_TEXT	ENDS
;	COMDAT ??1?$TTransArray@VFVector@@@@QAE@XZ
_TEXT	SEGMENT PARA USE32 PUBLIC 'CODE'
_TEXT	ENDS
;	COMDAT ??1?$TTransArray@VFBspSurf@@@@QAE@XZ
_TEXT	SEGMENT PARA USE32 PUBLIC 'CODE'
_TEXT	ENDS
;	COMDAT __imp_??0FColor@@QAE@XZ
_TEXT	SEGMENT PARA USE32 PUBLIC 'CODE'
_TEXT	ENDS
;	COMDAT __imp_??0FColor@@QAE@EEE@Z
_TEXT	SEGMENT PARA USE32 PUBLIC 'CODE'
_TEXT	ENDS
;	COMDAT __imp_??0FColor@@QAE@ABVFPlane@@@Z
_TEXT	SEGMENT PARA USE32 PUBLIC 'CODE'
_TEXT	ENDS
;	COMDAT __imp_?Plane@FColor@@QBE?AVFVector@@XZ
_TEXT	SEGMENT PARA USE32 PUBLIC 'CODE'
_TEXT	ENDS
;	COMDAT __imp_?StaticClass@UPalette@@SAPAVUClass@@XZ
_TEXT	SEGMENT PARA USE32 PUBLIC 'CODE'
_TEXT	ENDS
;	COMDAT __imp_??2UPalette@@SAPAXIPAVUObject@@VFName@@K@Z
_TEXT	SEGMENT PARA USE32 PUBLIC 'CODE'
_TEXT	ENDS
;	COMDAT __imp_??2UPalette@@SAPAXIPAW4EInternal@@@Z
_TEXT	SEGMENT PARA USE32 PUBLIC 'CODE'
_TEXT	ENDS
;	COMDAT __imp_??1UPalette@@UAE@XZ
_TEXT	SEGMENT PARA USE32 PUBLIC 'CODE'
_TEXT	ENDS
;	COMDAT ??_GUPalette@@UAEPAXI@Z
_TEXT	SEGMENT PARA USE32 PUBLIC 'CODE'
_TEXT	ENDS
;	COMDAT __imp_??0FMipmapBase@@QAE@EE@Z
_TEXT	SEGMENT PARA USE32 PUBLIC 'CODE'
_TEXT	ENDS
;	COMDAT __imp_??0FMipmapBase@@QAE@XZ
_TEXT	SEGMENT PARA USE32 PUBLIC 'CODE'
_TEXT	ENDS
;	COMDAT __imp_?StaticClass@UBitmap@@SAPAVUClass@@XZ
_TEXT	SEGMENT PARA USE32 PUBLIC 'CODE'
_TEXT	ENDS
;	COMDAT __imp_??1UBitmap@@UAE@XZ
_TEXT	SEGMENT PARA USE32 PUBLIC 'CODE'
_TEXT	ENDS
;	COMDAT __imp_?StaticClass@UTexture@@SAPAVUClass@@XZ
_TEXT	SEGMENT PARA USE32 PUBLIC 'CODE'
_TEXT	ENDS
;	COMDAT __imp_??2UTexture@@SAPAXIPAW4EInternal@@@Z
_TEXT	SEGMENT PARA USE32 PUBLIC 'CODE'
_TEXT	ENDS
;	COMDAT ??6@YAAAVFArchive@@AAV0@AAPAVUTexture@@@Z
_TEXT	SEGMENT PARA USE32 PUBLIC 'CODE'
_TEXT	ENDS
;	COMDAT __imp_??1UTexture@@UAE@XZ
_TEXT	SEGMENT PARA USE32 PUBLIC 'CODE'
_TEXT	ENDS
;	COMDAT __imp_?InternalConstructor@UTexture@@SAXPAX@Z
_TEXT	SEGMENT PARA USE32 PUBLIC 'CODE'
_TEXT	ENDS
;	COMDAT __imp_?GetMip@UTexture@@UAEPAUFMipmapBase@@H@Z
_TEXT	SEGMENT PARA USE32 PUBLIC 'CODE'
_TEXT	ENDS
;	COMDAT __imp_?MousePosition@UTexture@@UAEXKMM@Z
_TEXT	SEGMENT PARA USE32 PUBLIC 'CODE'
_TEXT	ENDS
;	COMDAT __imp_?Click@UTexture@@UAEXKMM@Z
_TEXT	SEGMENT PARA USE32 PUBLIC 'CODE'
_TEXT	ENDS
;	COMDAT ??_GUTexture@@UAEPAXI@Z
_TEXT	SEGMENT PARA USE32 PUBLIC 'CODE'
_TEXT	ENDS
;	COMDAT ??6@YAAAVFArchive@@AAV0@AAUFFontCharacter@@@Z
_TEXT	SEGMENT PARA USE32 PUBLIC 'CODE'
_TEXT	ENDS
;	COMDAT __imp_?StaticClass@UFont@@SAPAVUClass@@XZ
_TEXT	SEGMENT PARA USE32 PUBLIC 'CODE'
_TEXT	ENDS
;	COMDAT __imp_??2UFont@@SAPAXIPAW4EInternal@@@Z
_TEXT	SEGMENT PARA USE32 PUBLIC 'CODE'
_TEXT	ENDS
;	COMDAT __imp_??1UFont@@UAE@XZ
_TEXT	SEGMENT PARA USE32 PUBLIC 'CODE'
_TEXT	ENDS
;	COMDAT ??_GUFont@@UAEPAXI@Z
_TEXT	SEGMENT PARA USE32 PUBLIC 'CODE'
_TEXT	ENDS
;	COMDAT __imp_?StaticClass@UFontTrueType@@SAPAVUClass@@XZ
_TEXT	SEGMENT PARA USE32 PUBLIC 'CODE'
_TEXT	ENDS
;	COMDAT __imp_??2UFontTrueType@@SAPAXIPAW4EInternal@@@Z
_TEXT	SEGMENT PARA USE32 PUBLIC 'CODE'
_TEXT	ENDS
;	COMDAT __imp_??1UFontTrueType@@UAE@XZ
_TEXT	SEGMENT PARA USE32 PUBLIC 'CODE'
_TEXT	ENDS
;	COMDAT ??_GUFontTrueType@@UAEPAXI@Z
_TEXT	SEGMENT PARA USE32 PUBLIC 'CODE'
_TEXT	ENDS
;	COMDAT ??1?$TMap@GH@@QAE@XZ
_TEXT	SEGMENT PARA USE32 PUBLIC 'CODE'
_TEXT	ENDS
;	COMDAT __imp_?StaticClass@UProceduralTexture@@SAPAVUClass@@XZ
_TEXT	SEGMENT PARA USE32 PUBLIC 'CODE'
_TEXT	ENDS
;	COMDAT __imp_??1UProceduralTexture@@UAE@XZ
_TEXT	SEGMENT PARA USE32 PUBLIC 'CODE'
_TEXT	ENDS
;	COMDAT __imp_?StaticClass@UMesh@@SAPAVUClass@@XZ
_TEXT	SEGMENT PARA USE32 PUBLIC 'CODE'
_TEXT	ENDS
;	COMDAT __imp_??2UMesh@@SAPAXIPAW4EInternal@@@Z
_TEXT	SEGMENT PARA USE32 PUBLIC 'CODE'
_TEXT	ENDS
;	COMDAT __imp_??1UMesh@@UAE@XZ
_TEXT	SEGMENT PARA USE32 PUBLIC 'CODE'
_TEXT	ENDS
;	COMDAT __imp_?GetInstanceClass@UMesh@@UAEPAVUClass@@XZ
_TEXT	SEGMENT PARA USE32 PUBLIC 'CODE'
_TEXT	ENDS
;	COMDAT ??_GUMesh@@UAEPAXI@Z
_TEXT	SEGMENT PARA USE32 PUBLIC 'CODE'
_TEXT	ENDS
;	COMDAT __imp_?StaticClass@UMeshInstance@@SAPAVUClass@@XZ
_TEXT	SEGMENT PARA USE32 PUBLIC 'CODE'
_TEXT	ENDS
;	COMDAT __imp_??2UMeshInstance@@SAPAXIPAW4EInternal@@@Z
_TEXT	SEGMENT PARA USE32 PUBLIC 'CODE'
_TEXT	ENDS
;	COMDAT __imp_??1UMeshInstance@@UAE@XZ
_TEXT	SEGMENT PARA USE32 PUBLIC 'CODE'
_TEXT	ENDS
;	COMDAT __imp_?PointCheck@UMeshInstance@@UAEHAAUFCheckResult@@PAVAActor@@VFVector@@2K@Z
_TEXT	SEGMENT PARA USE32 PUBLIC 'CODE'
_TEXT	ENDS
;	COMDAT __imp_?LineCheck@UMeshInstance@@UAEHAAUFCheckResult@@PAVAActor@@VFVector@@22KH@Z
_TEXT	SEGMENT PARA USE32 PUBLIC 'CODE'
_TEXT	ENDS
;	COMDAT __imp_?GetRenderBoundingBox@UMeshInstance@@UAE?AVFBox@@PBVAActor@@H@Z
_TEXT	SEGMENT PARA USE32 PUBLIC 'CODE'
_TEXT	ENDS
;	COMDAT __imp_?GetCollisionBoundingBox@UMeshInstance@@UBE?AVFBox@@PBVAActor@@@Z
_TEXT	SEGMENT PARA USE32 PUBLIC 'CODE'
_TEXT	ENDS
;	COMDAT __imp_?GetMesh@UMeshInstance@@UAEPAVUMesh@@XZ
_TEXT	SEGMENT PARA USE32 PUBLIC 'CODE'
_TEXT	ENDS
;	COMDAT __imp_?SetMesh@UMeshInstance@@UAEXPAVUMesh@@@Z
_TEXT	SEGMENT PARA USE32 PUBLIC 'CODE'
_TEXT	ENDS
;	COMDAT __imp_?GetActor@UMeshInstance@@UAEPAVAActor@@XZ
_TEXT	SEGMENT PARA USE32 PUBLIC 'CODE'
_TEXT	ENDS
;	COMDAT __imp_?SetActor@UMeshInstance@@UAEXPAVAActor@@@Z
_TEXT	SEGMENT PARA USE32 PUBLIC 'CODE'
_TEXT	ENDS
;	COMDAT __imp_?GetNumSequences@UMeshInstance@@UAEHXZ
_TEXT	SEGMENT PARA USE32 PUBLIC 'CODE'
_TEXT	ENDS
;	COMDAT __imp_?GetSequence@UMeshInstance@@UAEPAXH@Z
_TEXT	SEGMENT PARA USE32 PUBLIC 'CODE'
_TEXT	ENDS
;	COMDAT __imp_?FindSequence@UMeshInstance@@UAEPAXVFName@@@Z
_TEXT	SEGMENT PARA USE32 PUBLIC 'CODE'
_TEXT	ENDS
;	COMDAT __imp_?GetSeqName@UMeshInstance@@UAE?AVFName@@PAX@Z
_TEXT	SEGMENT PARA USE32 PUBLIC 'CODE'
_TEXT	ENDS
;	COMDAT __imp_?SetSeqGroupName@UMeshInstance@@UAEXVFName@@0@Z
_TEXT	SEGMENT PARA USE32 PUBLIC 'CODE'
_TEXT	ENDS
;	COMDAT __imp_?GetSeqGroupName@UMeshInstance@@UAE?AVFName@@V2@@Z
_TEXT	SEGMENT PARA USE32 PUBLIC 'CODE'
_TEXT	ENDS
;	COMDAT __imp_?GetSeqNumFrames@UMeshInstance@@UAEHPAX@Z
_TEXT	SEGMENT PARA USE32 PUBLIC 'CODE'
_TEXT	ENDS
;	COMDAT __imp_?GetSeqRate@UMeshInstance@@UAEMPAX@Z
_TEXT	SEGMENT PARA USE32 PUBLIC 'CODE'
_TEXT	ENDS
;	COMDAT __imp_?GetSeqNumEvents@UMeshInstance@@UAEHPAX@Z
_TEXT	SEGMENT PARA USE32 PUBLIC 'CODE'
_TEXT	ENDS
;	COMDAT __imp_?GetSeqEventType@UMeshInstance@@UAE?AW4EMeshSeqEvent@@PAXH@Z
_TEXT	SEGMENT PARA USE32 PUBLIC 'CODE'
_TEXT	ENDS
;	COMDAT __imp_?GetSeqEventTime@UMeshInstance@@UAEMPAXH@Z
_TEXT	SEGMENT PARA USE32 PUBLIC 'CODE'
_TEXT	ENDS
;	COMDAT __imp_?GetSeqEventString@UMeshInstance@@UAEPBGPAXH@Z
_TEXT	SEGMENT PARA USE32 PUBLIC 'CODE'
_TEXT	ENDS
;	COMDAT __imp_?PlaySequence@UMeshInstance@@UAEHPAXEHMMM@Z
_TEXT	SEGMENT PARA USE32 PUBLIC 'CODE'
_TEXT	ENDS
;	COMDAT __imp_?DriveSequences@UMeshInstance@@UAEXM@Z
_TEXT	SEGMENT PARA USE32 PUBLIC 'CODE'
_TEXT	ENDS
;	COMDAT __imp_?GetTexture@UMeshInstance@@UAEPAVUTexture@@H@Z
_TEXT	SEGMENT PARA USE32 PUBLIC 'CODE'
_TEXT	ENDS
;	COMDAT __imp_?GetStringValue@UMeshInstance@@UAEXAAVFOutputDevice@@PBGH@Z
_TEXT	SEGMENT PARA USE32 PUBLIC 'CODE'
_TEXT	ENDS
;	COMDAT __imp_?SendStringCommand@UMeshInstance@@UAEXPBG@Z
_TEXT	SEGMENT PARA USE32 PUBLIC 'CODE'
_TEXT	ENDS
;	COMDAT __imp_?GetBasisCoords@UMeshInstance@@UAE?AVFCoords@@V2@@Z
_TEXT	SEGMENT PARA USE32 PUBLIC 'CODE'
_TEXT	ENDS
;	COMDAT __imp_?GetFrame@UMeshInstance@@UAEHPAVFVector@@PAEHVFCoords@@M@Z
_TEXT	SEGMENT PARA USE32 PUBLIC 'CODE'
_TEXT	ENDS
;	COMDAT __imp_?GetMountCoords@UMeshInstance@@UAEHVFName@@HAAVFCoords@@PAVAActor@@@Z
_TEXT	SEGMENT PARA USE32 PUBLIC 'CODE'
_TEXT	ENDS
;	COMDAT __imp_?Draw@UMeshInstance@@UAEXPAX0VFCoords@@K@Z
_TEXT	SEGMENT PARA USE32 PUBLIC 'CODE'
_TEXT	ENDS
;	COMDAT ??_GUMeshInstance@@UAEPAXI@Z
_TEXT	SEGMENT PARA USE32 PUBLIC 'CODE'
_TEXT	ENDS
;	COMDAT __imp_??0UMeshInstance@@QAE@XZ
_TEXT	SEGMENT PARA USE32 PUBLIC 'CODE'
_TEXT	ENDS
;	COMDAT __imp_??0FMeshChannel@@QAE@XZ
_TEXT	SEGMENT PARA USE32 PUBLIC 'CODE'
_TEXT	ENDS
;	COMDAT __imp_?StaticClass@AActor@@SAPAVUClass@@XZ
_TEXT	SEGMENT PARA USE32 PUBLIC 'CODE'
_TEXT	ENDS
;	COMDAT __imp_??2AActor@@SAPAXIPAW4EInternal@@@Z
_TEXT	SEGMENT PARA USE32 PUBLIC 'CODE'
_TEXT	ENDS
;	COMDAT ??6@YAAAVFArchive@@AAV0@AAPAVAActor@@@Z
_TEXT	SEGMENT PARA USE32 PUBLIC 'CODE'
_TEXT	ENDS
;	COMDAT __imp_??1AActor@@UAE@XZ
_TEXT	SEGMENT PARA USE32 PUBLIC 'CODE'
_TEXT	ENDS
;	COMDAT __imp_??0AActor@@QAE@XZ
_TEXT	SEGMENT PARA USE32 PUBLIC 'CODE'
_TEXT	ENDS
;	COMDAT __imp_?ShouldDoScriptReplication@AActor@@UAEHXZ
_TEXT	SEGMENT PARA USE32 PUBLIC 'CODE'
_TEXT	ENDS
;	COMDAT __imp_?GetLevel@AActor@@QBEPAVULevel@@XZ
_TEXT	SEGMENT PARA USE32 PUBLIC 'CODE'
_TEXT	ENDS
;	COMDAT __imp_?WorldLightRadius@AActor@@UBEMXZ
_TEXT	SEGMENT PARA USE32 PUBLIC 'CODE'
_TEXT	ENDS
;	COMDAT __imp_?PostEditMove@AActor@@UAEXXZ
_TEXT	SEGMENT PARA USE32 PUBLIC 'CODE'
_TEXT	ENDS
;	COMDAT __imp_?PreRaytrace@AActor@@UAEXXZ
_TEXT	SEGMENT PARA USE32 PUBLIC 'CODE'
_TEXT	ENDS
;	COMDAT __imp_?PostRaytrace@AActor@@UAEXXZ
_TEXT	SEGMENT PARA USE32 PUBLIC 'CODE'
_TEXT	ENDS
;	COMDAT __imp_?Spawned@AActor@@UAEXXZ
_TEXT	SEGMENT PARA USE32 PUBLIC 'CODE'
_TEXT	ENDS
;	COMDAT __imp_?ToLocal@AActor@@UBE?AVFCoords@@XZ
_TEXT	SEGMENT PARA USE32 PUBLIC 'CODE'
_TEXT	ENDS
;	COMDAT __imp_?ToWorld@AActor@@UBE?AVFCoords@@XZ
_TEXT	SEGMENT PARA USE32 PUBLIC 'CODE'
_TEXT	ENDS
;	COMDAT __imp_?IsPendingKill@AActor@@UAEHXZ
_TEXT	SEGMENT PARA USE32 PUBLIC 'CODE'
_TEXT	ENDS
;	COMDAT __imp_?GetMeshInstance@AActor@@QAEPAVUMeshInstance@@XZ
_TEXT	SEGMENT PARA USE32 PUBLIC 'CODE'
_TEXT	ENDS
;	COMDAT ??0AActor_eventCalcView_Parms@@QAE@XZ
_TEXT	SEGMENT PARA USE32 PUBLIC 'CODE'
_TEXT	ENDS
;	COMDAT ??0AActor_eventGlobalTrigger_Parms@@QAE@XZ
_TEXT	SEGMENT PARA USE32 PUBLIC 'CODE'
_TEXT	ENDS
;	COMDAT ??0AActor_eventEnumSurfsInRadiusCB_Parms@@QAE@XZ
_TEXT	SEGMENT PARA USE32 PUBLIC 'CODE'
_TEXT	ENDS
;	COMDAT ??0AActor_eventBroadcastMessage_Parms@@QAE@XZ
_TEXT	SEGMENT PARA USE32 PUBLIC 'CODE'
_TEXT	ENDS
;	COMDAT ??1AActor_eventBroadcastMessage_Parms@@QAE@XZ
_TEXT	SEGMENT PARA USE32 PUBLIC 'CODE'
_TEXT	ENDS
;	COMDAT ??0AActor_eventTakeDamage_Parms@@QAE@XZ
_TEXT	SEGMENT PARA USE32 PUBLIC 'CODE'
_TEXT	ENDS
;	COMDAT ??0AActor_eventPushedByMover_Parms@@QAE@XZ
_TEXT	SEGMENT PARA USE32 PUBLIC 'CODE'
_TEXT	ENDS
;	COMDAT ??0AActor_eventLanded_Parms@@QAE@XZ
_TEXT	SEGMENT PARA USE32 PUBLIC 'CODE'
_TEXT	ENDS
;	COMDAT ??0AActor_eventHitWall_Parms@@QAE@XZ
_TEXT	SEGMENT PARA USE32 PUBLIC 'CODE'
_TEXT	ENDS
;	COMDAT ??_GAActor@@UAEPAXI@Z
_TEXT	SEGMENT PARA USE32 PUBLIC 'CODE'
_TEXT	ENDS
;	COMDAT __imp_?StaticClass@AInfoActor@@SAPAVUClass@@XZ
_TEXT	SEGMENT PARA USE32 PUBLIC 'CODE'
_TEXT	ENDS
;	COMDAT __imp_??2AInfoActor@@SAPAXIPAW4EInternal@@@Z
_TEXT	SEGMENT PARA USE32 PUBLIC 'CODE'
_TEXT	ENDS
;	COMDAT __imp_??1AInfoActor@@UAE@XZ
_TEXT	SEGMENT PARA USE32 PUBLIC 'CODE'
_TEXT	ENDS
;	COMDAT __imp_??0AInfoActor@@IAE@XZ
_TEXT	SEGMENT PARA USE32 PUBLIC 'CODE'
_TEXT	ENDS
;	COMDAT ??_GAInfoActor@@UAEPAXI@Z
_TEXT	SEGMENT PARA USE32 PUBLIC 'CODE'
_TEXT	ENDS
;	COMDAT __imp_?StaticClass@AInfo@@SAPAVUClass@@XZ
_TEXT	SEGMENT PARA USE32 PUBLIC 'CODE'
_TEXT	ENDS
;	COMDAT __imp_??2AInfo@@SAPAXIPAW4EInternal@@@Z
_TEXT	SEGMENT PARA USE32 PUBLIC 'CODE'
_TEXT	ENDS
;	COMDAT __imp_??1AInfo@@UAE@XZ
_TEXT	SEGMENT PARA USE32 PUBLIC 'CODE'
_TEXT	ENDS
;	COMDAT __imp_??0AInfo@@IAE@XZ
_TEXT	SEGMENT PARA USE32 PUBLIC 'CODE'
_TEXT	ENDS
;	COMDAT ??_GAInfo@@UAEPAXI@Z
_TEXT	SEGMENT PARA USE32 PUBLIC 'CODE'
_TEXT	ENDS
;	COMDAT __imp_?StaticClass@AInternetInfo@@SAPAVUClass@@XZ
_TEXT	SEGMENT PARA USE32 PUBLIC 'CODE'
_TEXT	ENDS
;	COMDAT __imp_??2AInternetInfo@@SAPAXIPAW4EInternal@@@Z
_TEXT	SEGMENT PARA USE32 PUBLIC 'CODE'
_TEXT	ENDS
;	COMDAT __imp_??1AInternetInfo@@UAE@XZ
_TEXT	SEGMENT PARA USE32 PUBLIC 'CODE'
_TEXT	ENDS
;	COMDAT __imp_??0AInternetInfo@@IAE@XZ
_TEXT	SEGMENT PARA USE32 PUBLIC 'CODE'
_TEXT	ENDS
;	COMDAT ??_GAInternetInfo@@UAEPAXI@Z
_TEXT	SEGMENT PARA USE32 PUBLIC 'CODE'
_TEXT	ENDS
;	COMDAT __imp_?StaticClass@AInternetLink@@SAPAVUClass@@XZ
_TEXT	SEGMENT PARA USE32 PUBLIC 'CODE'
_TEXT	ENDS
;	COMDAT __imp_??2AInternetLink@@SAPAXIPAW4EInternal@@@Z
_TEXT	SEGMENT PARA USE32 PUBLIC 'CODE'
_TEXT	ENDS
;	COMDAT __imp_??1AInternetLink@@UAE@XZ
_TEXT	SEGMENT PARA USE32 PUBLIC 'CODE'
_TEXT	ENDS
;	COMDAT ??_GAInternetLink@@UAEPAXI@Z
_TEXT	SEGMENT PARA USE32 PUBLIC 'CODE'
_TEXT	ENDS
;	COMDAT __imp_?StaticClass@AUdpLink@@SAPAVUClass@@XZ
_TEXT	SEGMENT PARA USE32 PUBLIC 'CODE'
_TEXT	ENDS
;	COMDAT __imp_??2AUdpLink@@SAPAXIPAW4EInternal@@@Z
_TEXT	SEGMENT PARA USE32 PUBLIC 'CODE'
_TEXT	ENDS
;	COMDAT __imp_??1AUdpLink@@UAE@XZ
_TEXT	SEGMENT PARA USE32 PUBLIC 'CODE'
_TEXT	ENDS
;	COMDAT ??0AUdpLink_eventReceivedLine_Parms@@QAE@XZ
_TEXT	SEGMENT PARA USE32 PUBLIC 'CODE'
_TEXT	ENDS
;	COMDAT ??1AUdpLink_eventReceivedLine_Parms@@QAE@XZ
_TEXT	SEGMENT PARA USE32 PUBLIC 'CODE'
_TEXT	ENDS
;	COMDAT ??0AUdpLink_eventReceivedText_Parms@@QAE@XZ
_TEXT	SEGMENT PARA USE32 PUBLIC 'CODE'
_TEXT	ENDS
;	COMDAT ??1AUdpLink_eventReceivedText_Parms@@QAE@XZ
_TEXT	SEGMENT PARA USE32 PUBLIC 'CODE'
_TEXT	ENDS
;	COMDAT ??_GAUdpLink@@UAEPAXI@Z
_TEXT	SEGMENT PARA USE32 PUBLIC 'CODE'
_TEXT	ENDS
;	COMDAT __imp_?StaticClass@ATcpLink@@SAPAVUClass@@XZ
_TEXT	SEGMENT PARA USE32 PUBLIC 'CODE'
_TEXT	ENDS
;	COMDAT __imp_??2ATcpLink@@SAPAXIPAW4EInternal@@@Z
_TEXT	SEGMENT PARA USE32 PUBLIC 'CODE'
_TEXT	ENDS
;	COMDAT __imp_??1ATcpLink@@UAE@XZ
_TEXT	SEGMENT PARA USE32 PUBLIC 'CODE'
_TEXT	ENDS
;	COMDAT ??0ATcpLink_eventReceivedLine_Parms@@QAE@XZ
_TEXT	SEGMENT PARA USE32 PUBLIC 'CODE'
_TEXT	ENDS
;	COMDAT ??1ATcpLink_eventReceivedLine_Parms@@QAE@XZ
_TEXT	SEGMENT PARA USE32 PUBLIC 'CODE'
_TEXT	ENDS
;	COMDAT ??0ATcpLink_eventReceivedText_Parms@@QAE@XZ
_TEXT	SEGMENT PARA USE32 PUBLIC 'CODE'
_TEXT	ENDS
;	COMDAT ??1ATcpLink_eventReceivedText_Parms@@QAE@XZ
_TEXT	SEGMENT PARA USE32 PUBLIC 'CODE'
_TEXT	ENDS
;	COMDAT ??_GATcpLink@@UAEPAXI@Z
_TEXT	SEGMENT PARA USE32 PUBLIC 'CODE'
_TEXT	ENDS
;	COMDAT __imp_?StaticClass@AMapLocations@@SAPAVUClass@@XZ
_TEXT	SEGMENT PARA USE32 PUBLIC 'CODE'
_TEXT	ENDS
;	COMDAT __imp_??2AMapLocations@@SAPAXIPAW4EInternal@@@Z
_TEXT	SEGMENT PARA USE32 PUBLIC 'CODE'
_TEXT	ENDS
;	COMDAT __imp_??1AMapLocations@@UAE@XZ
_TEXT	SEGMENT PARA USE32 PUBLIC 'CODE'
_TEXT	ENDS
;	COMDAT __imp_??0AMapLocations@@IAE@XZ
_TEXT	SEGMENT PARA USE32 PUBLIC 'CODE'
_TEXT	ENDS
;	COMDAT ??_GAMapLocations@@UAEPAXI@Z
_TEXT	SEGMENT PARA USE32 PUBLIC 'CODE'
_TEXT	ENDS
;	COMDAT __imp_??1FMapInfoData@@QAE@XZ
_TEXT	SEGMENT PARA USE32 PUBLIC 'CODE'
_TEXT	ENDS
;	COMDAT __imp_??0FMapInfoData@@QAE@XZ
_TEXT	SEGMENT PARA USE32 PUBLIC 'CODE'
_TEXT	ENDS
;	COMDAT __imp_?StaticClass@ADOTAffector@@SAPAVUClass@@XZ
_TEXT	SEGMENT PARA USE32 PUBLIC 'CODE'
_TEXT	ENDS
;	COMDAT __imp_??2ADOTAffector@@SAPAXIPAW4EInternal@@@Z
_TEXT	SEGMENT PARA USE32 PUBLIC 'CODE'
_TEXT	ENDS
;	COMDAT __imp_??1ADOTAffector@@UAE@XZ
_TEXT	SEGMENT PARA USE32 PUBLIC 'CODE'
_TEXT	ENDS
;	COMDAT __imp_??0ADOTAffector@@IAE@XZ
_TEXT	SEGMENT PARA USE32 PUBLIC 'CODE'
_TEXT	ENDS
;	COMDAT ??_GADOTAffector@@UAEPAXI@Z
_TEXT	SEGMENT PARA USE32 PUBLIC 'CODE'
_TEXT	ENDS
;	COMDAT __imp_?StaticClass@AActorDamageEffect@@SAPAVUClass@@XZ
_TEXT	SEGMENT PARA USE32 PUBLIC 'CODE'
_TEXT	ENDS
;	COMDAT __imp_??2AActorDamageEffect@@SAPAXIPAW4EInternal@@@Z
_TEXT	SEGMENT PARA USE32 PUBLIC 'CODE'
_TEXT	ENDS
;	COMDAT __imp_??1AActorDamageEffect@@UAE@XZ
_TEXT	SEGMENT PARA USE32 PUBLIC 'CODE'
_TEXT	ENDS
;	COMDAT __imp_??0AActorDamageEffect@@IAE@XZ
_TEXT	SEGMENT PARA USE32 PUBLIC 'CODE'
_TEXT	ENDS
;	COMDAT ??_GAActorDamageEffect@@UAEPAXI@Z
_TEXT	SEGMENT PARA USE32 PUBLIC 'CODE'
_TEXT	ENDS
;	COMDAT __imp_?StaticClass@AMutator@@SAPAVUClass@@XZ
_TEXT	SEGMENT PARA USE32 PUBLIC 'CODE'
_TEXT	ENDS
;	COMDAT __imp_??2AMutator@@SAPAXIPAW4EInternal@@@Z
_TEXT	SEGMENT PARA USE32 PUBLIC 'CODE'
_TEXT	ENDS
;	COMDAT __imp_??1AMutator@@UAE@XZ
_TEXT	SEGMENT PARA USE32 PUBLIC 'CODE'
_TEXT	ENDS
;	COMDAT __imp_??0AMutator@@IAE@XZ
_TEXT	SEGMENT PARA USE32 PUBLIC 'CODE'
_TEXT	ENDS
;	COMDAT ??_GAMutator@@UAEPAXI@Z
_TEXT	SEGMENT PARA USE32 PUBLIC 'CODE'
_TEXT	ENDS
;	COMDAT __imp_?StaticClass@AReplicationInfo@@SAPAVUClass@@XZ
_TEXT	SEGMENT PARA USE32 PUBLIC 'CODE'
_TEXT	ENDS
;	COMDAT __imp_??2AReplicationInfo@@SAPAXIPAW4EInternal@@@Z
_TEXT	SEGMENT PARA USE32 PUBLIC 'CODE'
_TEXT	ENDS
;	COMDAT __imp_??1AReplicationInfo@@UAE@XZ
_TEXT	SEGMENT PARA USE32 PUBLIC 'CODE'
_TEXT	ENDS
;	COMDAT __imp_??0AReplicationInfo@@IAE@XZ
_TEXT	SEGMENT PARA USE32 PUBLIC 'CODE'
_TEXT	ENDS
;	COMDAT ??_GAReplicationInfo@@UAEPAXI@Z
_TEXT	SEGMENT PARA USE32 PUBLIC 'CODE'
_TEXT	ENDS
;	COMDAT __imp_?StaticClass@AGameReplicationInfo@@SAPAVUClass@@XZ
_TEXT	SEGMENT PARA USE32 PUBLIC 'CODE'
_TEXT	ENDS
;	COMDAT __imp_??2AGameReplicationInfo@@SAPAXIPAW4EInternal@@@Z
_TEXT	SEGMENT PARA USE32 PUBLIC 'CODE'
_TEXT	ENDS
;	COMDAT __imp_??1AGameReplicationInfo@@UAE@XZ
_TEXT	SEGMENT PARA USE32 PUBLIC 'CODE'
_TEXT	ENDS
;	COMDAT __imp_??0AGameReplicationInfo@@QAE@XZ
_TEXT	SEGMENT PARA USE32 PUBLIC 'CODE'
_TEXT	ENDS
;	COMDAT ??_GAGameReplicationInfo@@UAEPAXI@Z
_TEXT	SEGMENT PARA USE32 PUBLIC 'CODE'
_TEXT	ENDS
;	COMDAT __imp_?StaticClass@APlayerReplicationInfo@@SAPAVUClass@@XZ
_TEXT	SEGMENT PARA USE32 PUBLIC 'CODE'
_TEXT	ENDS
;	COMDAT __imp_??2APlayerReplicationInfo@@SAPAXIPAW4EInternal@@@Z
_TEXT	SEGMENT PARA USE32 PUBLIC 'CODE'
_TEXT	ENDS
;	COMDAT __imp_??1APlayerReplicationInfo@@UAE@XZ
_TEXT	SEGMENT PARA USE32 PUBLIC 'CODE'
_TEXT	ENDS
;	COMDAT __imp_??0APlayerReplicationInfo@@QAE@XZ
_TEXT	SEGMENT PARA USE32 PUBLIC 'CODE'
_TEXT	ENDS
;	COMDAT ??_GAPlayerReplicationInfo@@UAEPAXI@Z
_TEXT	SEGMENT PARA USE32 PUBLIC 'CODE'
_TEXT	ENDS
;	COMDAT __imp_?StaticClass@ASavedMove@@SAPAVUClass@@XZ
_TEXT	SEGMENT PARA USE32 PUBLIC 'CODE'
_TEXT	ENDS
;	COMDAT __imp_??2ASavedMove@@SAPAXIPAW4EInternal@@@Z
_TEXT	SEGMENT PARA USE32 PUBLIC 'CODE'
_TEXT	ENDS
;	COMDAT __imp_??1ASavedMove@@UAE@XZ
_TEXT	SEGMENT PARA USE32 PUBLIC 'CODE'
_TEXT	ENDS
;	COMDAT __imp_??0ASavedMove@@IAE@XZ
_TEXT	SEGMENT PARA USE32 PUBLIC 'CODE'
_TEXT	ENDS
;	COMDAT ??_GASavedMove@@UAEPAXI@Z
_TEXT	SEGMENT PARA USE32 PUBLIC 'CODE'
_TEXT	ENDS
;	COMDAT __imp_?StaticClass@AZoneInfo@@SAPAVUClass@@XZ
_TEXT	SEGMENT PARA USE32 PUBLIC 'CODE'
_TEXT	ENDS
;	COMDAT __imp_??2AZoneInfo@@SAPAXIPAW4EInternal@@@Z
_TEXT	SEGMENT PARA USE32 PUBLIC 'CODE'
_TEXT	ENDS
;	COMDAT __imp_??1AZoneInfo@@UAE@XZ
_TEXT	SEGMENT PARA USE32 PUBLIC 'CODE'
_TEXT	ENDS
;	COMDAT __imp_??0AZoneInfo@@QAE@XZ
_TEXT	SEGMENT PARA USE32 PUBLIC 'CODE'
_TEXT	ENDS
;	COMDAT ??_GAZoneInfo@@UAEPAXI@Z
_TEXT	SEGMENT PARA USE32 PUBLIC 'CODE'
_TEXT	ENDS
;	COMDAT __imp_?StaticClass@AWarpZoneInfo@@SAPAVUClass@@XZ
_TEXT	SEGMENT PARA USE32 PUBLIC 'CODE'
_TEXT	ENDS
;	COMDAT __imp_??2AWarpZoneInfo@@SAPAXIPAW4EInternal@@@Z
_TEXT	SEGMENT PARA USE32 PUBLIC 'CODE'
_TEXT	ENDS
;	COMDAT __imp_??1AWarpZoneInfo@@UAE@XZ
_TEXT	SEGMENT PARA USE32 PUBLIC 'CODE'
_TEXT	ENDS
;	COMDAT __imp_??0AWarpZoneInfo@@IAE@XZ
_TEXT	SEGMENT PARA USE32 PUBLIC 'CODE'
_TEXT	ENDS
;	COMDAT ??_GAWarpZoneInfo@@UAEPAXI@Z
_TEXT	SEGMENT PARA USE32 PUBLIC 'CODE'
_TEXT	ENDS
;	COMDAT __imp_?StaticClass@ASkyZoneInfo@@SAPAVUClass@@XZ
_TEXT	SEGMENT PARA USE32 PUBLIC 'CODE'
_TEXT	ENDS
;	COMDAT __imp_??2ASkyZoneInfo@@SAPAXIPAW4EInternal@@@Z
_TEXT	SEGMENT PARA USE32 PUBLIC 'CODE'
_TEXT	ENDS
;	COMDAT __imp_??1ASkyZoneInfo@@UAE@XZ
_TEXT	SEGMENT PARA USE32 PUBLIC 'CODE'
_TEXT	ENDS
;	COMDAT __imp_??0ASkyZoneInfo@@IAE@XZ
_TEXT	SEGMENT PARA USE32 PUBLIC 'CODE'
_TEXT	ENDS
;	COMDAT ??_GASkyZoneInfo@@UAEPAXI@Z
_TEXT	SEGMENT PARA USE32 PUBLIC 'CODE'
_TEXT	ENDS
;	COMDAT __imp_?StaticClass@ALevelInfo@@SAPAVUClass@@XZ
_TEXT	SEGMENT PARA USE32 PUBLIC 'CODE'
_TEXT	ENDS
;	COMDAT __imp_??2ALevelInfo@@SAPAXIPAW4EInternal@@@Z
_TEXT	SEGMENT PARA USE32 PUBLIC 'CODE'
_TEXT	ENDS
;	COMDAT __imp_??1ALevelInfo@@UAE@XZ
_TEXT	SEGMENT PARA USE32 PUBLIC 'CODE'
_TEXT	ENDS
;	COMDAT __imp_??0ALevelInfo@@IAE@XZ
_TEXT	SEGMENT PARA USE32 PUBLIC 'CODE'
_TEXT	ENDS
;	COMDAT ??0ALevelInfo_eventServerTravel_Parms@@QAE@XZ
_TEXT	SEGMENT PARA USE32 PUBLIC 'CODE'
_TEXT	ENDS
;	COMDAT ??1ALevelInfo_eventServerTravel_Parms@@QAE@XZ
_TEXT	SEGMENT PARA USE32 PUBLIC 'CODE'
_TEXT	ENDS
;	COMDAT ??_GALevelInfo@@UAEPAXI@Z
_TEXT	SEGMENT PARA USE32 PUBLIC 'CODE'
_TEXT	ENDS
;	COMDAT __imp_??1FObjectiveInfo@@QAE@XZ
_TEXT	SEGMENT PARA USE32 PUBLIC 'CODE'
_TEXT	ENDS
;	COMDAT __imp_??0FObjectiveInfo@@QAE@XZ
_TEXT	SEGMENT PARA USE32 PUBLIC 'CODE'
_TEXT	ENDS
;	COMDAT __imp_?StaticClass@AGameInfo@@SAPAVUClass@@XZ
_TEXT	SEGMENT PARA USE32 PUBLIC 'CODE'
_TEXT	ENDS
;	COMDAT __imp_??2AGameInfo@@SAPAXIPAW4EInternal@@@Z
_TEXT	SEGMENT PARA USE32 PUBLIC 'CODE'
_TEXT	ENDS
;	COMDAT __imp_??1AGameInfo@@UAE@XZ
_TEXT	SEGMENT PARA USE32 PUBLIC 'CODE'
_TEXT	ENDS
;	COMDAT __imp_??0AGameInfo@@IAE@XZ
_TEXT	SEGMENT PARA USE32 PUBLIC 'CODE'
_TEXT	ENDS
;	COMDAT ??0AGameInfo_eventLoginNewClass_Parms@@QAE@XZ
_TEXT	SEGMENT PARA USE32 PUBLIC 'CODE'
_TEXT	ENDS
;	COMDAT ??1AGameInfo_eventLoginNewClass_Parms@@QAE@XZ
_TEXT	SEGMENT PARA USE32 PUBLIC 'CODE'
_TEXT	ENDS
;	COMDAT ??0AGameInfo_eventLogin_Parms@@QAE@XZ
_TEXT	SEGMENT PARA USE32 PUBLIC 'CODE'
_TEXT	ENDS
;	COMDAT ??1AGameInfo_eventLogin_Parms@@QAE@XZ
_TEXT	SEGMENT PARA USE32 PUBLIC 'CODE'
_TEXT	ENDS
;	COMDAT ??0AGameInfo_eventPreLogin_Parms@@QAE@XZ
_TEXT	SEGMENT PARA USE32 PUBLIC 'CODE'
_TEXT	ENDS
;	COMDAT ??1AGameInfo_eventPreLogin_Parms@@QAE@XZ
_TEXT	SEGMENT PARA USE32 PUBLIC 'CODE'
_TEXT	ENDS
;	COMDAT ??0AGameInfo_eventGetBeaconText_Parms@@QAE@XZ
_TEXT	SEGMENT PARA USE32 PUBLIC 'CODE'
_TEXT	ENDS
;	COMDAT ??1AGameInfo_eventGetBeaconText_Parms@@QAE@XZ
_TEXT	SEGMENT PARA USE32 PUBLIC 'CODE'
_TEXT	ENDS
;	COMDAT ??0AGameInfo_eventInitGame_Parms@@QAE@XZ
_TEXT	SEGMENT PARA USE32 PUBLIC 'CODE'
_TEXT	ENDS
;	COMDAT ??1AGameInfo_eventInitGame_Parms@@QAE@XZ
_TEXT	SEGMENT PARA USE32 PUBLIC 'CODE'
_TEXT	ENDS
;	COMDAT ??_GAGameInfo@@UAEPAXI@Z
_TEXT	SEGMENT PARA USE32 PUBLIC 'CODE'
_TEXT	ENDS
;	COMDAT __imp_?StaticClass@AMaterial@@SAPAVUClass@@XZ
_TEXT	SEGMENT PARA USE32 PUBLIC 'CODE'
_TEXT	ENDS
;	COMDAT __imp_??2AMaterial@@SAPAXIPAW4EInternal@@@Z
_TEXT	SEGMENT PARA USE32 PUBLIC 'CODE'
_TEXT	ENDS
;	COMDAT __imp_??1AMaterial@@UAE@XZ
_TEXT	SEGMENT PARA USE32 PUBLIC 'CODE'
_TEXT	ENDS
;	COMDAT __imp_??0AMaterial@@IAE@XZ
_TEXT	SEGMENT PARA USE32 PUBLIC 'CODE'
_TEXT	ENDS
;	COMDAT ??_GAMaterial@@UAEPAXI@Z
_TEXT	SEGMENT PARA USE32 PUBLIC 'CODE'
_TEXT	ENDS
;	COMDAT ??0FDamageCategoryEffectStruct@@QAE@XZ
_TEXT	SEGMENT PARA USE32 PUBLIC 'CODE'
_TEXT	ENDS
;	COMDAT __imp_?StaticClass@AFocalPoint@@SAPAVUClass@@XZ
_TEXT	SEGMENT PARA USE32 PUBLIC 'CODE'
_TEXT	ENDS
;	COMDAT __imp_??2AFocalPoint@@SAPAXIPAW4EInternal@@@Z
_TEXT	SEGMENT PARA USE32 PUBLIC 'CODE'
_TEXT	ENDS
;	COMDAT __imp_??1AFocalPoint@@UAE@XZ
_TEXT	SEGMENT PARA USE32 PUBLIC 'CODE'
_TEXT	ENDS
;	COMDAT ??_GAFocalPoint@@UAEPAXI@Z
_TEXT	SEGMENT PARA USE32 PUBLIC 'CODE'
_TEXT	ENDS
;	COMDAT __imp_??0AFocalPoint@@QAE@XZ
_TEXT	SEGMENT PARA USE32 PUBLIC 'CODE'
_TEXT	ENDS
;	COMDAT __imp_?StaticClass@ALight@@SAPAVUClass@@XZ
_TEXT	SEGMENT PARA USE32 PUBLIC 'CODE'
_TEXT	ENDS
;	COMDAT __imp_??2ALight@@SAPAXIPAW4EInternal@@@Z
_TEXT	SEGMENT PARA USE32 PUBLIC 'CODE'
_TEXT	ENDS
;	COMDAT __imp_??1ALight@@UAE@XZ
_TEXT	SEGMENT PARA USE32 PUBLIC 'CODE'
_TEXT	ENDS
;	COMDAT __imp_??0ALight@@IAE@XZ
_TEXT	SEGMENT PARA USE32 PUBLIC 'CODE'
_TEXT	ENDS
;	COMDAT ??_GALight@@UAEPAXI@Z
_TEXT	SEGMENT PARA USE32 PUBLIC 'CODE'
_TEXT	ENDS
;	COMDAT __imp_?StaticClass@AFlareLight@@SAPAVUClass@@XZ
_TEXT	SEGMENT PARA USE32 PUBLIC 'CODE'
_TEXT	ENDS
;	COMDAT __imp_??2AFlareLight@@SAPAXIPAW4EInternal@@@Z
_TEXT	SEGMENT PARA USE32 PUBLIC 'CODE'
_TEXT	ENDS
;	COMDAT __imp_??1AFlareLight@@UAE@XZ
_TEXT	SEGMENT PARA USE32 PUBLIC 'CODE'
_TEXT	ENDS
;	COMDAT __imp_??0AFlareLight@@IAE@XZ
_TEXT	SEGMENT PARA USE32 PUBLIC 'CODE'
_TEXT	ENDS
;	COMDAT ??_GAFlareLight@@UAEPAXI@Z
_TEXT	SEGMENT PARA USE32 PUBLIC 'CODE'
_TEXT	ENDS
;	COMDAT __imp_?StaticClass@ATriggerLight@@SAPAVUClass@@XZ
_TEXT	SEGMENT PARA USE32 PUBLIC 'CODE'
_TEXT	ENDS
;	COMDAT __imp_??2ATriggerLight@@SAPAXIPAW4EInternal@@@Z
_TEXT	SEGMENT PARA USE32 PUBLIC 'CODE'
_TEXT	ENDS
;	COMDAT __imp_??1ATriggerLight@@UAE@XZ
_TEXT	SEGMENT PARA USE32 PUBLIC 'CODE'
_TEXT	ENDS
;	COMDAT __imp_??0ATriggerLight@@IAE@XZ
_TEXT	SEGMENT PARA USE32 PUBLIC 'CODE'
_TEXT	ENDS
;	COMDAT ??_GATriggerLight@@UAEPAXI@Z
_TEXT	SEGMENT PARA USE32 PUBLIC 'CODE'
_TEXT	ENDS
;	COMDAT __imp_?StaticClass@ADamageType@@SAPAVUClass@@XZ
_TEXT	SEGMENT PARA USE32 PUBLIC 'CODE'
_TEXT	ENDS
;	COMDAT __imp_??2ADamageType@@SAPAXIPAW4EInternal@@@Z
_TEXT	SEGMENT PARA USE32 PUBLIC 'CODE'
_TEXT	ENDS
;	COMDAT __imp_??1ADamageType@@UAE@XZ
_TEXT	SEGMENT PARA USE32 PUBLIC 'CODE'
_TEXT	ENDS
;	COMDAT __imp_??0ADamageType@@IAE@XZ
_TEXT	SEGMENT PARA USE32 PUBLIC 'CODE'
_TEXT	ENDS
;	COMDAT ??_GADamageType@@UAEPAXI@Z
_TEXT	SEGMENT PARA USE32 PUBLIC 'CODE'
_TEXT	ENDS
;	COMDAT __imp_?StaticClass@AKeypoint@@SAPAVUClass@@XZ
_TEXT	SEGMENT PARA USE32 PUBLIC 'CODE'
_TEXT	ENDS
;	COMDAT __imp_??2AKeypoint@@SAPAXIPAW4EInternal@@@Z
_TEXT	SEGMENT PARA USE32 PUBLIC 'CODE'
_TEXT	ENDS
;	COMDAT __imp_??1AKeypoint@@UAE@XZ
_TEXT	SEGMENT PARA USE32 PUBLIC 'CODE'
_TEXT	ENDS
;	COMDAT __imp_??0AKeypoint@@IAE@XZ
_TEXT	SEGMENT PARA USE32 PUBLIC 'CODE'
_TEXT	ENDS
;	COMDAT ??_GAKeypoint@@UAEPAXI@Z
_TEXT	SEGMENT PARA USE32 PUBLIC 'CODE'
_TEXT	ENDS
;	COMDAT __imp_?StaticClass@AInterpolationStation@@SAPAVUClass@@XZ
_TEXT	SEGMENT PARA USE32 PUBLIC 'CODE'
_TEXT	ENDS
;	COMDAT __imp_??2AInterpolationStation@@SAPAXIPAW4EInternal@@@Z
_TEXT	SEGMENT PARA USE32 PUBLIC 'CODE'
_TEXT	ENDS
;	COMDAT __imp_??1AInterpolationStation@@UAE@XZ
_TEXT	SEGMENT PARA USE32 PUBLIC 'CODE'
_TEXT	ENDS
;	COMDAT __imp_??0AInterpolationStation@@IAE@XZ
_TEXT	SEGMENT PARA USE32 PUBLIC 'CODE'
_TEXT	ENDS
;	COMDAT ??_GAInterpolationStation@@UAEPAXI@Z
_TEXT	SEGMENT PARA USE32 PUBLIC 'CODE'
_TEXT	ENDS
;	COMDAT __imp_?StaticClass@Alocationid@@SAPAVUClass@@XZ
_TEXT	SEGMENT PARA USE32 PUBLIC 'CODE'
_TEXT	ENDS
;	COMDAT __imp_??2Alocationid@@SAPAXIPAW4EInternal@@@Z
_TEXT	SEGMENT PARA USE32 PUBLIC 'CODE'
_TEXT	ENDS
;	COMDAT __imp_??1Alocationid@@UAE@XZ
_TEXT	SEGMENT PARA USE32 PUBLIC 'CODE'
_TEXT	ENDS
;	COMDAT __imp_??0Alocationid@@IAE@XZ
_TEXT	SEGMENT PARA USE32 PUBLIC 'CODE'
_TEXT	ENDS
;	COMDAT ??_GAlocationid@@UAEPAXI@Z
_TEXT	SEGMENT PARA USE32 PUBLIC 'CODE'
_TEXT	ENDS
;	COMDAT __imp_?StaticClass@AInterpolationPoint@@SAPAVUClass@@XZ
_TEXT	SEGMENT PARA USE32 PUBLIC 'CODE'
_TEXT	ENDS
;	COMDAT __imp_??2AInterpolationPoint@@SAPAXIPAW4EInternal@@@Z
_TEXT	SEGMENT PARA USE32 PUBLIC 'CODE'
_TEXT	ENDS
;	COMDAT __imp_??1AInterpolationPoint@@UAE@XZ
_TEXT	SEGMENT PARA USE32 PUBLIC 'CODE'
_TEXT	ENDS
;	COMDAT __imp_??0AInterpolationPoint@@IAE@XZ
_TEXT	SEGMENT PARA USE32 PUBLIC 'CODE'
_TEXT	ENDS
;	COMDAT ??_GAInterpolationPoint@@UAEPAXI@Z
_TEXT	SEGMENT PARA USE32 PUBLIC 'CODE'
_TEXT	ENDS
;	COMDAT __imp_?StaticClass@APolyMarker@@SAPAVUClass@@XZ
_TEXT	SEGMENT PARA USE32 PUBLIC 'CODE'
_TEXT	ENDS
;	COMDAT __imp_??2APolyMarker@@SAPAXIPAW4EInternal@@@Z
_TEXT	SEGMENT PARA USE32 PUBLIC 'CODE'
_TEXT	ENDS
;	COMDAT __imp_??1APolyMarker@@UAE@XZ
_TEXT	SEGMENT PARA USE32 PUBLIC 'CODE'
_TEXT	ENDS
;	COMDAT __imp_??0APolyMarker@@IAE@XZ
_TEXT	SEGMENT PARA USE32 PUBLIC 'CODE'
_TEXT	ENDS
;	COMDAT ??_GAPolyMarker@@UAEPAXI@Z
_TEXT	SEGMENT PARA USE32 PUBLIC 'CODE'
_TEXT	ENDS
;	COMDAT __imp_?StaticClass@AClipMarker@@SAPAVUClass@@XZ
_TEXT	SEGMENT PARA USE32 PUBLIC 'CODE'
_TEXT	ENDS
;	COMDAT __imp_??2AClipMarker@@SAPAXIPAW4EInternal@@@Z
_TEXT	SEGMENT PARA USE32 PUBLIC 'CODE'
_TEXT	ENDS
;	COMDAT __imp_??1AClipMarker@@UAE@XZ
_TEXT	SEGMENT PARA USE32 PUBLIC 'CODE'
_TEXT	ENDS
;	COMDAT __imp_??0AClipMarker@@IAE@XZ
_TEXT	SEGMENT PARA USE32 PUBLIC 'CODE'
_TEXT	ENDS
;	COMDAT ??_GAClipMarker@@UAEPAXI@Z
_TEXT	SEGMENT PARA USE32 PUBLIC 'CODE'
_TEXT	ENDS
;	COMDAT __imp_?StaticClass@AMeshEffect@@SAPAVUClass@@XZ
_TEXT	SEGMENT PARA USE32 PUBLIC 'CODE'
_TEXT	ENDS
;	COMDAT __imp_??2AMeshEffect@@SAPAXIPAW4EInternal@@@Z
_TEXT	SEGMENT PARA USE32 PUBLIC 'CODE'
_TEXT	ENDS
;	COMDAT __imp_??1AMeshEffect@@UAE@XZ
_TEXT	SEGMENT PARA USE32 PUBLIC 'CODE'
_TEXT	ENDS
;	COMDAT __imp_??0AMeshEffect@@IAE@XZ
_TEXT	SEGMENT PARA USE32 PUBLIC 'CODE'
_TEXT	ENDS
;	COMDAT ??0AMeshEffect_eventEvalVert_Parms@@QAE@XZ
_TEXT	SEGMENT PARA USE32 PUBLIC 'CODE'
_TEXT	ENDS
;	COMDAT ??_GAMeshEffect@@UAEPAXI@Z
_TEXT	SEGMENT PARA USE32 PUBLIC 'CODE'
_TEXT	ENDS
;	COMDAT __imp_?StaticClass@ASpawnNotify@@SAPAVUClass@@XZ
_TEXT	SEGMENT PARA USE32 PUBLIC 'CODE'
_TEXT	ENDS
;	COMDAT __imp_??2ASpawnNotify@@SAPAXIPAW4EInternal@@@Z
_TEXT	SEGMENT PARA USE32 PUBLIC 'CODE'
_TEXT	ENDS
;	COMDAT __imp_??1ASpawnNotify@@UAE@XZ
_TEXT	SEGMENT PARA USE32 PUBLIC 'CODE'
_TEXT	ENDS
;	COMDAT __imp_??0ASpawnNotify@@IAE@XZ
_TEXT	SEGMENT PARA USE32 PUBLIC 'CODE'
_TEXT	ENDS
;	COMDAT ??_GASpawnNotify@@UAEPAXI@Z
_TEXT	SEGMENT PARA USE32 PUBLIC 'CODE'
_TEXT	ENDS
;	COMDAT __imp_?StaticClass@ANavigationPoint@@SAPAVUClass@@XZ
_TEXT	SEGMENT PARA USE32 PUBLIC 'CODE'
_TEXT	ENDS
;	COMDAT __imp_??2ANavigationPoint@@SAPAXIPAW4EInternal@@@Z
_TEXT	SEGMENT PARA USE32 PUBLIC 'CODE'
_TEXT	ENDS
;	COMDAT __imp_??1ANavigationPoint@@UAE@XZ
_TEXT	SEGMENT PARA USE32 PUBLIC 'CODE'
_TEXT	ENDS
;	COMDAT __imp_??0ANavigationPoint@@IAE@XZ
_TEXT	SEGMENT PARA USE32 PUBLIC 'CODE'
_TEXT	ENDS
;	COMDAT ??_GANavigationPoint@@UAEPAXI@Z
_TEXT	SEGMENT PARA USE32 PUBLIC 'CODE'
_TEXT	ENDS
;	COMDAT __imp_?StaticClass@ALiftExit@@SAPAVUClass@@XZ
_TEXT	SEGMENT PARA USE32 PUBLIC 'CODE'
_TEXT	ENDS
;	COMDAT __imp_??2ALiftExit@@SAPAXIPAW4EInternal@@@Z
_TEXT	SEGMENT PARA USE32 PUBLIC 'CODE'
_TEXT	ENDS
;	COMDAT __imp_??1ALiftExit@@UAE@XZ
_TEXT	SEGMENT PARA USE32 PUBLIC 'CODE'
_TEXT	ENDS
;	COMDAT __imp_??0ALiftExit@@IAE@XZ
_TEXT	SEGMENT PARA USE32 PUBLIC 'CODE'
_TEXT	ENDS
;	COMDAT ??_GALiftExit@@UAEPAXI@Z
_TEXT	SEGMENT PARA USE32 PUBLIC 'CODE'
_TEXT	ENDS
;	COMDAT __imp_?StaticClass@ALiftCenter@@SAPAVUClass@@XZ
_TEXT	SEGMENT PARA USE32 PUBLIC 'CODE'
_TEXT	ENDS
;	COMDAT __imp_??2ALiftCenter@@SAPAXIPAW4EInternal@@@Z
_TEXT	SEGMENT PARA USE32 PUBLIC 'CODE'
_TEXT	ENDS
;	COMDAT __imp_??1ALiftCenter@@UAE@XZ
_TEXT	SEGMENT PARA USE32 PUBLIC 'CODE'
_TEXT	ENDS
;	COMDAT __imp_??0ALiftCenter@@IAE@XZ
_TEXT	SEGMENT PARA USE32 PUBLIC 'CODE'
_TEXT	ENDS
;	COMDAT ??_GALiftCenter@@UAEPAXI@Z
_TEXT	SEGMENT PARA USE32 PUBLIC 'CODE'
_TEXT	ENDS
;	COMDAT __imp_?StaticClass@AWarpZoneMarker@@SAPAVUClass@@XZ
_TEXT	SEGMENT PARA USE32 PUBLIC 'CODE'
_TEXT	ENDS
;	COMDAT __imp_??2AWarpZoneMarker@@SAPAXIPAW4EInternal@@@Z
_TEXT	SEGMENT PARA USE32 PUBLIC 'CODE'
_TEXT	ENDS
;	COMDAT __imp_??1AWarpZoneMarker@@UAE@XZ
_TEXT	SEGMENT PARA USE32 PUBLIC 'CODE'
_TEXT	ENDS
;	COMDAT __imp_??0AWarpZoneMarker@@IAE@XZ
_TEXT	SEGMENT PARA USE32 PUBLIC 'CODE'
_TEXT	ENDS
;	COMDAT ??_GAWarpZoneMarker@@UAEPAXI@Z
_TEXT	SEGMENT PARA USE32 PUBLIC 'CODE'
_TEXT	ENDS
;	COMDAT __imp_?StaticClass@AButtonMarker@@SAPAVUClass@@XZ
_TEXT	SEGMENT PARA USE32 PUBLIC 'CODE'
_TEXT	ENDS
;	COMDAT __imp_??2AButtonMarker@@SAPAXIPAW4EInternal@@@Z
_TEXT	SEGMENT PARA USE32 PUBLIC 'CODE'
_TEXT	ENDS
;	COMDAT __imp_??1AButtonMarker@@UAE@XZ
_TEXT	SEGMENT PARA USE32 PUBLIC 'CODE'
_TEXT	ENDS
;	COMDAT __imp_??0AButtonMarker@@IAE@XZ
_TEXT	SEGMENT PARA USE32 PUBLIC 'CODE'
_TEXT	ENDS
;	COMDAT ??_GAButtonMarker@@UAEPAXI@Z
_TEXT	SEGMENT PARA USE32 PUBLIC 'CODE'
_TEXT	ENDS
;	COMDAT __imp_?StaticClass@ATriggerMarker@@SAPAVUClass@@XZ
_TEXT	SEGMENT PARA USE32 PUBLIC 'CODE'
_TEXT	ENDS
;	COMDAT __imp_??2ATriggerMarker@@SAPAXIPAW4EInternal@@@Z
_TEXT	SEGMENT PARA USE32 PUBLIC 'CODE'
_TEXT	ENDS
;	COMDAT __imp_??1ATriggerMarker@@UAE@XZ
_TEXT	SEGMENT PARA USE32 PUBLIC 'CODE'
_TEXT	ENDS
;	COMDAT __imp_??0ATriggerMarker@@IAE@XZ
_TEXT	SEGMENT PARA USE32 PUBLIC 'CODE'
_TEXT	ENDS
;	COMDAT ??_GATriggerMarker@@UAEPAXI@Z
_TEXT	SEGMENT PARA USE32 PUBLIC 'CODE'
_TEXT	ENDS
;	COMDAT __imp_?StaticClass@AInventorySpot@@SAPAVUClass@@XZ
_TEXT	SEGMENT PARA USE32 PUBLIC 'CODE'
_TEXT	ENDS
;	COMDAT __imp_??2AInventorySpot@@SAPAXIPAW4EInternal@@@Z
_TEXT	SEGMENT PARA USE32 PUBLIC 'CODE'
_TEXT	ENDS
;	COMDAT __imp_??1AInventorySpot@@UAE@XZ
_TEXT	SEGMENT PARA USE32 PUBLIC 'CODE'
_TEXT	ENDS
;	COMDAT __imp_??0AInventorySpot@@IAE@XZ
_TEXT	SEGMENT PARA USE32 PUBLIC 'CODE'
_TEXT	ENDS
;	COMDAT ??_GAInventorySpot@@UAEPAXI@Z
_TEXT	SEGMENT PARA USE32 PUBLIC 'CODE'
_TEXT	ENDS
;	COMDAT __imp_?StaticClass@APlayerStart@@SAPAVUClass@@XZ
_TEXT	SEGMENT PARA USE32 PUBLIC 'CODE'
_TEXT	ENDS
;	COMDAT __imp_??2APlayerStart@@SAPAXIPAW4EInternal@@@Z
_TEXT	SEGMENT PARA USE32 PUBLIC 'CODE'
_TEXT	ENDS
;	COMDAT __imp_??1APlayerStart@@UAE@XZ
_TEXT	SEGMENT PARA USE32 PUBLIC 'CODE'
_TEXT	ENDS
;	COMDAT __imp_??0APlayerStart@@IAE@XZ
_TEXT	SEGMENT PARA USE32 PUBLIC 'CODE'
_TEXT	ENDS
;	COMDAT ??_GAPlayerStart@@UAEPAXI@Z
_TEXT	SEGMENT PARA USE32 PUBLIC 'CODE'
_TEXT	ENDS
;	COMDAT __imp_?StaticClass@ATeleporter@@SAPAVUClass@@XZ
_TEXT	SEGMENT PARA USE32 PUBLIC 'CODE'
_TEXT	ENDS
;	COMDAT __imp_??2ATeleporter@@SAPAXIPAW4EInternal@@@Z
_TEXT	SEGMENT PARA USE32 PUBLIC 'CODE'
_TEXT	ENDS
;	COMDAT __imp_??1ATeleporter@@UAE@XZ
_TEXT	SEGMENT PARA USE32 PUBLIC 'CODE'
_TEXT	ENDS
;	COMDAT __imp_??0ATeleporter@@IAE@XZ
_TEXT	SEGMENT PARA USE32 PUBLIC 'CODE'
_TEXT	ENDS
;	COMDAT ??_GATeleporter@@UAEPAXI@Z
_TEXT	SEGMENT PARA USE32 PUBLIC 'CODE'
_TEXT	ENDS
;	COMDAT __imp_?StaticClass@APathNode@@SAPAVUClass@@XZ
_TEXT	SEGMENT PARA USE32 PUBLIC 'CODE'
_TEXT	ENDS
;	COMDAT __imp_??2APathNode@@SAPAXIPAW4EInternal@@@Z
_TEXT	SEGMENT PARA USE32 PUBLIC 'CODE'
_TEXT	ENDS
;	COMDAT __imp_??1APathNode@@UAE@XZ
_TEXT	SEGMENT PARA USE32 PUBLIC 'CODE'
_TEXT	ENDS
;	COMDAT __imp_??0APathNode@@IAE@XZ
_TEXT	SEGMENT PARA USE32 PUBLIC 'CODE'
_TEXT	ENDS
;	COMDAT ??_GAPathNode@@UAEPAXI@Z
_TEXT	SEGMENT PARA USE32 PUBLIC 'CODE'
_TEXT	ENDS
;	COMDAT __imp_?StaticClass@AHUD@@SAPAVUClass@@XZ
_TEXT	SEGMENT PARA USE32 PUBLIC 'CODE'
_TEXT	ENDS
;	COMDAT __imp_??2AHUD@@SAPAXIPAW4EInternal@@@Z
_TEXT	SEGMENT PARA USE32 PUBLIC 'CODE'
_TEXT	ENDS
;	COMDAT __imp_??1AHUD@@UAE@XZ
_TEXT	SEGMENT PARA USE32 PUBLIC 'CODE'
_TEXT	ENDS
;	COMDAT __imp_??0AHUD@@IAE@XZ
_TEXT	SEGMENT PARA USE32 PUBLIC 'CODE'
_TEXT	ENDS
;	COMDAT ??_GAHUD@@UAEPAXI@Z
_TEXT	SEGMENT PARA USE32 PUBLIC 'CODE'
_TEXT	ENDS
;	COMDAT __imp_?StaticClass@ATriggers@@SAPAVUClass@@XZ
_TEXT	SEGMENT PARA USE32 PUBLIC 'CODE'
_TEXT	ENDS
;	COMDAT __imp_??2ATriggers@@SAPAXIPAW4EInternal@@@Z
_TEXT	SEGMENT PARA USE32 PUBLIC 'CODE'
_TEXT	ENDS
;	COMDAT __imp_??1ATriggers@@UAE@XZ
_TEXT	SEGMENT PARA USE32 PUBLIC 'CODE'
_TEXT	ENDS
;	COMDAT __imp_??0ATriggers@@IAE@XZ
_TEXT	SEGMENT PARA USE32 PUBLIC 'CODE'
_TEXT	ENDS
;	COMDAT ??_GATriggers@@UAEPAXI@Z
_TEXT	SEGMENT PARA USE32 PUBLIC 'CODE'
_TEXT	ENDS
;	COMDAT __imp_?StaticClass@ATrigger@@SAPAVUClass@@XZ
_TEXT	SEGMENT PARA USE32 PUBLIC 'CODE'
_TEXT	ENDS
;	COMDAT __imp_??2ATrigger@@SAPAXIPAW4EInternal@@@Z
_TEXT	SEGMENT PARA USE32 PUBLIC 'CODE'
_TEXT	ENDS
;	COMDAT __imp_??1ATrigger@@UAE@XZ
_TEXT	SEGMENT PARA USE32 PUBLIC 'CODE'
_TEXT	ENDS
;	COMDAT __imp_??0ATrigger@@IAE@XZ
_TEXT	SEGMENT PARA USE32 PUBLIC 'CODE'
_TEXT	ENDS
;	COMDAT ??_GATrigger@@UAEPAXI@Z
_TEXT	SEGMENT PARA USE32 PUBLIC 'CODE'
_TEXT	ENDS
;	COMDAT __imp_?StaticClass@ADukeNet@@SAPAVUClass@@XZ
_TEXT	SEGMENT PARA USE32 PUBLIC 'CODE'
_TEXT	ENDS
;	COMDAT __imp_??2ADukeNet@@SAPAXIPAW4EInternal@@@Z
_TEXT	SEGMENT PARA USE32 PUBLIC 'CODE'
_TEXT	ENDS
;	COMDAT __imp_??1ADukeNet@@UAE@XZ
_TEXT	SEGMENT PARA USE32 PUBLIC 'CODE'
_TEXT	ENDS
;	COMDAT __imp_??0ADukeNet@@QAE@XZ
_TEXT	SEGMENT PARA USE32 PUBLIC 'CODE'
_TEXT	ENDS
;	COMDAT ??0ADukeNet_eventdncServerCommand_Parms@@QAE@XZ
_TEXT	SEGMENT PARA USE32 PUBLIC 'CODE'
_TEXT	ENDS
;	COMDAT ??1ADukeNet_eventdncServerCommand_Parms@@QAE@XZ
_TEXT	SEGMENT PARA USE32 PUBLIC 'CODE'
_TEXT	ENDS
;	COMDAT ??_GADukeNet@@UAEPAXI@Z
_TEXT	SEGMENT PARA USE32 PUBLIC 'CODE'
_TEXT	ENDS
;	COMDAT __imp_?StaticClass@ARenderActor@@SAPAVUClass@@XZ
_TEXT	SEGMENT PARA USE32 PUBLIC 'CODE'
_TEXT	ENDS
;	COMDAT __imp_??2ARenderActor@@SAPAXIPAW4EInternal@@@Z
_TEXT	SEGMENT PARA USE32 PUBLIC 'CODE'
_TEXT	ENDS
;	COMDAT __imp_??1ARenderActor@@UAE@XZ
_TEXT	SEGMENT PARA USE32 PUBLIC 'CODE'
_TEXT	ENDS
;	COMDAT ??_GARenderActor@@UAEPAXI@Z
_TEXT	SEGMENT PARA USE32 PUBLIC 'CODE'
_TEXT	ENDS
;	COMDAT __imp_??0ARenderActor@@QAE@XZ
_TEXT	SEGMENT PARA USE32 PUBLIC 'CODE'
_TEXT	ENDS
;	COMDAT __imp_?StaticClass@APawn@@SAPAVUClass@@XZ
_TEXT	SEGMENT PARA USE32 PUBLIC 'CODE'
_TEXT	ENDS
;	COMDAT __imp_??2APawn@@SAPAXIPAW4EInternal@@@Z
_TEXT	SEGMENT PARA USE32 PUBLIC 'CODE'
_TEXT	ENDS
;	COMDAT __imp_??1APawn@@UAE@XZ
_TEXT	SEGMENT PARA USE32 PUBLIC 'CODE'
_TEXT	ENDS
;	COMDAT __imp_??0APawn@@QAE@XZ
_TEXT	SEGMENT PARA USE32 PUBLIC 'CODE'
_TEXT	ENDS
;	COMDAT ??0APawn_eventClientHearSound_Parms@@QAE@XZ
_TEXT	SEGMENT PARA USE32 PUBLIC 'CODE'
_TEXT	ENDS
;	COMDAT ??0APawn_eventWalkTexture_Parms@@QAE@XZ
_TEXT	SEGMENT PARA USE32 PUBLIC 'CODE'
_TEXT	ENDS
;	COMDAT ??0APawn_eventTeamMessage_Parms@@QAE@XZ
_TEXT	SEGMENT PARA USE32 PUBLIC 'CODE'
_TEXT	ENDS
;	COMDAT ??1APawn_eventTeamMessage_Parms@@QAE@XZ
_TEXT	SEGMENT PARA USE32 PUBLIC 'CODE'
_TEXT	ENDS
;	COMDAT ??0APawn_eventClientMessage_Parms@@QAE@XZ
_TEXT	SEGMENT PARA USE32 PUBLIC 'CODE'
_TEXT	ENDS
;	COMDAT ??1APawn_eventClientMessage_Parms@@QAE@XZ
_TEXT	SEGMENT PARA USE32 PUBLIC 'CODE'
_TEXT	ENDS
;	COMDAT ??_GAPawn@@UAEPAXI@Z
_TEXT	SEGMENT PARA USE32 PUBLIC 'CODE'
_TEXT	ENDS
;	COMDAT __imp_??0FSFacialExpression@@QAE@XZ
_TEXT	SEGMENT PARA USE32 PUBLIC 'CODE'
_TEXT	ENDS
;	COMDAT __imp_??0FFacialNoiseInfo@@QAE@XZ
_TEXT	SEGMENT PARA USE32 PUBLIC 'CODE'
_TEXT	ENDS
;	COMDAT __imp_??0FSFacialExpressionFrame@@QAE@XZ
_TEXT	SEGMENT PARA USE32 PUBLIC 'CODE'
_TEXT	ENDS
;	COMDAT __imp_?StaticClass@APlayerPawn@@SAPAVUClass@@XZ
_TEXT	SEGMENT PARA USE32 PUBLIC 'CODE'
_TEXT	ENDS
;	COMDAT __imp_??2APlayerPawn@@SAPAXIPAW4EInternal@@@Z
_TEXT	SEGMENT PARA USE32 PUBLIC 'CODE'
_TEXT	ENDS
;	COMDAT __imp_??1APlayerPawn@@UAE@XZ
_TEXT	SEGMENT PARA USE32 PUBLIC 'CODE'
_TEXT	ENDS
;	COMDAT ??0APlayerPawn_eventPlayerCalcView_Parms@@QAE@XZ
_TEXT	SEGMENT PARA USE32 PUBLIC 'CODE'
_TEXT	ENDS
;	COMDAT ??0APlayerPawn_eventClientTravel_Parms@@QAE@XZ
_TEXT	SEGMENT PARA USE32 PUBLIC 'CODE'
_TEXT	ENDS
;	COMDAT ??1APlayerPawn_eventClientTravel_Parms@@QAE@XZ
_TEXT	SEGMENT PARA USE32 PUBLIC 'CODE'
_TEXT	ENDS
;	COMDAT ??_GAPlayerPawn@@UAEPAXI@Z
_TEXT	SEGMENT PARA USE32 PUBLIC 'CODE'
_TEXT	ENDS
;	COMDAT __imp_??0APlayerPawn@@QAE@XZ
_TEXT	SEGMENT PARA USE32 PUBLIC 'CODE'
_TEXT	ENDS
;	COMDAT __imp_?StaticClass@ACamera@@SAPAVUClass@@XZ
_TEXT	SEGMENT PARA USE32 PUBLIC 'CODE'
_TEXT	ENDS
;	COMDAT __imp_??2ACamera@@SAPAXIPAW4EInternal@@@Z
_TEXT	SEGMENT PARA USE32 PUBLIC 'CODE'
_TEXT	ENDS
;	COMDAT __imp_??1ACamera@@UAE@XZ
_TEXT	SEGMENT PARA USE32 PUBLIC 'CODE'
_TEXT	ENDS
;	COMDAT __imp_??0ACamera@@QAE@XZ
_TEXT	SEGMENT PARA USE32 PUBLIC 'CODE'
_TEXT	ENDS
;	COMDAT ??_GACamera@@UAEPAXI@Z
_TEXT	SEGMENT PARA USE32 PUBLIC 'CODE'
_TEXT	ENDS
;	COMDAT __imp_?StaticClass@AScout@@SAPAVUClass@@XZ
_TEXT	SEGMENT PARA USE32 PUBLIC 'CODE'
_TEXT	ENDS
;	COMDAT __imp_??2AScout@@SAPAXIPAW4EInternal@@@Z
_TEXT	SEGMENT PARA USE32 PUBLIC 'CODE'
_TEXT	ENDS
;	COMDAT __imp_??1AScout@@UAE@XZ
_TEXT	SEGMENT PARA USE32 PUBLIC 'CODE'
_TEXT	ENDS
;	COMDAT __imp_??0AScout@@IAE@XZ
_TEXT	SEGMENT PARA USE32 PUBLIC 'CODE'
_TEXT	ENDS
;	COMDAT ??_GAScout@@UAEPAXI@Z
_TEXT	SEGMENT PARA USE32 PUBLIC 'CODE'
_TEXT	ENDS
;	COMDAT __imp_?StaticClass@ABrush@@SAPAVUClass@@XZ
_TEXT	SEGMENT PARA USE32 PUBLIC 'CODE'
_TEXT	ENDS
;	COMDAT __imp_??2ABrush@@SAPAXIPAW4EInternal@@@Z
_TEXT	SEGMENT PARA USE32 PUBLIC 'CODE'
_TEXT	ENDS
;	COMDAT __imp_??1ABrush@@UAE@XZ
_TEXT	SEGMENT PARA USE32 PUBLIC 'CODE'
_TEXT	ENDS
;	COMDAT __imp_??0ABrush@@QAE@XZ
_TEXT	SEGMENT PARA USE32 PUBLIC 'CODE'
_TEXT	ENDS
;	COMDAT __imp_?OldBuildCoords@ABrush@@UAEMPAVFModelCoords@@0@Z
_TEXT	SEGMENT PARA USE32 PUBLIC 'CODE'
_TEXT	ENDS
;	COMDAT __imp_?ToLocal@ABrush@@UBE?AVFCoords@@XZ
_TEXT	SEGMENT PARA USE32 PUBLIC 'CODE'
_TEXT	ENDS
;	COMDAT __imp_?ToWorld@ABrush@@UBE?AVFCoords@@XZ
_TEXT	SEGMENT PARA USE32 PUBLIC 'CODE'
_TEXT	ENDS
;	COMDAT __imp_?BuildCoords@ABrush@@UAEMPAVFModelCoords@@0@Z
_TEXT	SEGMENT PARA USE32 PUBLIC 'CODE'
_TEXT	ENDS
;	COMDAT __imp_?CopyPosRotScaleFrom@ABrush@@UAEXPAV1@@Z
_TEXT	SEGMENT PARA USE32 PUBLIC 'CODE'
_TEXT	ENDS
;	COMDAT ??_GABrush@@UAEPAXI@Z
_TEXT	SEGMENT PARA USE32 PUBLIC 'CODE'
_TEXT	ENDS
;	COMDAT __imp_?StaticClass@AMover@@SAPAVUClass@@XZ
_TEXT	SEGMENT PARA USE32 PUBLIC 'CODE'
_TEXT	ENDS
;	COMDAT __imp_??2AMover@@SAPAXIPAW4EInternal@@@Z
_TEXT	SEGMENT PARA USE32 PUBLIC 'CODE'
_TEXT	ENDS
;	COMDAT __imp_??1AMover@@UAE@XZ
_TEXT	SEGMENT PARA USE32 PUBLIC 'CODE'
_TEXT	ENDS
;	COMDAT __imp_?ToLocal@AMover@@UBE?AVFCoords@@XZ
_TEXT	SEGMENT PARA USE32 PUBLIC 'CODE'
_TEXT	ENDS
;	COMDAT __imp_?ToWorld@AMover@@UBE?AVFCoords@@XZ
_TEXT	SEGMENT PARA USE32 PUBLIC 'CODE'
_TEXT	ENDS
;	COMDAT __imp_?BuildCoords@AMover@@UAEMPAVFModelCoords@@0@Z
_TEXT	SEGMENT PARA USE32 PUBLIC 'CODE'
_TEXT	ENDS
;	COMDAT ??_GAMover@@UAEPAXI@Z
_TEXT	SEGMENT PARA USE32 PUBLIC 'CODE'
_TEXT	ENDS
;	COMDAT __imp_?StaticClass@ADoorMover@@SAPAVUClass@@XZ
_TEXT	SEGMENT PARA USE32 PUBLIC 'CODE'
_TEXT	ENDS
;	COMDAT __imp_??2ADoorMover@@SAPAXIPAW4EInternal@@@Z
_TEXT	SEGMENT PARA USE32 PUBLIC 'CODE'
_TEXT	ENDS
;	COMDAT __imp_??1ADoorMover@@UAE@XZ
_TEXT	SEGMENT PARA USE32 PUBLIC 'CODE'
_TEXT	ENDS
;	COMDAT ??_GADoorMover@@UAEPAXI@Z
_TEXT	SEGMENT PARA USE32 PUBLIC 'CODE'
_TEXT	ENDS
;	COMDAT __imp_??0ADoorMover@@QAE@XZ
_TEXT	SEGMENT PARA USE32 PUBLIC 'CODE'
_TEXT	ENDS
;	COMDAT __imp_?StaticClass@AMeshDecal@@SAPAVUClass@@XZ
_TEXT	SEGMENT PARA USE32 PUBLIC 'CODE'
_TEXT	ENDS
;	COMDAT __imp_??2AMeshDecal@@SAPAXIPAW4EInternal@@@Z
_TEXT	SEGMENT PARA USE32 PUBLIC 'CODE'
_TEXT	ENDS
;	COMDAT __imp_??1AMeshDecal@@UAE@XZ
_TEXT	SEGMENT PARA USE32 PUBLIC 'CODE'
_TEXT	ENDS
;	COMDAT __imp_??0AMeshDecal@@IAE@XZ
_TEXT	SEGMENT PARA USE32 PUBLIC 'CODE'
_TEXT	ENDS
;	COMDAT ??_GAMeshDecal@@UAEPAXI@Z
_TEXT	SEGMENT PARA USE32 PUBLIC 'CODE'
_TEXT	ENDS
;	COMDAT __imp_?StaticClass@AItem@@SAPAVUClass@@XZ
_TEXT	SEGMENT PARA USE32 PUBLIC 'CODE'
_TEXT	ENDS
;	COMDAT __imp_??2AItem@@SAPAXIPAW4EInternal@@@Z
_TEXT	SEGMENT PARA USE32 PUBLIC 'CODE'
_TEXT	ENDS
;	COMDAT __imp_??1AItem@@UAE@XZ
_TEXT	SEGMENT PARA USE32 PUBLIC 'CODE'
_TEXT	ENDS
;	COMDAT __imp_??0AItem@@IAE@XZ
_TEXT	SEGMENT PARA USE32 PUBLIC 'CODE'
_TEXT	ENDS
;	COMDAT ??_GAItem@@UAEPAXI@Z
_TEXT	SEGMENT PARA USE32 PUBLIC 'CODE'
_TEXT	ENDS
;	COMDAT __imp_?StaticClass@ADecoration@@SAPAVUClass@@XZ
_TEXT	SEGMENT PARA USE32 PUBLIC 'CODE'
_TEXT	ENDS
;	COMDAT __imp_??2ADecoration@@SAPAXIPAW4EInternal@@@Z
_TEXT	SEGMENT PARA USE32 PUBLIC 'CODE'
_TEXT	ENDS
;	COMDAT __imp_??1ADecoration@@UAE@XZ
_TEXT	SEGMENT PARA USE32 PUBLIC 'CODE'
_TEXT	ENDS
;	COMDAT __imp_??0ADecoration@@IAE@XZ
_TEXT	SEGMENT PARA USE32 PUBLIC 'CODE'
_TEXT	ENDS
;	COMDAT ??_GADecoration@@UAEPAXI@Z
_TEXT	SEGMENT PARA USE32 PUBLIC 'CODE'
_TEXT	ENDS
;	COMDAT __imp_??0FSThirdPersonInfo@@QAE@XZ
_TEXT	SEGMENT PARA USE32 PUBLIC 'CODE'
_TEXT	ENDS
;	COMDAT __imp_?StaticClass@ACarcass@@SAPAVUClass@@XZ
_TEXT	SEGMENT PARA USE32 PUBLIC 'CODE'
_TEXT	ENDS
;	COMDAT __imp_??2ACarcass@@SAPAXIPAW4EInternal@@@Z
_TEXT	SEGMENT PARA USE32 PUBLIC 'CODE'
_TEXT	ENDS
;	COMDAT __imp_??1ACarcass@@UAE@XZ
_TEXT	SEGMENT PARA USE32 PUBLIC 'CODE'
_TEXT	ENDS
;	COMDAT ??_GACarcass@@UAEPAXI@Z
_TEXT	SEGMENT PARA USE32 PUBLIC 'CODE'
_TEXT	ENDS
;	COMDAT __imp_??0ACarcass@@QAE@XZ
_TEXT	SEGMENT PARA USE32 PUBLIC 'CODE'
_TEXT	ENDS
;	COMDAT __imp_?StaticClass@ABoneRope@@SAPAVUClass@@XZ
_TEXT	SEGMENT PARA USE32 PUBLIC 'CODE'
_TEXT	ENDS
;	COMDAT __imp_??2ABoneRope@@SAPAXIPAW4EInternal@@@Z
_TEXT	SEGMENT PARA USE32 PUBLIC 'CODE'
_TEXT	ENDS
;	COMDAT __imp_??1ABoneRope@@UAE@XZ
_TEXT	SEGMENT PARA USE32 PUBLIC 'CODE'
_TEXT	ENDS
;	COMDAT ??_GABoneRope@@UAEPAXI@Z
_TEXT	SEGMENT PARA USE32 PUBLIC 'CODE'
_TEXT	ENDS
;	COMDAT __imp_?StaticClass@AParticleCollisionActor@@SAPAVUClass@@XZ
_TEXT	SEGMENT PARA USE32 PUBLIC 'CODE'
_TEXT	ENDS
;	COMDAT __imp_??2AParticleCollisionActor@@SAPAXIPAW4EInternal@@@Z
_TEXT	SEGMENT PARA USE32 PUBLIC 'CODE'
_TEXT	ENDS
;	COMDAT __imp_??1AParticleCollisionActor@@UAE@XZ
_TEXT	SEGMENT PARA USE32 PUBLIC 'CODE'
_TEXT	ENDS
;	COMDAT __imp_??0AParticleCollisionActor@@IAE@XZ
_TEXT	SEGMENT PARA USE32 PUBLIC 'CODE'
_TEXT	ENDS
;	COMDAT ??_GAParticleCollisionActor@@UAEPAXI@Z
_TEXT	SEGMENT PARA USE32 PUBLIC 'CODE'
_TEXT	ENDS
;	COMDAT __imp_?StaticClass@ADecal@@SAPAVUClass@@XZ
_TEXT	SEGMENT PARA USE32 PUBLIC 'CODE'
_TEXT	ENDS
;	COMDAT __imp_??2ADecal@@SAPAXIPAW4EInternal@@@Z
_TEXT	SEGMENT PARA USE32 PUBLIC 'CODE'
_TEXT	ENDS
;	COMDAT __imp_??1ADecal@@UAE@XZ
_TEXT	SEGMENT PARA USE32 PUBLIC 'CODE'
_TEXT	ENDS
;	COMDAT __imp_??0ADecal@@IAE@XZ
_TEXT	SEGMENT PARA USE32 PUBLIC 'CODE'
_TEXT	ENDS
;	COMDAT ??_GADecal@@UAEPAXI@Z
_TEXT	SEGMENT PARA USE32 PUBLIC 'CODE'
_TEXT	ENDS
;	COMDAT __imp_?StaticClass@AInventory@@SAPAVUClass@@XZ
_TEXT	SEGMENT PARA USE32 PUBLIC 'CODE'
_TEXT	ENDS
;	COMDAT __imp_??2AInventory@@SAPAXIPAW4EInternal@@@Z
_TEXT	SEGMENT PARA USE32 PUBLIC 'CODE'
_TEXT	ENDS
;	COMDAT __imp_??1AInventory@@UAE@XZ
_TEXT	SEGMENT PARA USE32 PUBLIC 'CODE'
_TEXT	ENDS
;	COMDAT __imp_??0AInventory@@QAE@XZ
_TEXT	SEGMENT PARA USE32 PUBLIC 'CODE'
_TEXT	ENDS
;	COMDAT ??_GAInventory@@UAEPAXI@Z
_TEXT	SEGMENT PARA USE32 PUBLIC 'CODE'
_TEXT	ENDS
;	COMDAT __imp_?StaticClass@AWeapon@@SAPAVUClass@@XZ
_TEXT	SEGMENT PARA USE32 PUBLIC 'CODE'
_TEXT	ENDS
;	COMDAT __imp_??2AWeapon@@SAPAXIPAW4EInternal@@@Z
_TEXT	SEGMENT PARA USE32 PUBLIC 'CODE'
_TEXT	ENDS
;	COMDAT __imp_??1AWeapon@@UAE@XZ
_TEXT	SEGMENT PARA USE32 PUBLIC 'CODE'
_TEXT	ENDS
;	COMDAT __imp_??0AWeapon@@IAE@XZ
_TEXT	SEGMENT PARA USE32 PUBLIC 'CODE'
_TEXT	ENDS
;	COMDAT ??_GAWeapon@@UAEPAXI@Z
_TEXT	SEGMENT PARA USE32 PUBLIC 'CODE'
_TEXT	ENDS
;	COMDAT __imp_??1FWAMEntry@@QAE@XZ
_TEXT	SEGMENT PARA USE32 PUBLIC 'CODE'
_TEXT	ENDS
;	COMDAT __imp_??0FWAMEntry@@QAE@XZ
_TEXT	SEGMENT PARA USE32 PUBLIC 'CODE'
_TEXT	ENDS
;	COMDAT __imp_?StaticClass@AProjectile@@SAPAVUClass@@XZ
_TEXT	SEGMENT PARA USE32 PUBLIC 'CODE'
_TEXT	ENDS
;	COMDAT __imp_??2AProjectile@@SAPAXIPAW4EInternal@@@Z
_TEXT	SEGMENT PARA USE32 PUBLIC 'CODE'
_TEXT	ENDS
;	COMDAT __imp_??1AProjectile@@UAE@XZ
_TEXT	SEGMENT PARA USE32 PUBLIC 'CODE'
_TEXT	ENDS
;	COMDAT __imp_??0AProjectile@@IAE@XZ
_TEXT	SEGMENT PARA USE32 PUBLIC 'CODE'
_TEXT	ENDS
;	COMDAT ??_GAProjectile@@UAEPAXI@Z
_TEXT	SEGMENT PARA USE32 PUBLIC 'CODE'
_TEXT	ENDS
;	COMDAT __imp_?StaticClass@AParticleSystem@@SAPAVUClass@@XZ
_TEXT	SEGMENT PARA USE32 PUBLIC 'CODE'
_TEXT	ENDS
;	COMDAT __imp_??2AParticleSystem@@SAPAXIPAW4EInternal@@@Z
_TEXT	SEGMENT PARA USE32 PUBLIC 'CODE'
_TEXT	ENDS
;	COMDAT __imp_??1AParticleSystem@@UAE@XZ
_TEXT	SEGMENT PARA USE32 PUBLIC 'CODE'
_TEXT	ENDS
;	COMDAT __imp_??0AParticleSystem@@IAE@XZ
_TEXT	SEGMENT PARA USE32 PUBLIC 'CODE'
_TEXT	ENDS
;	COMDAT ??_GAParticleSystem@@UAEPAXI@Z
_TEXT	SEGMENT PARA USE32 PUBLIC 'CODE'
_TEXT	ENDS
;	COMDAT __imp_?StaticClass@ASoftParticleAffector@@SAPAVUClass@@XZ
_TEXT	SEGMENT PARA USE32 PUBLIC 'CODE'
_TEXT	ENDS
;	COMDAT __imp_??2ASoftParticleAffector@@SAPAXIPAW4EInternal@@@Z
_TEXT	SEGMENT PARA USE32 PUBLIC 'CODE'
_TEXT	ENDS
;	COMDAT __imp_??1ASoftParticleAffector@@UAE@XZ
_TEXT	SEGMENT PARA USE32 PUBLIC 'CODE'
_TEXT	ENDS
;	COMDAT __imp_??0ASoftParticleAffector@@IAE@XZ
_TEXT	SEGMENT PARA USE32 PUBLIC 'CODE'
_TEXT	ENDS
;	COMDAT ??_GASoftParticleAffector@@UAEPAXI@Z
_TEXT	SEGMENT PARA USE32 PUBLIC 'CODE'
_TEXT	ENDS
;	COMDAT __imp_?StaticClass@ASoftParticleSystem@@SAPAVUClass@@XZ
_TEXT	SEGMENT PARA USE32 PUBLIC 'CODE'
_TEXT	ENDS
;	COMDAT __imp_??2ASoftParticleSystem@@SAPAXIPAW4EInternal@@@Z
_TEXT	SEGMENT PARA USE32 PUBLIC 'CODE'
_TEXT	ENDS
;	COMDAT __imp_??1ASoftParticleSystem@@UAE@XZ
_TEXT	SEGMENT PARA USE32 PUBLIC 'CODE'
_TEXT	ENDS
;	COMDAT __imp_??0ASoftParticleSystem@@QAE@XZ
_TEXT	SEGMENT PARA USE32 PUBLIC 'CODE'
_TEXT	ENDS
;	COMDAT ??_GASoftParticleSystem@@UAEPAXI@Z
_TEXT	SEGMENT PARA USE32 PUBLIC 'CODE'
_TEXT	ENDS
;	COMDAT __imp_??0FAdditionalSpawnStruct@@QAE@XZ
_TEXT	SEGMENT PARA USE32 PUBLIC 'CODE'
_TEXT	ENDS
;	COMDAT __imp_?StaticClass@ABeamSystem@@SAPAVUClass@@XZ
_TEXT	SEGMENT PARA USE32 PUBLIC 'CODE'
_TEXT	ENDS
;	COMDAT __imp_??2ABeamSystem@@SAPAXIPAW4EInternal@@@Z
_TEXT	SEGMENT PARA USE32 PUBLIC 'CODE'
_TEXT	ENDS
;	COMDAT __imp_??1ABeamSystem@@UAE@XZ
_TEXT	SEGMENT PARA USE32 PUBLIC 'CODE'
_TEXT	ENDS
;	COMDAT __imp_??0ABeamSystem@@QAE@XZ
_TEXT	SEGMENT PARA USE32 PUBLIC 'CODE'
_TEXT	ENDS
;	COMDAT ??_GABeamSystem@@UAEPAXI@Z
_TEXT	SEGMENT PARA USE32 PUBLIC 'CODE'
_TEXT	ENDS
;	COMDAT __imp_??0FSControlPoint@@QAE@XZ
_TEXT	SEGMENT PARA USE32 PUBLIC 'CODE'
_TEXT	ENDS
;	COMDAT __imp_?StaticClass@ABreakableGlass@@SAPAVUClass@@XZ
_TEXT	SEGMENT PARA USE32 PUBLIC 'CODE'
_TEXT	ENDS
;	COMDAT __imp_??2ABreakableGlass@@SAPAXIPAW4EInternal@@@Z
_TEXT	SEGMENT PARA USE32 PUBLIC 'CODE'
_TEXT	ENDS
;	COMDAT __imp_??1ABreakableGlass@@UAE@XZ
_TEXT	SEGMENT PARA USE32 PUBLIC 'CODE'
_TEXT	ENDS
;	COMDAT ??_GABreakableGlass@@UAEPAXI@Z
_TEXT	SEGMENT PARA USE32 PUBLIC 'CODE'
_TEXT	ENDS
;	COMDAT __imp_?StaticClass@ULevelSummary@@SAPAVUClass@@XZ
_TEXT	SEGMENT PARA USE32 PUBLIC 'CODE'
_TEXT	ENDS
;	COMDAT __imp_??2ULevelSummary@@SAPAXIPAW4EInternal@@@Z
_TEXT	SEGMENT PARA USE32 PUBLIC 'CODE'
_TEXT	ENDS
;	COMDAT __imp_??1ULevelSummary@@UAE@XZ
_TEXT	SEGMENT PARA USE32 PUBLIC 'CODE'
_TEXT	ENDS
;	COMDAT __imp_??0ULevelSummary@@QAE@XZ
_TEXT	SEGMENT PARA USE32 PUBLIC 'CODE'
_TEXT	ENDS
;	COMDAT __imp_?PostLoad@ULevelSummary@@UAEXXZ
_TEXT	SEGMENT PARA USE32 PUBLIC 'CODE'
_TEXT	ENDS
;	COMDAT ??_GULevelSummary@@UAEPAXI@Z
_TEXT	SEGMENT PARA USE32 PUBLIC 'CODE'
_TEXT	ENDS
;	COMDAT ??1FCollisionHashBase@@UAE@XZ
_TEXT	SEGMENT PARA USE32 PUBLIC 'CODE'
_TEXT	ENDS
;	COMDAT ??_GFCollisionHashBase@@UAEPAXI@Z
_TEXT	SEGMENT PARA USE32 PUBLIC 'CODE'
_TEXT	ENDS
;	COMDAT __imp_?StaticClass@ULevelBase@@SAPAVUClass@@XZ
_TEXT	SEGMENT PARA USE32 PUBLIC 'CODE'
_TEXT	ENDS
;	COMDAT __imp_??1ULevelBase@@UAE@XZ
_TEXT	SEGMENT PARA USE32 PUBLIC 'CODE'
_TEXT	ENDS
;	COMDAT __imp_??0ULevelBase@@IAE@XZ
_TEXT	SEGMENT PARA USE32 PUBLIC 'CODE'
_TEXT	ENDS
;	COMDAT __imp_??1FURL@@QAE@XZ
_TEXT	SEGMENT PARA USE32 PUBLIC 'CODE'
_TEXT	ENDS
;	COMDAT ??1?$TTransArray@PAVAActor@@@@QAE@XZ
_TEXT	SEGMENT PARA USE32 PUBLIC 'CODE'
_TEXT	ENDS
;	COMDAT __imp_??0FNetworkNotify@@QAE@XZ
_TEXT	SEGMENT PARA USE32 PUBLIC 'CODE'
_TEXT	ENDS
;	COMDAT __imp_?StaticClass@ULevel@@SAPAVUClass@@XZ
_TEXT	SEGMENT PARA USE32 PUBLIC 'CODE'
_TEXT	ENDS
;	COMDAT __imp_??2ULevel@@SAPAXIPAW4EInternal@@@Z
_TEXT	SEGMENT PARA USE32 PUBLIC 'CODE'
_TEXT	ENDS
;	COMDAT __imp_??1ULevel@@UAE@XZ
_TEXT	SEGMENT PARA USE32 PUBLIC 'CODE'
_TEXT	ENDS
;	COMDAT __imp_??0ULevel@@IAE@XZ
_TEXT	SEGMENT PARA USE32 PUBLIC 'CODE'
_TEXT	ENDS
;	COMDAT __imp_?GetLevelInfo@ULevel@@QAEPAVALevelInfo@@XZ
_TEXT	SEGMENT PARA USE32 PUBLIC 'CODE'
_TEXT	ENDS
;	COMDAT ??_GULevel@@UAEPAXI@Z
_TEXT	SEGMENT PARA USE32 PUBLIC 'CODE'
_TEXT	ENDS
;	COMDAT ??1?$TMap@VFString@@V1@@@QAE@XZ
_TEXT	SEGMENT PARA USE32 PUBLIC 'CODE'
_TEXT	ENDS
;	COMDAT ??1?$TMap@VFName@@PAVAActor@@@@QAE@XZ
_TEXT	SEGMENT PARA USE32 PUBLIC 'CODE'
_TEXT	ENDS
;	COMDAT ??0?$TMap@VFString@@V1@@@QAE@XZ
_TEXT	SEGMENT PARA USE32 PUBLIC 'CODE'
_TEXT	ENDS
;	COMDAT ??0?$TMap@VFName@@PAVAActor@@@@QAE@XZ
_TEXT	SEGMENT PARA USE32 PUBLIC 'CODE'
_TEXT	ENDS
;	COMDAT ??EFStaticBrushIterator@@QAEXXZ
_TEXT	SEGMENT PARA USE32 PUBLIC 'CODE'
_TEXT	ENDS
;	COMDAT __imp_?StaticClass@UInput@@SAPAVUClass@@XZ
_TEXT	SEGMENT PARA USE32 PUBLIC 'CODE'
_TEXT	ENDS
;	COMDAT __imp_??2UInput@@SAPAXIPAW4EInternal@@@Z
_TEXT	SEGMENT PARA USE32 PUBLIC 'CODE'
_TEXT	ENDS
;	COMDAT __imp_??1UInput@@UAE@XZ
_TEXT	SEGMENT PARA USE32 PUBLIC 'CODE'
_TEXT	ENDS
;	COMDAT ??_GUInput@@UAEPAXI@Z
_TEXT	SEGMENT PARA USE32 PUBLIC 'CODE'
_TEXT	ENDS
;	COMDAT ??1FAlias@@QAE@XZ
_TEXT	SEGMENT PARA USE32 PUBLIC 'CODE'
_TEXT	ENDS
;	COMDAT __imp_?StaticClass@UPlayer@@SAPAVUClass@@XZ
_TEXT	SEGMENT PARA USE32 PUBLIC 'CODE'
_TEXT	ENDS
;	COMDAT __imp_??1UPlayer@@UAE@XZ
_TEXT	SEGMENT PARA USE32 PUBLIC 'CODE'
_TEXT	ENDS
;	COMDAT __imp_?StaticClass@UEngine@@SAPAVUClass@@XZ
_TEXT	SEGMENT PARA USE32 PUBLIC 'CODE'
_TEXT	ENDS
;	COMDAT __imp_??1UEngine@@UAE@XZ
_TEXT	SEGMENT PARA USE32 PUBLIC 'CODE'
_TEXT	ENDS
;	COMDAT __imp_?vtPad1@UEngine@@UAEXXZ
_TEXT	SEGMENT PARA USE32 PUBLIC 'CODE'
_TEXT	ENDS
;	COMDAT __imp_?vtPad2@UEngine@@UAEXXZ
_TEXT	SEGMENT PARA USE32 PUBLIC 'CODE'
_TEXT	ENDS
;	COMDAT __imp_?vtPad3@UEngine@@UAEXXZ
_TEXT	SEGMENT PARA USE32 PUBLIC 'CODE'
_TEXT	ENDS
;	COMDAT __imp_?edSetClickLocation@UEngine@@UAEXAAVFVector@@@Z
_TEXT	SEGMENT PARA USE32 PUBLIC 'CODE'
_TEXT	ENDS
;	COMDAT __imp_?edcamMode@UEngine@@UAEHPAVUViewport@@@Z
_TEXT	SEGMENT PARA USE32 PUBLIC 'CODE'
_TEXT	ENDS
;	COMDAT __imp_?vtPad4@UEngine@@UAEXXZ
_TEXT	SEGMENT PARA USE32 PUBLIC 'CODE'
_TEXT	ENDS
;	COMDAT __imp_?vtPad5@UEngine@@UAEXXZ
_TEXT	SEGMENT PARA USE32 PUBLIC 'CODE'
_TEXT	ENDS
;	COMDAT __imp_?vtPad6@UEngine@@UAEXXZ
_TEXT	SEGMENT PARA USE32 PUBLIC 'CODE'
_TEXT	ENDS
;	COMDAT __imp_?StaticClass@UGameEngine@@SAPAVUClass@@XZ
_TEXT	SEGMENT PARA USE32 PUBLIC 'CODE'
_TEXT	ENDS
;	COMDAT __imp_??2UGameEngine@@SAPAXIPAW4EInternal@@@Z
_TEXT	SEGMENT PARA USE32 PUBLIC 'CODE'
_TEXT	ENDS
;	COMDAT __imp_??1UGameEngine@@UAE@XZ
_TEXT	SEGMENT PARA USE32 PUBLIC 'CODE'
_TEXT	ENDS
;	COMDAT ??_GUGameEngine@@UAEPAXI@Z
_TEXT	SEGMENT PARA USE32 PUBLIC 'CODE'
_TEXT	ENDS
;	COMDAT __imp_?StaticClass@UCanvas@@SAPAVUClass@@XZ
_TEXT	SEGMENT PARA USE32 PUBLIC 'CODE'
_TEXT	ENDS
;	COMDAT __imp_??2UCanvas@@SAPAXIPAW4EInternal@@@Z
_TEXT	SEGMENT PARA USE32 PUBLIC 'CODE'
_TEXT	ENDS
;	COMDAT __imp_??1UCanvas@@UAE@XZ
_TEXT	SEGMENT PARA USE32 PUBLIC 'CODE'
_TEXT	ENDS
;	COMDAT __imp_??0UCanvas@@IAE@XZ
_TEXT	SEGMENT PARA USE32 PUBLIC 'CODE'
_TEXT	ENDS
;	COMDAT ??_GUCanvas@@UAEPAXI@Z
_TEXT	SEGMENT PARA USE32 PUBLIC 'CODE'
_TEXT	ENDS
;	COMDAT ??1?$TMap@VFString@@PAVUFont@@@@QAE@XZ
_TEXT	SEGMENT PARA USE32 PUBLIC 'CODE'
_TEXT	ENDS
;	COMDAT ??0?$TMap@VFString@@PAVUFont@@@@QAE@XZ
_TEXT	SEGMENT PARA USE32 PUBLIC 'CODE'
_TEXT	ENDS
;	COMDAT __imp_?StaticClass@UViewport@@SAPAVUClass@@XZ
_TEXT	SEGMENT PARA USE32 PUBLIC 'CODE'
_TEXT	ENDS
;	COMDAT __imp_??1UViewport@@UAE@XZ
_TEXT	SEGMENT PARA USE32 PUBLIC 'CODE'
_TEXT	ENDS
;	COMDAT __imp_?IsA@HHitProxy@@UBEHPBG@Z
_TEXT	SEGMENT PARA USE32 PUBLIC 'CODE'
_TEXT	ENDS
;	COMDAT __imp_?Click@HHitProxy@@UAEXABUFHitCause@@@Z
_TEXT	SEGMENT PARA USE32 PUBLIC 'CODE'
_TEXT	ENDS
;	COMDAT __imp_?StaticClass@UClient@@SAPAVUClass@@XZ
_TEXT	SEGMENT PARA USE32 PUBLIC 'CODE'
_TEXT	ENDS
;	COMDAT __imp_??1UClient@@UAE@XZ
_TEXT	SEGMENT PARA USE32 PUBLIC 'CODE'
_TEXT	ENDS
;	COMDAT ??6@YAAAVFArchive@@AAV0@AAVFMeshAnimNotify@@@Z
_TEXT	SEGMENT PARA USE32 PUBLIC 'CODE'
_TEXT	ENDS
;	COMDAT ??0FMeshAnimNotify@@QAE@XZ
_TEXT	SEGMENT PARA USE32 PUBLIC 'CODE'
_TEXT	ENDS
;	COMDAT ??6@YAAAVFArchive@@AAV0@AAUFMeshVertConnect@@@Z
_TEXT	SEGMENT PARA USE32 PUBLIC 'CODE'
_TEXT	ENDS
;	COMDAT ??0FMeshVert@@QAE@XZ
_TEXT	SEGMENT PARA USE32 PUBLIC 'CODE'
_TEXT	ENDS
;	COMDAT ??6@YAAAVFArchive@@AAV0@AAUFMeshVert@@@Z
_TEXT	SEGMENT PARA USE32 PUBLIC 'CODE'
_TEXT	ENDS
;	COMDAT ??6@YAAAVFArchive@@AAV0@AAUFMeshUV@@@Z
_TEXT	SEGMENT PARA USE32 PUBLIC 'CODE'
_TEXT	ENDS
;	COMDAT ??6@YAAAVFArchive@@AAV0@AAUFMeshTri@@@Z
_TEXT	SEGMENT PARA USE32 PUBLIC 'CODE'
_TEXT	ENDS
;	COMDAT __imp_?StaticClass@UUnrealMesh@@SAPAVUClass@@XZ
_TEXT	SEGMENT PARA USE32 PUBLIC 'CODE'
_TEXT	ENDS
;	COMDAT __imp_??2UUnrealMesh@@SAPAXIPAW4EInternal@@@Z
_TEXT	SEGMENT PARA USE32 PUBLIC 'CODE'
_TEXT	ENDS
;	COMDAT __imp_??1UUnrealMesh@@UAE@XZ
_TEXT	SEGMENT PARA USE32 PUBLIC 'CODE'
_TEXT	ENDS
;	COMDAT ??_GUUnrealMesh@@UAEPAXI@Z
_TEXT	SEGMENT PARA USE32 PUBLIC 'CODE'
_TEXT	ENDS
;	COMDAT __imp_?StaticClass@UUnrealLodMesh@@SAPAVUClass@@XZ
_TEXT	SEGMENT PARA USE32 PUBLIC 'CODE'
_TEXT	ENDS
;	COMDAT __imp_??2UUnrealLodMesh@@SAPAXIPAW4EInternal@@@Z
_TEXT	SEGMENT PARA USE32 PUBLIC 'CODE'
_TEXT	ENDS
;	COMDAT __imp_??1UUnrealLodMesh@@UAE@XZ
_TEXT	SEGMENT PARA USE32 PUBLIC 'CODE'
_TEXT	ENDS
;	COMDAT __imp_??0UUnrealLodMesh@@QAE@XZ
_TEXT	SEGMENT PARA USE32 PUBLIC 'CODE'
_TEXT	ENDS
;	COMDAT ??_GUUnrealLodMesh@@UAEPAXI@Z
_TEXT	SEGMENT PARA USE32 PUBLIC 'CODE'
_TEXT	ENDS
;	COMDAT __imp_?StaticClass@UDukeMesh@@SAPAVUClass@@XZ
_TEXT	SEGMENT PARA USE32 PUBLIC 'CODE'
_TEXT	ENDS
;	COMDAT __imp_??2UDukeMesh@@SAPAXIPAW4EInternal@@@Z
_TEXT	SEGMENT PARA USE32 PUBLIC 'CODE'
_TEXT	ENDS
;	COMDAT __imp_??1UDukeMesh@@UAE@XZ
_TEXT	SEGMENT PARA USE32 PUBLIC 'CODE'
_TEXT	ENDS
;	COMDAT ??_GUDukeMesh@@UAEPAXI@Z
_TEXT	SEGMENT PARA USE32 PUBLIC 'CODE'
_TEXT	ENDS
;	COMDAT ??1?$TMap@VFName@@V1@@@QAE@XZ
_TEXT	SEGMENT PARA USE32 PUBLIC 'CODE'
_TEXT	ENDS
;	COMDAT __imp_?IsBrush@AActor@@QBEHXZ
_TEXT	SEGMENT PARA USE32 PUBLIC 'CODE'
_TEXT	ENDS
;	COMDAT __imp_?IsStaticBrush@AActor@@QBEHXZ
_TEXT	SEGMENT PARA USE32 PUBLIC 'CODE'
_TEXT	ENDS
;	COMDAT __imp_?GetPlayerPawn@AActor@@QBEPAVAPlayerPawn@@XZ
_TEXT	SEGMENT PARA USE32 PUBLIC 'CODE'
_TEXT	ENDS
;	COMDAT __imp_?GetPrimitive@AActor@@UBEPAVUPrimitive@@XZ
_TEXT	SEGMENT PARA USE32 PUBLIC 'CODE'
_TEXT	ENDS
;	COMDAT __imp_?StaticClass@UAudioSubsystem@@SAPAVUClass@@XZ
_TEXT	SEGMENT PARA USE32 PUBLIC 'CODE'
_TEXT	ENDS
;	COMDAT __imp_??1UAudioSubsystem@@UAE@XZ
_TEXT	SEGMENT PARA USE32 PUBLIC 'CODE'
_TEXT	ENDS
;	COMDAT __imp_??0FSoundData@@QAE@PAVUSound@@@Z
_TEXT	SEGMENT PARA USE32 PUBLIC 'CODE'
_TEXT	ENDS
;	COMDAT __imp_?StaticClass@USound@@SAPAVUClass@@XZ
_TEXT	SEGMENT PARA USE32 PUBLIC 'CODE'
_TEXT	ENDS
;	COMDAT __imp_??2USound@@SAPAXIPAW4EInternal@@@Z
_TEXT	SEGMENT PARA USE32 PUBLIC 'CODE'
_TEXT	ENDS
;	COMDAT __imp_??1USound@@UAE@XZ
_TEXT	SEGMENT PARA USE32 PUBLIC 'CODE'
_TEXT	ENDS
;	COMDAT __imp_??0USound@@QAE@XZ
_TEXT	SEGMENT PARA USE32 PUBLIC 'CODE'
_TEXT	ENDS
;	COMDAT ??_GUSound@@UAEPAXI@Z
_TEXT	SEGMENT PARA USE32 PUBLIC 'CODE'
_TEXT	ENDS
;	COMDAT __imp_??1FSoundData@@QAE@XZ
_TEXT	SEGMENT PARA USE32 PUBLIC 'CODE'
_TEXT	ENDS
;	COMDAT __imp_?StaticClass@UVoiceSound@@SAPAVUClass@@XZ
_TEXT	SEGMENT PARA USE32 PUBLIC 'CODE'
_TEXT	ENDS
;	COMDAT __imp_??2UVoiceSound@@SAPAXIPAW4EInternal@@@Z
_TEXT	SEGMENT PARA USE32 PUBLIC 'CODE'
_TEXT	ENDS
;	COMDAT __imp_??1UVoiceSound@@UAE@XZ
_TEXT	SEGMENT PARA USE32 PUBLIC 'CODE'
_TEXT	ENDS
;	COMDAT ??_GUVoiceSound@@UAEPAXI@Z
_TEXT	SEGMENT PARA USE32 PUBLIC 'CODE'
_TEXT	ENDS
;	COMDAT __imp_??0UVoiceSound@@QAE@XZ
_TEXT	SEGMENT PARA USE32 PUBLIC 'CODE'
_TEXT	ENDS
;	COMDAT __imp_?StaticClass@UMusic@@SAPAVUClass@@XZ
_TEXT	SEGMENT PARA USE32 PUBLIC 'CODE'
_TEXT	ENDS
;	COMDAT __imp_??2UMusic@@SAPAXIPAW4EInternal@@@Z
_TEXT	SEGMENT PARA USE32 PUBLIC 'CODE'
_TEXT	ENDS
;	COMDAT __imp_??1UMusic@@UAE@XZ
_TEXT	SEGMENT PARA USE32 PUBLIC 'CODE'
_TEXT	ENDS
;	COMDAT __imp_??0UMusic@@QAE@XZ
_TEXT	SEGMENT PARA USE32 PUBLIC 'CODE'
_TEXT	ENDS
;	COMDAT ??_GUMusic@@UAEPAXI@Z
_TEXT	SEGMENT PARA USE32 PUBLIC 'CODE'
_TEXT	ENDS
;	COMDAT ??1FMovingBrushTrackerBase@@UAE@XZ
_TEXT	SEGMENT PARA USE32 PUBLIC 'CODE'
_TEXT	ENDS
;	COMDAT ??_GFMovingBrushTrackerBase@@UAEPAXI@Z
_TEXT	SEGMENT PARA USE32 PUBLIC 'CODE'
_TEXT	ENDS
;	COMDAT __imp_?StaticClass@UScriptedTexture@@SAPAVUClass@@XZ
_TEXT	SEGMENT PARA USE32 PUBLIC 'CODE'
_TEXT	ENDS
;	COMDAT __imp_??2UScriptedTexture@@SAPAXIPAW4EInternal@@@Z
_TEXT	SEGMENT PARA USE32 PUBLIC 'CODE'
_TEXT	ENDS
;	COMDAT __imp_??1UScriptedTexture@@UAE@XZ
_TEXT	SEGMENT PARA USE32 PUBLIC 'CODE'
_TEXT	ENDS
;	COMDAT __imp_?PostEditChange@UScriptedTexture@@UAEXXZ
_TEXT	SEGMENT PARA USE32 PUBLIC 'CODE'
_TEXT	ENDS
;	COMDAT ??_GUScriptedTexture@@UAEPAXI@Z
_TEXT	SEGMENT PARA USE32 PUBLIC 'CODE'
_TEXT	ENDS
;	COMDAT __imp_?StaticClass@URenderIterator@@SAPAVUClass@@XZ
_TEXT	SEGMENT PARA USE32 PUBLIC 'CODE'
_TEXT	ENDS
;	COMDAT __imp_??2URenderIterator@@SAPAXIPAW4EInternal@@@Z
_TEXT	SEGMENT PARA USE32 PUBLIC 'CODE'
_TEXT	ENDS
;	COMDAT __imp_??1URenderIterator@@UAE@XZ
_TEXT	SEGMENT PARA USE32 PUBLIC 'CODE'
_TEXT	ENDS
;	COMDAT ??_GURenderIterator@@UAEPAXI@Z
_TEXT	SEGMENT PARA USE32 PUBLIC 'CODE'
_TEXT	ENDS
;	COMDAT __imp_??1FActorNode@@QAE@XZ
_TEXT	SEGMENT PARA USE32 PUBLIC 'CODE'
_TEXT	ENDS
;	COMDAT ??_GFActorNode@@QAEPAXI@Z
_TEXT	SEGMENT PARA USE32 PUBLIC 'CODE'
_TEXT	ENDS
;	COMDAT ?IsA@HActorVertex@@UBEHPBG@Z
_TEXT	SEGMENT PARA USE32 PUBLIC 'CODE'
_TEXT	ENDS
;	COMDAT __imp_??0HHitProxy@@QAE@XZ
_TEXT	SEGMENT PARA USE32 PUBLIC 'CODE'
_TEXT	ENDS
;	COMDAT ?CycleCount@@YAHXZ
_TEXT	SEGMENT PARA USE32 PUBLIC 'CODE'
_TEXT	ENDS
;	COMDAT ?StaticClass@UFractalTexture@@SAPAVUClass@@XZ
_TEXT	SEGMENT PARA USE32 PUBLIC 'CODE'
_TEXT	ENDS
;	COMDAT ??2UFractalTexture@@SAPAXIPAVUObject@@VFName@@K@Z
_TEXT	SEGMENT PARA USE32 PUBLIC 'CODE'
_TEXT	ENDS
;	COMDAT ??2UFractalTexture@@SAPAXIPAW4EInternal@@@Z
_TEXT	SEGMENT PARA USE32 PUBLIC 'CODE'
_TEXT	ENDS
;	COMDAT ??1UFractalTexture@@UAE@XZ
_TEXT	SEGMENT PARA USE32 PUBLIC 'CODE'
_TEXT	ENDS
;	COMDAT ?PostEditChange@UFractalTexture@@UAEXXZ
_TEXT	SEGMENT PARA USE32 PUBLIC 'CODE'
_TEXT	ENDS
;	COMDAT ?TouchTexture@UFractalTexture@@UAEXHHM@Z
_TEXT	SEGMENT PARA USE32 PUBLIC 'CODE'
_TEXT	ENDS
;	COMDAT ??0UFractalTexture@@QAE@ABV0@@Z
_TEXT	SEGMENT PARA USE32 PUBLIC 'CODE'
_TEXT	ENDS
;	COMDAT ??4UFractalTexture@@QAEAAV0@ABV0@@Z
_TEXT	SEGMENT PARA USE32 PUBLIC 'CODE'
_TEXT	ENDS
;	COMDAT ??_GUFractalTexture@@UAEPAXI@Z
_TEXT	SEGMENT PARA USE32 PUBLIC 'CODE'
_TEXT	ENDS
;	COMDAT ??_EUFractalTexture@@UAEPAXI@Z
_TEXT	SEGMENT PARA USE32 PUBLIC 'CODE'
_TEXT	ENDS
;	COMDAT __imp_??0UProceduralTexture@@QAE@ABV0@@Z
_TEXT	SEGMENT PARA USE32 PUBLIC 'CODE'
_TEXT	ENDS
;	COMDAT __imp_??4UProceduralTexture@@QAEAAV0@ABV0@@Z
_TEXT	SEGMENT PARA USE32 PUBLIC 'CODE'
_TEXT	ENDS
;	COMDAT __imp_??0UTexture@@QAE@ABV0@@Z
_TEXT	SEGMENT PARA USE32 PUBLIC 'CODE'
_TEXT	ENDS
;	COMDAT __imp_??4UTexture@@QAEAAV0@ABV0@@Z
_TEXT	SEGMENT PARA USE32 PUBLIC 'CODE'
_TEXT	ENDS
;	COMDAT __imp_??0UBitmap@@QAE@ABV0@@Z
_TEXT	SEGMENT PARA USE32 PUBLIC 'CODE'
_TEXT	ENDS
;	COMDAT __imp_??4UBitmap@@QAEAAV0@ABV0@@Z
_TEXT	SEGMENT PARA USE32 PUBLIC 'CODE'
_TEXT	ENDS
;	COMDAT ??6@YAAAVFArchive@@AAV0@AAVFSpark@@@Z
_TEXT	SEGMENT PARA USE32 PUBLIC 'CODE'
_TEXT	ENDS
;	COMDAT ??4FSpark@@QAEAAV0@ABV0@@Z
_TEXT	SEGMENT PARA USE32 PUBLIC 'CODE'
_TEXT	ENDS
;	COMDAT ?StaticClass@UFireTexture@@SAPAVUClass@@XZ
_TEXT	SEGMENT PARA USE32 PUBLIC 'CODE'
_TEXT	ENDS
;	COMDAT ??2UFireTexture@@SAPAXIPAVUObject@@VFName@@K@Z
_TEXT	SEGMENT PARA USE32 PUBLIC 'CODE'
_TEXT	ENDS
;	COMDAT ??2UFireTexture@@SAPAXIPAW4EInternal@@@Z
_TEXT	SEGMENT PARA USE32 PUBLIC 'CODE'
_TEXT	ENDS
;	COMDAT ??1UFireTexture@@UAE@XZ
_TEXT	SEGMENT PARA USE32 PUBLIC 'CODE'
_TEXT	ENDS
;	COMDAT ?InternalConstructor@UFireTexture@@SAXPAX@Z
_TEXT	SEGMENT PARA USE32 PUBLIC 'CODE'
_TEXT	ENDS
;	COMDAT ??0UFireTexture@@QAE@ABV0@@Z
_TEXT	SEGMENT PARA USE32 PUBLIC 'CODE'
_TEXT	ENDS
;	COMDAT ??4UFireTexture@@QAEAAV0@ABV0@@Z
_TEXT	SEGMENT PARA USE32 PUBLIC 'CODE'
_TEXT	ENDS
;	COMDAT ??_GUFireTexture@@UAEPAXI@Z
_TEXT	SEGMENT PARA USE32 PUBLIC 'CODE'
_TEXT	ENDS
;	COMDAT ??_EUFireTexture@@UAEPAXI@Z
_TEXT	SEGMENT PARA USE32 PUBLIC 'CODE'
_TEXT	ENDS
;	COMDAT ??4FDrop@@QAEAAU0@ABU0@@Z
_TEXT	SEGMENT PARA USE32 PUBLIC 'CODE'
_TEXT	ENDS
;	COMDAT ?StaticClass@UWaterTexture@@SAPAVUClass@@XZ
_TEXT	SEGMENT PARA USE32 PUBLIC 'CODE'
_TEXT	ENDS
;	COMDAT ??2UWaterTexture@@SAPAXIPAVUObject@@VFName@@K@Z
_TEXT	SEGMENT PARA USE32 PUBLIC 'CODE'
_TEXT	ENDS
;	COMDAT ??2UWaterTexture@@SAPAXIPAW4EInternal@@@Z
_TEXT	SEGMENT PARA USE32 PUBLIC 'CODE'
_TEXT	ENDS
;	COMDAT ??1UWaterTexture@@UAE@XZ
_TEXT	SEGMENT PARA USE32 PUBLIC 'CODE'
_TEXT	ENDS
;	COMDAT ??0UWaterTexture@@QAE@ABV0@@Z
_TEXT	SEGMENT PARA USE32 PUBLIC 'CODE'
_TEXT	ENDS
;	COMDAT ??4UWaterTexture@@QAEAAV0@ABV0@@Z
_TEXT	SEGMENT PARA USE32 PUBLIC 'CODE'
_TEXT	ENDS
;	COMDAT ??_GUWaterTexture@@UAEPAXI@Z
_TEXT	SEGMENT PARA USE32 PUBLIC 'CODE'
_TEXT	ENDS
;	COMDAT ??_EUWaterTexture@@UAEPAXI@Z
_TEXT	SEGMENT PARA USE32 PUBLIC 'CODE'
_TEXT	ENDS
;	COMDAT ?StaticClass@UWaveTexture@@SAPAVUClass@@XZ
_TEXT	SEGMENT PARA USE32 PUBLIC 'CODE'
_TEXT	ENDS
;	COMDAT ??2UWaveTexture@@SAPAXIPAVUObject@@VFName@@K@Z
_TEXT	SEGMENT PARA USE32 PUBLIC 'CODE'
_TEXT	ENDS
;	COMDAT ??2UWaveTexture@@SAPAXIPAW4EInternal@@@Z
_TEXT	SEGMENT PARA USE32 PUBLIC 'CODE'
_TEXT	ENDS
;	COMDAT ??1UWaveTexture@@UAE@XZ
_TEXT	SEGMENT PARA USE32 PUBLIC 'CODE'
_TEXT	ENDS
;	COMDAT ?InternalConstructor@UWaveTexture@@SAXPAX@Z
_TEXT	SEGMENT PARA USE32 PUBLIC 'CODE'
_TEXT	ENDS
;	COMDAT ??0UWaveTexture@@QAE@ABV0@@Z
_TEXT	SEGMENT PARA USE32 PUBLIC 'CODE'
_TEXT	ENDS
;	COMDAT ??4UWaveTexture@@QAEAAV0@ABV0@@Z
_TEXT	SEGMENT PARA USE32 PUBLIC 'CODE'
_TEXT	ENDS
;	COMDAT ??_GUWaveTexture@@UAEPAXI@Z
_TEXT	SEGMENT PARA USE32 PUBLIC 'CODE'
_TEXT	ENDS
;	COMDAT ??_EUWaveTexture@@UAEPAXI@Z
_TEXT	SEGMENT PARA USE32 PUBLIC 'CODE'
_TEXT	ENDS
;	COMDAT ?StaticClass@UWetTexture@@SAPAVUClass@@XZ
_TEXT	SEGMENT PARA USE32 PUBLIC 'CODE'
_TEXT	ENDS
;	COMDAT ??2UWetTexture@@SAPAXIPAVUObject@@VFName@@K@Z
_TEXT	SEGMENT PARA USE32 PUBLIC 'CODE'
_TEXT	ENDS
;	COMDAT ??2UWetTexture@@SAPAXIPAW4EInternal@@@Z
_TEXT	SEGMENT PARA USE32 PUBLIC 'CODE'
_TEXT	ENDS
;	COMDAT ??1UWetTexture@@UAE@XZ
_TEXT	SEGMENT PARA USE32 PUBLIC 'CODE'
_TEXT	ENDS
;	COMDAT ?InternalConstructor@UWetTexture@@SAXPAX@Z
_TEXT	SEGMENT PARA USE32 PUBLIC 'CODE'
_TEXT	ENDS
;	COMDAT ?Lock@UWetTexture@@UAIXAAUFTextureInfo@@NHPAVURenderDevice@@@Z
_TEXT	SEGMENT PARA USE32 PUBLIC 'CODE'
_TEXT	ENDS
;	COMDAT ??0UWetTexture@@QAE@ABV0@@Z
_TEXT	SEGMENT PARA USE32 PUBLIC 'CODE'
_TEXT	ENDS
;	COMDAT ??4UWetTexture@@QAEAAV0@ABV0@@Z
_TEXT	SEGMENT PARA USE32 PUBLIC 'CODE'
_TEXT	ENDS
;	COMDAT ??_GUWetTexture@@UAEPAXI@Z
_TEXT	SEGMENT PARA USE32 PUBLIC 'CODE'
_TEXT	ENDS
;	COMDAT ??_EUWetTexture@@UAEPAXI@Z
_TEXT	SEGMENT PARA USE32 PUBLIC 'CODE'
_TEXT	ENDS
;	COMDAT __imp_??0FTextureInfo@@QAE@XZ
_TEXT	SEGMENT PARA USE32 PUBLIC 'CODE'
_TEXT	ENDS
;	COMDAT ??4KeyPoint@@QAEAAU0@ABU0@@Z
_TEXT	SEGMENT PARA USE32 PUBLIC 'CODE'
_TEXT	ENDS
;	COMDAT ?StaticClass@UIceTexture@@SAPAVUClass@@XZ
_TEXT	SEGMENT PARA USE32 PUBLIC 'CODE'
_TEXT	ENDS
;	COMDAT ??2UIceTexture@@SAPAXIPAVUObject@@VFName@@K@Z
_TEXT	SEGMENT PARA USE32 PUBLIC 'CODE'
_TEXT	ENDS
;	COMDAT ??2UIceTexture@@SAPAXIPAW4EInternal@@@Z
_TEXT	SEGMENT PARA USE32 PUBLIC 'CODE'
_TEXT	ENDS
;	COMDAT ??1UIceTexture@@UAE@XZ
_TEXT	SEGMENT PARA USE32 PUBLIC 'CODE'
_TEXT	ENDS
;	COMDAT ?InternalConstructor@UIceTexture@@SAXPAX@Z
_TEXT	SEGMENT PARA USE32 PUBLIC 'CODE'
_TEXT	ENDS
;	COMDAT ?Lock@UIceTexture@@UAIXAAUFTextureInfo@@NHPAVURenderDevice@@@Z
_TEXT	SEGMENT PARA USE32 PUBLIC 'CODE'
_TEXT	ENDS
;	COMDAT ??0UIceTexture@@QAE@ABV0@@Z
_TEXT	SEGMENT PARA USE32 PUBLIC 'CODE'
_TEXT	ENDS
;	COMDAT ??4UIceTexture@@QAEAAV0@ABV0@@Z
_TEXT	SEGMENT PARA USE32 PUBLIC 'CODE'
_TEXT	ENDS
;	COMDAT ??_GUIceTexture@@UAEPAXI@Z
_TEXT	SEGMENT PARA USE32 PUBLIC 'CODE'
_TEXT	ENDS
;	COMDAT ??_EUIceTexture@@UAEPAXI@Z
_TEXT	SEGMENT PARA USE32 PUBLIC 'CODE'
_TEXT	ENDS
;	COMDAT ??_EULinkerLoad@@WKE@AEPAXI@Z
_TEXT	SEGMENT PARA USE32 PUBLIC 'CODE'
_TEXT	ENDS
;	COMDAT ??_EULinkerSave@@WKE@AEPAXI@Z
_TEXT	SEGMENT PARA USE32 PUBLIC 'CODE'
_TEXT	ENDS
;	COMDAT _DllMain@12
_TEXT	SEGMENT PARA USE32 PUBLIC 'CODE'
_TEXT	ENDS
;	COMDAT ?SpeedRand@@YAEXZ
_TEXT	SEGMENT PARA USE32 PUBLIC 'CODE'
_TEXT	ENDS
;	COMDAT ?FakeAtan@@YANN@Z
_TEXT	SEGMENT PARA USE32 PUBLIC 'CODE'
_TEXT	ENDS
;	COMDAT ?InitTables@@YAXXZ
_TEXT	SEGMENT PARA USE32 PUBLIC 'CODE'
_TEXT	ENDS
;	COMDAT ?AddSpark@UFireTexture@@AAEXHH@Z
_TEXT	SEGMENT PARA USE32 PUBLIC 'CODE'
_TEXT	ENDS
;	COMDAT ?CloseSpark@UFireTexture@@AAEXHH@Z
_TEXT	SEGMENT PARA USE32 PUBLIC 'CODE'
_TEXT	ENDS
;	COMDAT ?DeleteSparks@UFireTexture@@AAEXHHH@Z
_TEXT	SEGMENT PARA USE32 PUBLIC 'CODE'
_TEXT	ENDS
;	COMDAT ?DrawSparkLine@UFireTexture@@AAEXHHHHH@Z
_TEXT	SEGMENT PARA USE32 PUBLIC 'CODE'
_TEXT	ENDS
;	COMDAT ?FirePaint@UFireTexture@@AAEXHHK@Z
_TEXT	SEGMENT PARA USE32 PUBLIC 'CODE'
_TEXT	ENDS
;	COMDAT ?MoveSparkXY@UFireTexture@@AAEXPAVFSpark@@CC@Z
_TEXT	SEGMENT PARA USE32 PUBLIC 'CODE'
_TEXT	ENDS
;	COMDAT ?MoveSpark@UFireTexture@@AAEXPAVFSpark@@@Z
_TEXT	SEGMENT PARA USE32 PUBLIC 'CODE'
_TEXT	ENDS
;	COMDAT ?MoveSparkAngle@UFireTexture@@AAEXPAVFSpark@@E@Z
_TEXT	SEGMENT PARA USE32 PUBLIC 'CODE'
_TEXT	ENDS
;	COMDAT ?MoveSparkTwo@UFireTexture@@AAEXPAVFSpark@@@Z
_TEXT	SEGMENT PARA USE32 PUBLIC 'CODE'
_TEXT	ENDS
;	COMDAT ?DrawFlashRamp@UFireTexture@@AAEXULineSeg@@EE@Z
_TEXT	SEGMENT PARA USE32 PUBLIC 'CODE'
_TEXT	ENDS
;	COMDAT ?RedrawSparks@UFireTexture@@AAEXXZ
_TEXT	SEGMENT PARA USE32 PUBLIC 'CODE'
_TEXT	ENDS
;	COMDAT ?PostDrawSparks@UFireTexture@@AAEXXZ
_TEXT	SEGMENT PARA USE32 PUBLIC 'CODE'
_TEXT	ENDS
;	COMDAT ?CalculateWater@UWaterTexture@@QAEXXZ
_TEXT	SEGMENT PARA USE32 PUBLIC 'CODE'
_TEXT	ENDS
;	COMDAT ?ApplyWetTexture@UWetTexture@@AAEXXZ
_TEXT	SEGMENT PARA USE32 PUBLIC 'CODE'
_TEXT	ENDS
;	COMDAT ?MoveIcePosition@UIceTexture@@AAEXM@Z
_TEXT	SEGMENT PARA USE32 PUBLIC 'CODE'
_TEXT	ENDS
;	COMDAT ?BlitTexIce@UIceTexture@@AAEXXZ
_TEXT	SEGMENT PARA USE32 PUBLIC 'CODE'
_TEXT	ENDS
;	COMDAT ?BlitIceTex@UIceTexture@@AAEXXZ
_TEXT	SEGMENT PARA USE32 PUBLIC 'CODE'
_TEXT	ENDS
;	COMDAT ?WaterRedrawDrops@UWaterTexture@@QAEXXZ
_TEXT	SEGMENT PARA USE32 PUBLIC 'CODE'
_TEXT	ENDS
;	COMDAT ?AddDrop@UWaterTexture@@AAEXHH@Z
_TEXT	SEGMENT PARA USE32 PUBLIC 'CODE'
_TEXT	ENDS
;	COMDAT ?DeleteDrops@UWaterTexture@@AAEXHHH@Z
_TEXT	SEGMENT PARA USE32 PUBLIC 'CODE'
_TEXT	ENDS
;	COMDAT ?TempDrawSpark@UFireTexture@@AAEXHHH@Z
_TEXT	SEGMENT PARA USE32 PUBLIC 'CODE'
_TEXT	ENDS
;	COMDAT ?BlueLagunaPalette@@YAXPAVUPalette@@@Z
_TEXT	SEGMENT PARA USE32 PUBLIC 'CODE'
_TEXT	ENDS
;	COMDAT ??0UFractalTexture@@QAE@XZ
_TEXT	SEGMENT PARA USE32 PUBLIC 'CODE'
_TEXT	ENDS
;	COMDAT __imp_??0UProceduralTexture@@QAE@XZ
_TEXT	SEGMENT PARA USE32 PUBLIC 'CODE'
_TEXT	ENDS
;	COMDAT ?Init@UFractalTexture@@UAEXHH@Z
_TEXT	SEGMENT PARA USE32 PUBLIC 'CODE'
_TEXT	ENDS
;	COMDAT ?PostLoad@UFractalTexture@@UAEXXZ
_TEXT	SEGMENT PARA USE32 PUBLIC 'CODE'
_TEXT	ENDS
;	COMDAT _$E184
_TEXT	SEGMENT PARA USE32 PUBLIC 'CODE'
_TEXT	ENDS
;	COMDAT _$E185
_TEXT	SEGMENT PARA USE32 PUBLIC 'CODE'
_TEXT	ENDS
;	COMDAT _$E187
_TEXT	SEGMENT PARA USE32 PUBLIC 'CODE'
_TEXT	ENDS
;	COMDAT _$E188
_TEXT	SEGMENT PARA USE32 PUBLIC 'CODE'
_TEXT	ENDS
;	COMDAT _$E190
_TEXT	SEGMENT PARA USE32 PUBLIC 'CODE'
_TEXT	ENDS
;	COMDAT _$E191
_TEXT	SEGMENT PARA USE32 PUBLIC 'CODE'
_TEXT	ENDS
;	COMDAT ??0UFireTexture@@QAE@XZ
_TEXT	SEGMENT PARA USE32 PUBLIC 'CODE'
_TEXT	ENDS
;	COMDAT ?Init@UFireTexture@@UAEXHH@Z
_TEXT	SEGMENT PARA USE32 PUBLIC 'CODE'
_TEXT	ENDS
;	COMDAT ?Clear@UFireTexture@@UAEXK@Z
_TEXT	SEGMENT PARA USE32 PUBLIC 'CODE'
_TEXT	ENDS
;	COMDAT ?PostLoad@UFireTexture@@UAEXXZ
_TEXT	SEGMENT PARA USE32 PUBLIC 'CODE'
_TEXT	ENDS
;	COMDAT ?TouchTexture@UFireTexture@@UAEXHHM@Z
_TEXT	SEGMENT PARA USE32 PUBLIC 'CODE'
_TEXT	ENDS
;	COMDAT ?ConstantTimeTick@UFireTexture@@UAEXXZ
_TEXT	SEGMENT PARA USE32 PUBLIC 'CODE'
_TEXT	ENDS
;	COMDAT ?MousePosition@UFireTexture@@UAEXKMM@Z
_TEXT	SEGMENT PARA USE32 PUBLIC 'CODE'
_TEXT	ENDS
;	COMDAT ?Click@UFireTexture@@UAEXKMM@Z
_TEXT	SEGMENT PARA USE32 PUBLIC 'CODE'
_TEXT	ENDS
;	COMDAT ?Serialize@UFireTexture@@UAEXAAVFArchive@@@Z
_TEXT	SEGMENT PARA USE32 PUBLIC 'CODE'
_TEXT	ENDS
;	COMDAT _$E193
_TEXT	SEGMENT PARA USE32 PUBLIC 'CODE'
_TEXT	ENDS
;	COMDAT _$E194
_TEXT	SEGMENT PARA USE32 PUBLIC 'CODE'
_TEXT	ENDS
;	COMDAT _$E196
_TEXT	SEGMENT PARA USE32 PUBLIC 'CODE'
_TEXT	ENDS
;	COMDAT _$E197
_TEXT	SEGMENT PARA USE32 PUBLIC 'CODE'
_TEXT	ENDS
;	COMDAT _$E199
_TEXT	SEGMENT PARA USE32 PUBLIC 'CODE'
_TEXT	ENDS
;	COMDAT _$E200
_TEXT	SEGMENT PARA USE32 PUBLIC 'CODE'
_TEXT	ENDS
;	COMDAT ??0UWaterTexture@@QAE@XZ
_TEXT	SEGMENT PARA USE32 PUBLIC 'CODE'
_TEXT	ENDS
;	COMDAT ?Init@UWaterTexture@@UAEXHH@Z
_TEXT	SEGMENT PARA USE32 PUBLIC 'CODE'
_TEXT	ENDS
;	COMDAT ?PostLoad@UWaterTexture@@UAEXXZ
_TEXT	SEGMENT PARA USE32 PUBLIC 'CODE'
_TEXT	ENDS
;	COMDAT ?TouchTexture@UWaterTexture@@UAEXHHM@Z
_TEXT	SEGMENT PARA USE32 PUBLIC 'CODE'
_TEXT	ENDS
;	COMDAT ?Destroy@UWaterTexture@@UAEXXZ
_TEXT	SEGMENT PARA USE32 PUBLIC 'CODE'
_TEXT	ENDS
;	COMDAT ?Clear@UWaterTexture@@UAEXK@Z
_TEXT	SEGMENT PARA USE32 PUBLIC 'CODE'
_TEXT	ENDS
;	COMDAT ?WaterPaint@UWaterTexture@@AAEXHHK@Z
_TEXT	SEGMENT PARA USE32 PUBLIC 'CODE'
_TEXT	ENDS
;	COMDAT ?MousePosition@UWaterTexture@@UAEXKMM@Z
_TEXT	SEGMENT PARA USE32 PUBLIC 'CODE'
_TEXT	ENDS
;	COMDAT ?Click@UWaterTexture@@UAEXKMM@Z
_TEXT	SEGMENT PARA USE32 PUBLIC 'CODE'
_TEXT	ENDS
;	COMDAT _$E202
_TEXT	SEGMENT PARA USE32 PUBLIC 'CODE'
_TEXT	ENDS
;	COMDAT _$E203
_TEXT	SEGMENT PARA USE32 PUBLIC 'CODE'
_TEXT	ENDS
;	COMDAT _$E205
_TEXT	SEGMENT PARA USE32 PUBLIC 'CODE'
_TEXT	ENDS
;	COMDAT _$E206
_TEXT	SEGMENT PARA USE32 PUBLIC 'CODE'
_TEXT	ENDS
;	COMDAT _$E208
_TEXT	SEGMENT PARA USE32 PUBLIC 'CODE'
_TEXT	ENDS
;	COMDAT _$E209
_TEXT	SEGMENT PARA USE32 PUBLIC 'CODE'
_TEXT	ENDS
;	COMDAT ??0UWaveTexture@@QAE@XZ
_TEXT	SEGMENT PARA USE32 PUBLIC 'CODE'
_TEXT	ENDS
;	COMDAT ?Init@UWaveTexture@@UAEXHH@Z
_TEXT	SEGMENT PARA USE32 PUBLIC 'CODE'
_TEXT	ENDS
;	COMDAT ?PostLoad@UWaveTexture@@UAEXXZ
_TEXT	SEGMENT PARA USE32 PUBLIC 'CODE'
_TEXT	ENDS
;	COMDAT ?Clear@UWaveTexture@@UAEXK@Z
_TEXT	SEGMENT PARA USE32 PUBLIC 'CODE'
_TEXT	ENDS
;	COMDAT ?ConstantTimeTick@UWaveTexture@@UAEXXZ
_TEXT	SEGMENT PARA USE32 PUBLIC 'CODE'
_TEXT	ENDS
;	COMDAT ?SetWaveLight@UWaveTexture@@QAEXXZ
_TEXT	SEGMENT PARA USE32 PUBLIC 'CODE'
_TEXT	ENDS
;	COMDAT _$E211
_TEXT	SEGMENT PARA USE32 PUBLIC 'CODE'
_TEXT	ENDS
;	COMDAT _$E212
_TEXT	SEGMENT PARA USE32 PUBLIC 'CODE'
_TEXT	ENDS
;	COMDAT _$E214
_TEXT	SEGMENT PARA USE32 PUBLIC 'CODE'
_TEXT	ENDS
;	COMDAT _$E215
_TEXT	SEGMENT PARA USE32 PUBLIC 'CODE'
_TEXT	ENDS
;	COMDAT _$E217
_TEXT	SEGMENT PARA USE32 PUBLIC 'CODE'
_TEXT	ENDS
;	COMDAT _$E218
_TEXT	SEGMENT PARA USE32 PUBLIC 'CODE'
_TEXT	ENDS
;	COMDAT ??0UWetTexture@@QAE@XZ
_TEXT	SEGMENT PARA USE32 PUBLIC 'CODE'
_TEXT	ENDS
;	COMDAT ?Init@UWetTexture@@UAEXHH@Z
_TEXT	SEGMENT PARA USE32 PUBLIC 'CODE'
_TEXT	ENDS
;	COMDAT ?PostLoad@UWetTexture@@UAEXXZ
_TEXT	SEGMENT PARA USE32 PUBLIC 'CODE'
_TEXT	ENDS
;	COMDAT ?Clear@UWetTexture@@UAEXK@Z
_TEXT	SEGMENT PARA USE32 PUBLIC 'CODE'
_TEXT	ENDS
;	COMDAT ?ConstantTimeTick@UWetTexture@@UAEXXZ
_TEXT	SEGMENT PARA USE32 PUBLIC 'CODE'
_TEXT	ENDS
;	COMDAT ?SetRefractionTable@UWetTexture@@AAEXXZ
_TEXT	SEGMENT PARA USE32 PUBLIC 'CODE'
_TEXT	ENDS
;	COMDAT ?Destroy@UWetTexture@@UAEXXZ
_TEXT	SEGMENT PARA USE32 PUBLIC 'CODE'
_TEXT	ENDS
;	COMDAT _$E220
_TEXT	SEGMENT PARA USE32 PUBLIC 'CODE'
_TEXT	ENDS
;	COMDAT _$E221
_TEXT	SEGMENT PARA USE32 PUBLIC 'CODE'
_TEXT	ENDS
;	COMDAT _$E223
_TEXT	SEGMENT PARA USE32 PUBLIC 'CODE'
_TEXT	ENDS
;	COMDAT _$E224
_TEXT	SEGMENT PARA USE32 PUBLIC 'CODE'
_TEXT	ENDS
;	COMDAT _$E226
_TEXT	SEGMENT PARA USE32 PUBLIC 'CODE'
_TEXT	ENDS
;	COMDAT _$E227
_TEXT	SEGMENT PARA USE32 PUBLIC 'CODE'
_TEXT	ENDS
;	COMDAT ??0UIceTexture@@QAE@XZ
_TEXT	SEGMENT PARA USE32 PUBLIC 'CODE'
_TEXT	ENDS
;	COMDAT ?PostLoad@UIceTexture@@UAEXXZ
_TEXT	SEGMENT PARA USE32 PUBLIC 'CODE'
_TEXT	ENDS
;	COMDAT ?Init@UIceTexture@@UAEXHH@Z
_TEXT	SEGMENT PARA USE32 PUBLIC 'CODE'
_TEXT	ENDS
;	COMDAT ?Clear@UIceTexture@@UAEXK@Z
_TEXT	SEGMENT PARA USE32 PUBLIC 'CODE'
_TEXT	ENDS
;	COMDAT ?ConstantTimeTick@UIceTexture@@UAEXXZ
_TEXT	SEGMENT PARA USE32 PUBLIC 'CODE'
_TEXT	ENDS
;	COMDAT ?Tick@UIceTexture@@UAIXM@Z
_TEXT	SEGMENT PARA USE32 PUBLIC 'CODE'
_TEXT	ENDS
;	COMDAT ?RenderIce@UIceTexture@@AAEXM@Z
_TEXT	SEGMENT PARA USE32 PUBLIC 'CODE'
_TEXT	ENDS
;	COMDAT ?MousePosition@UIceTexture@@UAEXKMM@Z
_TEXT	SEGMENT PARA USE32 PUBLIC 'CODE'
_TEXT	ENDS
;	COMDAT ?Click@UIceTexture@@UAEXKMM@Z
_TEXT	SEGMENT PARA USE32 PUBLIC 'CODE'
_TEXT	ENDS
;	COMDAT ?Destroy@UIceTexture@@UAEXXZ
_TEXT	SEGMENT PARA USE32 PUBLIC 'CODE'
_TEXT	ENDS
;	COMDAT _$E229
_TEXT	SEGMENT PARA USE32 PUBLIC 'CODE'
_TEXT	ENDS
;	COMDAT _$E230
_TEXT	SEGMENT PARA USE32 PUBLIC 'CODE'
_TEXT	ENDS
;	COMDAT _$E232
_TEXT	SEGMENT PARA USE32 PUBLIC 'CODE'
_TEXT	ENDS
;	COMDAT _$E233
_TEXT	SEGMENT PARA USE32 PUBLIC 'CODE'
_TEXT	ENDS
;	COMDAT _$E235
_TEXT	SEGMENT PARA USE32 PUBLIC 'CODE'
_TEXT	ENDS
;	COMDAT _$E236
_TEXT	SEGMENT PARA USE32 PUBLIC 'CODE'
_TEXT	ENDS
;	COMDAT ??0?$TArray@G@@QAE@XZ
_TEXT	SEGMENT PARA USE32 PUBLIC 'CODE'
_TEXT	ENDS
;	COMDAT ??0?$TArray@G@@QAE@H@Z
_TEXT	SEGMENT PARA USE32 PUBLIC 'CODE'
_TEXT	ENDS
;	COMDAT ??0?$TArray@G@@QAE@W4ENoInit@@@Z
_TEXT	SEGMENT PARA USE32 PUBLIC 'CODE'
_TEXT	ENDS
;	COMDAT ??1?$TArray@G@@QAE@XZ
_TEXT	SEGMENT PARA USE32 PUBLIC 'CODE'
_TEXT	ENDS
;	COMDAT ??R?$TArray@G@@QAEAAGH@Z
_TEXT	SEGMENT PARA USE32 PUBLIC 'CODE'
_TEXT	ENDS
;	COMDAT ??R?$TArray@G@@QBEABGH@Z
_TEXT	SEGMENT PARA USE32 PUBLIC 'CODE'
_TEXT	ENDS
;	COMDAT ?Shrink@?$TArray@G@@QAEXXZ
_TEXT	SEGMENT PARA USE32 PUBLIC 'CODE'
_TEXT	ENDS
;	COMDAT ?Add@?$TArray@G@@QAEHHH@Z
_TEXT	SEGMENT PARA USE32 PUBLIC 'CODE'
_TEXT	ENDS
;	COMDAT ?Empty@?$TArray@G@@QAEXH@Z
_TEXT	SEGMENT PARA USE32 PUBLIC 'CODE'
_TEXT	ENDS
;	COMDAT ??0?$TArray@E@@QAE@XZ
_TEXT	SEGMENT PARA USE32 PUBLIC 'CODE'
_TEXT	ENDS
;	COMDAT ??1?$TArray@E@@QAE@XZ
_TEXT	SEGMENT PARA USE32 PUBLIC 'CODE'
_TEXT	ENDS
;	COMDAT ??R?$TArray@E@@QAEAAEH@Z
_TEXT	SEGMENT PARA USE32 PUBLIC 'CODE'
_TEXT	ENDS
;	COMDAT ??R?$TArray@E@@QBEABEH@Z
_TEXT	SEGMENT PARA USE32 PUBLIC 'CODE'
_TEXT	ENDS
;	COMDAT ??6@YAAAVFArchive@@AAV0@AAV?$TArray@E@@@Z
_TEXT	SEGMENT PARA USE32 PUBLIC 'CODE'
_TEXT	ENDS
;	COMDAT ?Add@?$TArray@E@@QAEHHH@Z
_TEXT	SEGMENT PARA USE32 PUBLIC 'CODE'
_TEXT	ENDS
;	COMDAT ??R?$TArray@PAUFNameEntry@@@@QAEAAPAUFNameEntry@@H@Z
_TEXT	SEGMENT PARA USE32 PUBLIC 'CODE'
_TEXT	ENDS
;	COMDAT ??0?$TArray@H@@QAE@XZ
_TEXT	SEGMENT PARA USE32 PUBLIC 'CODE'
_TEXT	ENDS
;	COMDAT ??1?$TArray@H@@QAE@XZ
_TEXT	SEGMENT PARA USE32 PUBLIC 'CODE'
_TEXT	ENDS
;	COMDAT ??0?$TArray@VFString@@@@QAE@XZ
_TEXT	SEGMENT PARA USE32 PUBLIC 'CODE'
_TEXT	ENDS
;	COMDAT ??1?$TArray@VFString@@@@QAE@XZ
_TEXT	SEGMENT PARA USE32 PUBLIC 'CODE'
_TEXT	ENDS
;	COMDAT ??R?$TArray@PAVUObject@@@@QAEAAPAVUObject@@H@Z
_TEXT	SEGMENT PARA USE32 PUBLIC 'CODE'
_TEXT	ENDS
;	COMDAT ??R?$TArray@VFFieldNetCache@@@@QAEAAVFFieldNetCache@@H@Z
_TEXT	SEGMENT PARA USE32 PUBLIC 'CODE'
_TEXT	ENDS
;	COMDAT ?FindRef@?$TMapBase@PAVUObject@@PAVFFieldNetCache@@@@QAEPAVFFieldNetCache@@ABQAVUObject@@@Z
_TEXT	SEGMENT PARA USE32 PUBLIC 'CODE'
_TEXT	ENDS
;	COMDAT ??0?$TArray@VFPackageInfo@@@@QAE@XZ
_TEXT	SEGMENT PARA USE32 PUBLIC 'CODE'
_TEXT	ENDS
;	COMDAT ??1?$TArray@VFPackageInfo@@@@QAE@XZ
_TEXT	SEGMENT PARA USE32 PUBLIC 'CODE'
_TEXT	ENDS
;	COMDAT ??0?$TMapBase@PAVUObject@@H@@QAE@XZ
_TEXT	SEGMENT PARA USE32 PUBLIC 'CODE'
_TEXT	ENDS
;	COMDAT ??1?$TMapBase@PAVUObject@@H@@QAE@XZ
_TEXT	SEGMENT PARA USE32 PUBLIC 'CODE'
_TEXT	ENDS
;	COMDAT ??0?$TMapBase@PAVUObject@@PAVFClassNetCache@@@@QAE@XZ
_TEXT	SEGMENT PARA USE32 PUBLIC 'CODE'
_TEXT	ENDS
;	COMDAT ??1?$TMapBase@PAVUObject@@PAVFClassNetCache@@@@QAE@XZ
_TEXT	SEGMENT PARA USE32 PUBLIC 'CODE'
_TEXT	ENDS
;	COMDAT ??0?$TArray@VFName@@@@QAE@XZ
_TEXT	SEGMENT PARA USE32 PUBLIC 'CODE'
_TEXT	ENDS
;	COMDAT ??1?$TArray@VFName@@@@QAE@XZ
_TEXT	SEGMENT PARA USE32 PUBLIC 'CODE'
_TEXT	ENDS
;	COMDAT ??1?$TArray@UFRepRecord@@@@QAE@XZ
_TEXT	SEGMENT PARA USE32 PUBLIC 'CODE'
_TEXT	ENDS
;	COMDAT ??1?$TArray@PAVUField@@@@QAE@XZ
_TEXT	SEGMENT PARA USE32 PUBLIC 'CODE'
_TEXT	ENDS
;	COMDAT ??1?$TArray@VFClassDependency@@@@QAE@XZ
_TEXT	SEGMENT PARA USE32 PUBLIC 'CODE'
_TEXT	ENDS
;	COMDAT ??R?$TArray@VFClassDependency@@@@QAEAAVFClassDependency@@H@Z
_TEXT	SEGMENT PARA USE32 PUBLIC 'CODE'
_TEXT	ENDS
;	COMDAT ??0?$TFieldIterator@VUProperty@@@@QAE@PAVUStruct@@@Z
_TEXT	SEGMENT PARA USE32 PUBLIC 'CODE'
_TEXT	ENDS
;	COMDAT ??B?$TFieldIterator@VUProperty@@@@QAEHXZ
_TEXT	SEGMENT PARA USE32 PUBLIC 'CODE'
_TEXT	ENDS
;	COMDAT ??E?$TFieldIterator@VUProperty@@@@QAEXXZ
_TEXT	SEGMENT PARA USE32 PUBLIC 'CODE'
_TEXT	ENDS
;	COMDAT ??C?$TFieldIterator@VUProperty@@@@QAEPAVUProperty@@XZ
_TEXT	SEGMENT PARA USE32 PUBLIC 'CODE'
_TEXT	ENDS
;	COMDAT ??0?$TArray@UFGenerationInfo@@@@QAE@XZ
_TEXT	SEGMENT PARA USE32 PUBLIC 'CODE'
_TEXT	ENDS
;	COMDAT ??0?$TArray@UFGenerationInfo@@@@QAE@H@Z
_TEXT	SEGMENT PARA USE32 PUBLIC 'CODE'
_TEXT	ENDS
;	COMDAT ??1?$TArray@UFGenerationInfo@@@@QAE@XZ
_TEXT	SEGMENT PARA USE32 PUBLIC 'CODE'
_TEXT	ENDS
;	COMDAT ??R?$TArray@UFGenerationInfo@@@@QAEAAUFGenerationInfo@@H@Z
_TEXT	SEGMENT PARA USE32 PUBLIC 'CODE'
_TEXT	ENDS
;	COMDAT ?Empty@?$TArray@UFGenerationInfo@@@@QAEXH@Z
_TEXT	SEGMENT PARA USE32 PUBLIC 'CODE'
_TEXT	ENDS
;	COMDAT ??4?$TArray@UFGenerationInfo@@@@QAEAAV0@ABV0@@Z
_TEXT	SEGMENT PARA USE32 PUBLIC 'CODE'
_TEXT	ENDS
;	COMDAT ??0?$TArray@UFObjectImport@@@@QAE@XZ
_TEXT	SEGMENT PARA USE32 PUBLIC 'CODE'
_TEXT	ENDS
;	COMDAT ??1?$TArray@UFObjectImport@@@@QAE@XZ
_TEXT	SEGMENT PARA USE32 PUBLIC 'CODE'
_TEXT	ENDS
;	COMDAT ??0?$TArray@UFObjectExport@@@@QAE@XZ
_TEXT	SEGMENT PARA USE32 PUBLIC 'CODE'
_TEXT	ENDS
;	COMDAT ??1?$TArray@UFObjectExport@@@@QAE@XZ
_TEXT	SEGMENT PARA USE32 PUBLIC 'CODE'
_TEXT	ENDS
;	COMDAT ??0?$TArray@PAVFLazyLoader@@@@QAE@XZ
_TEXT	SEGMENT PARA USE32 PUBLIC 'CODE'
_TEXT	ENDS
;	COMDAT ??1?$TArray@PAVFLazyLoader@@@@QAE@XZ
_TEXT	SEGMENT PARA USE32 PUBLIC 'CODE'
_TEXT	ENDS
;	COMDAT ??0?$TTransArray@VFPoly@@@@QAE@PAVUObject@@H@Z
_TEXT	SEGMENT PARA USE32 PUBLIC 'CODE'
_TEXT	ENDS
;	COMDAT ?Empty@?$TTransArray@VFPoly@@@@QAEXH@Z
_TEXT	SEGMENT PARA USE32 PUBLIC 'CODE'
_TEXT	ENDS
;	COMDAT ?AddZeroed@?$TTransArray@VFPoly@@@@QAEHH@Z
_TEXT	SEGMENT PARA USE32 PUBLIC 'CODE'
_TEXT	ENDS
;	COMDAT ??6@YAAAVFArchive@@AAV0@AAV?$TTransArray@VFPoly@@@@@Z
_TEXT	SEGMENT PARA USE32 PUBLIC 'CODE'
_TEXT	ENDS
;	COMDAT ??1?$TArray@VFPoly@@@@QAE@XZ
_TEXT	SEGMENT PARA USE32 PUBLIC 'CODE'
_TEXT	ENDS
;	COMDAT ??R?$TArray@VFPoly@@@@QAEAAVFPoly@@H@Z
_TEXT	SEGMENT PARA USE32 PUBLIC 'CODE'
_TEXT	ENDS
;	COMDAT ?CountBytes@?$TArray@VFPoly@@@@QAEXAAVFArchive@@@Z
_TEXT	SEGMENT PARA USE32 PUBLIC 'CODE'
_TEXT	ENDS
;	COMDAT ??0?$TTransArray@VFBspNode@@@@QAE@PAVUObject@@H@Z
_TEXT	SEGMENT PARA USE32 PUBLIC 'CODE'
_TEXT	ENDS
;	COMDAT ??1?$TArray@VFBspNode@@@@QAE@XZ
_TEXT	SEGMENT PARA USE32 PUBLIC 'CODE'
_TEXT	ENDS
;	COMDAT ??0?$TTransArray@VFVert@@@@QAE@PAVUObject@@H@Z
_TEXT	SEGMENT PARA USE32 PUBLIC 'CODE'
_TEXT	ENDS
;	COMDAT ??1?$TArray@VFVert@@@@QAE@XZ
_TEXT	SEGMENT PARA USE32 PUBLIC 'CODE'
_TEXT	ENDS
;	COMDAT ??0?$TTransArray@VFVector@@@@QAE@PAVUObject@@H@Z
_TEXT	SEGMENT PARA USE32 PUBLIC 'CODE'
_TEXT	ENDS
;	COMDAT ??1?$TArray@VFVector@@@@QAE@XZ
_TEXT	SEGMENT PARA USE32 PUBLIC 'CODE'
_TEXT	ENDS
;	COMDAT ??0?$TTransArray@VFBspSurf@@@@QAE@PAVUObject@@H@Z
_TEXT	SEGMENT PARA USE32 PUBLIC 'CODE'
_TEXT	ENDS
;	COMDAT ??1?$TArray@VFBspSurf@@@@QAE@XZ
_TEXT	SEGMENT PARA USE32 PUBLIC 'CODE'
_TEXT	ENDS
;	COMDAT ??R?$TArray@VFBspSurf@@@@QAEAAVFBspSurf@@H@Z
_TEXT	SEGMENT PARA USE32 PUBLIC 'CODE'
_TEXT	ENDS
;	COMDAT ??0?$TArray@VFLightMapIndex@@@@QAE@XZ
_TEXT	SEGMENT PARA USE32 PUBLIC 'CODE'
_TEXT	ENDS
;	COMDAT ??1?$TArray@VFLightMapIndex@@@@QAE@XZ
_TEXT	SEGMENT PARA USE32 PUBLIC 'CODE'
_TEXT	ENDS
;	COMDAT ??R?$TArray@VFLightMapIndex@@@@QAEAAVFLightMapIndex@@H@Z
_TEXT	SEGMENT PARA USE32 PUBLIC 'CODE'
_TEXT	ENDS
;	COMDAT ??0?$TArray@VFBox@@@@QAE@XZ
_TEXT	SEGMENT PARA USE32 PUBLIC 'CODE'
_TEXT	ENDS
;	COMDAT ??1?$TArray@VFBox@@@@QAE@XZ
_TEXT	SEGMENT PARA USE32 PUBLIC 'CODE'
_TEXT	ENDS
;	COMDAT ??0?$TArray@VFLeaf@@@@QAE@XZ
_TEXT	SEGMENT PARA USE32 PUBLIC 'CODE'
_TEXT	ENDS
;	COMDAT ??1?$TArray@VFLeaf@@@@QAE@XZ
_TEXT	SEGMENT PARA USE32 PUBLIC 'CODE'
_TEXT	ENDS
;	COMDAT ??0?$TArray@PAVAActor@@@@QAE@XZ
_TEXT	SEGMENT PARA USE32 PUBLIC 'CODE'
_TEXT	ENDS
;	COMDAT ??1?$TArray@PAVAActor@@@@QAE@XZ
_TEXT	SEGMENT PARA USE32 PUBLIC 'CODE'
_TEXT	ENDS
;	COMDAT ??R?$TArray@PAVAActor@@@@QAEAAPAVAActor@@H@Z
_TEXT	SEGMENT PARA USE32 PUBLIC 'CODE'
_TEXT	ENDS
;	COMDAT ??1?$TArray@VFColor@@@@QAE@XZ
_TEXT	SEGMENT PARA USE32 PUBLIC 'CODE'
_TEXT	ENDS
;	COMDAT ??R?$TArray@VFColor@@@@QAEAAVFColor@@H@Z
_TEXT	SEGMENT PARA USE32 PUBLIC 'CODE'
_TEXT	ENDS
;	COMDAT ??0?$TLazyArray@E@@QAE@H@Z
_TEXT	SEGMENT PARA USE32 PUBLIC 'CODE'
_TEXT	ENDS
;	COMDAT ??1?$TLazyArray@E@@QAE@XZ
_TEXT	SEGMENT PARA USE32 PUBLIC 'CODE'
_TEXT	ENDS
;	COMDAT ?Load@?$TLazyArray@E@@UAEXXZ
_TEXT	SEGMENT PARA USE32 PUBLIC 'CODE'
_TEXT	ENDS
;	COMDAT ?Unload@?$TLazyArray@E@@UAEXXZ
_TEXT	SEGMENT PARA USE32 PUBLIC 'CODE'
_TEXT	ENDS
;	COMDAT ??6@YAAAVFArchive@@AAV0@AAV?$TLazyArray@E@@@Z
_TEXT	SEGMENT PARA USE32 PUBLIC 'CODE'
_TEXT	ENDS
;	COMDAT ??0?$TArray@UFMipmap@@@@QAE@ABV0@@Z
_TEXT	SEGMENT PARA USE32 PUBLIC 'CODE'
_TEXT	ENDS
;	COMDAT ??1?$TArray@UFMipmap@@@@QAE@XZ
_TEXT	SEGMENT PARA USE32 PUBLIC 'CODE'
_TEXT	ENDS
;	COMDAT ??R?$TArray@UFMipmap@@@@QAEAAUFMipmap@@H@Z
_TEXT	SEGMENT PARA USE32 PUBLIC 'CODE'
_TEXT	ENDS
;	COMDAT ??4?$TArray@UFMipmap@@@@QAEAAV0@ABV0@@Z
_TEXT	SEGMENT PARA USE32 PUBLIC 'CODE'
_TEXT	ENDS
;	COMDAT ??6@YAAAVFArchive@@AAV0@AAV?$TArray@UFFontCharacter@@@@@Z
_TEXT	SEGMENT PARA USE32 PUBLIC 'CODE'
_TEXT	ENDS
;	COMDAT ??1?$TArray@UFFontPage@@@@QAE@XZ
_TEXT	SEGMENT PARA USE32 PUBLIC 'CODE'
_TEXT	ENDS
;	COMDAT ??1?$TMapBase@GH@@QAE@XZ
_TEXT	SEGMENT PARA USE32 PUBLIC 'CODE'
_TEXT	ENDS
;	COMDAT ??0?$TArray@M@@QAE@XZ
_TEXT	SEGMENT PARA USE32 PUBLIC 'CODE'
_TEXT	ENDS
;	COMDAT ??1?$TArray@M@@QAE@XZ
_TEXT	SEGMENT PARA USE32 PUBLIC 'CODE'
_TEXT	ENDS
;	COMDAT ??0?$TArray@UFMeshDecalTri@@@@QAE@XZ
_TEXT	SEGMENT PARA USE32 PUBLIC 'CODE'
_TEXT	ENDS
;	COMDAT ??1?$TArray@UFMeshDecalTri@@@@QAE@XZ
_TEXT	SEGMENT PARA USE32 PUBLIC 'CODE'
_TEXT	ENDS
;	COMDAT ??0?$TArray@PAVAParticleCollisionActor@@@@QAE@XZ
_TEXT	SEGMENT PARA USE32 PUBLIC 'CODE'
_TEXT	ENDS
;	COMDAT ??1?$TArray@PAVAParticleCollisionActor@@@@QAE@XZ
_TEXT	SEGMENT PARA USE32 PUBLIC 'CODE'
_TEXT	ENDS
;	COMDAT ??0?$TTransArray@PAVAActor@@@@QAE@PAVUObject@@H@Z
_TEXT	SEGMENT PARA USE32 PUBLIC 'CODE'
_TEXT	ENDS
;	COMDAT ??0?$TArray@VFReachSpec@@@@QAE@XZ
_TEXT	SEGMENT PARA USE32 PUBLIC 'CODE'
_TEXT	ENDS
;	COMDAT ??1?$TArray@VFReachSpec@@@@QAE@XZ
_TEXT	SEGMENT PARA USE32 PUBLIC 'CODE'
_TEXT	ENDS
;	COMDAT ??0?$TMapBase@VFString@@V1@@@QAE@XZ
_TEXT	SEGMENT PARA USE32 PUBLIC 'CODE'
_TEXT	ENDS
;	COMDAT ??1?$TMapBase@VFString@@V1@@@QAE@XZ
_TEXT	SEGMENT PARA USE32 PUBLIC 'CODE'
_TEXT	ENDS
;	COMDAT ??0?$TMapBase@VFName@@PAVAActor@@@@QAE@XZ
_TEXT	SEGMENT PARA USE32 PUBLIC 'CODE'
_TEXT	ENDS
;	COMDAT ??1?$TMapBase@VFName@@PAVAActor@@@@QAE@XZ
_TEXT	SEGMENT PARA USE32 PUBLIC 'CODE'
_TEXT	ENDS
;	COMDAT ??0?$TMapBase@VFString@@PAVUFont@@@@QAE@XZ
_TEXT	SEGMENT PARA USE32 PUBLIC 'CODE'
_TEXT	ENDS
;	COMDAT ??1?$TMapBase@VFString@@PAVUFont@@@@QAE@XZ
_TEXT	SEGMENT PARA USE32 PUBLIC 'CODE'
_TEXT	ENDS
;	COMDAT ??1?$TArray@PAVUViewport@@@@QAE@XZ
_TEXT	SEGMENT PARA USE32 PUBLIC 'CODE'
_TEXT	ENDS
;	COMDAT ??0?$TArray@VFMeshAnimNotify@@@@QAE@XZ
_TEXT	SEGMENT PARA USE32 PUBLIC 'CODE'
_TEXT	ENDS
;	COMDAT ??1?$TArray@VFMeshAnimNotify@@@@QAE@XZ
_TEXT	SEGMENT PARA USE32 PUBLIC 'CODE'
_TEXT	ENDS
;	COMDAT ??6@YAAAVFArchive@@AAV0@AAV?$TArray@VFMeshAnimNotify@@@@@Z
_TEXT	SEGMENT PARA USE32 PUBLIC 'CODE'
_TEXT	ENDS
;	COMDAT ??1?$TLazyArray@UFMeshVert@@@@QAE@XZ
_TEXT	SEGMENT PARA USE32 PUBLIC 'CODE'
_TEXT	ENDS
;	COMDAT ?Load@?$TLazyArray@UFMeshVert@@@@UAEXXZ
_TEXT	SEGMENT PARA USE32 PUBLIC 'CODE'
_TEXT	ENDS
;	COMDAT ?Unload@?$TLazyArray@UFMeshVert@@@@UAEXXZ
_TEXT	SEGMENT PARA USE32 PUBLIC 'CODE'
_TEXT	ENDS
;	COMDAT ??1?$TLazyArray@UFMeshTri@@@@QAE@XZ
_TEXT	SEGMENT PARA USE32 PUBLIC 'CODE'
_TEXT	ENDS
;	COMDAT ?Load@?$TLazyArray@UFMeshTri@@@@UAEXXZ
_TEXT	SEGMENT PARA USE32 PUBLIC 'CODE'
_TEXT	ENDS
;	COMDAT ?Unload@?$TLazyArray@UFMeshTri@@@@UAEXXZ
_TEXT	SEGMENT PARA USE32 PUBLIC 'CODE'
_TEXT	ENDS
;	COMDAT ??1?$TArray@VFMeshAnimSeq@@@@QAE@XZ
_TEXT	SEGMENT PARA USE32 PUBLIC 'CODE'
_TEXT	ENDS
;	COMDAT ??1?$TLazyArray@UFMeshVertConnect@@@@QAE@XZ
_TEXT	SEGMENT PARA USE32 PUBLIC 'CODE'
_TEXT	ENDS
;	COMDAT ?Load@?$TLazyArray@UFMeshVertConnect@@@@UAEXXZ
_TEXT	SEGMENT PARA USE32 PUBLIC 'CODE'
_TEXT	ENDS
;	COMDAT ?Unload@?$TLazyArray@UFMeshVertConnect@@@@UAEXXZ
_TEXT	SEGMENT PARA USE32 PUBLIC 'CODE'
_TEXT	ENDS
;	COMDAT ??1?$TLazyArray@H@@QAE@XZ
_TEXT	SEGMENT PARA USE32 PUBLIC 'CODE'
_TEXT	ENDS
;	COMDAT ?Load@?$TLazyArray@H@@UAEXXZ
_TEXT	SEGMENT PARA USE32 PUBLIC 'CODE'
_TEXT	ENDS
;	COMDAT ?Unload@?$TLazyArray@H@@UAEXXZ
_TEXT	SEGMENT PARA USE32 PUBLIC 'CODE'
_TEXT	ENDS
;	COMDAT ??1?$TArray@PAVUTexture@@@@QAE@XZ
_TEXT	SEGMENT PARA USE32 PUBLIC 'CODE'
_TEXT	ENDS
;	COMDAT ??0?$TArray@UFMeshFace@@@@QAE@XZ
_TEXT	SEGMENT PARA USE32 PUBLIC 'CODE'
_TEXT	ENDS
;	COMDAT ??1?$TArray@UFMeshFace@@@@QAE@XZ
_TEXT	SEGMENT PARA USE32 PUBLIC 'CODE'
_TEXT	ENDS
;	COMDAT ??0?$TArray@UFMeshWedge@@@@QAE@XZ
_TEXT	SEGMENT PARA USE32 PUBLIC 'CODE'
_TEXT	ENDS
;	COMDAT ??1?$TArray@UFMeshWedge@@@@QAE@XZ
_TEXT	SEGMENT PARA USE32 PUBLIC 'CODE'
_TEXT	ENDS
;	COMDAT ??0?$TArray@UFMeshMaterial@@@@QAE@XZ
_TEXT	SEGMENT PARA USE32 PUBLIC 'CODE'
_TEXT	ENDS
;	COMDAT ??1?$TArray@UFMeshMaterial@@@@QAE@XZ
_TEXT	SEGMENT PARA USE32 PUBLIC 'CODE'
_TEXT	ENDS
;	COMDAT ??1?$TMapBase@VFName@@V1@@@QAE@XZ
_TEXT	SEGMENT PARA USE32 PUBLIC 'CODE'
_TEXT	ENDS
;	COMDAT ??0?$TArray@VFSpark@@@@QAE@XZ
_TEXT	SEGMENT PARA USE32 PUBLIC 'CODE'
_TEXT	ENDS
;	COMDAT ??0?$TArray@VFSpark@@@@QAE@ABV0@@Z
_TEXT	SEGMENT PARA USE32 PUBLIC 'CODE'
_TEXT	ENDS
;	COMDAT ??1?$TArray@VFSpark@@@@QAE@XZ
_TEXT	SEGMENT PARA USE32 PUBLIC 'CODE'
_TEXT	ENDS
;	COMDAT ??R?$TArray@VFSpark@@@@QAEAAVFSpark@@H@Z
_TEXT	SEGMENT PARA USE32 PUBLIC 'CODE'
_TEXT	ENDS
;	COMDAT ??6@YAAAVFArchive@@AAV0@AAV?$TArray@VFSpark@@@@@Z
_TEXT	SEGMENT PARA USE32 PUBLIC 'CODE'
_TEXT	ENDS
;	COMDAT ?Add@?$TArray@VFSpark@@@@QAEHHH@Z
_TEXT	SEGMENT PARA USE32 PUBLIC 'CODE'
_TEXT	ENDS
;	COMDAT ?Remove@?$TArray@VFSpark@@@@QAEXHH@Z
_TEXT	SEGMENT PARA USE32 PUBLIC 'CODE'
_TEXT	ENDS
;	COMDAT ??4?$TArray@VFSpark@@@@QAEAAV0@ABV0@@Z
_TEXT	SEGMENT PARA USE32 PUBLIC 'CODE'
_TEXT	ENDS
;	COMDAT __imp_??0FMipmap@@QAE@ABU0@@Z
_TEXT	SEGMENT PARA USE32 PUBLIC 'CODE'
_TEXT	ENDS
;	COMDAT __imp_??4FMipmap@@QAEAAU0@ABU0@@Z
_TEXT	SEGMENT PARA USE32 PUBLIC 'CODE'
_TEXT	ENDS
;	COMDAT ??0?$TLazyArray@E@@QAE@ABV0@@Z
_TEXT	SEGMENT PARA USE32 PUBLIC 'CODE'
_TEXT	ENDS
;	COMDAT ??4?$TLazyArray@E@@QAEAAV0@ABV0@@Z
_TEXT	SEGMENT PARA USE32 PUBLIC 'CODE'
_TEXT	ENDS
;	COMDAT ??0FLazyLoader@@QAE@ABV0@@Z
_TEXT	SEGMENT PARA USE32 PUBLIC 'CODE'
_TEXT	ENDS
;	COMDAT ??4FLazyLoader@@QAEAAV0@ABV0@@Z
_TEXT	SEGMENT PARA USE32 PUBLIC 'CODE'
_TEXT	ENDS
;	COMDAT ?Remove@?$TArray@G@@QAEXHH@Z
_TEXT	SEGMENT PARA USE32 PUBLIC 'CODE'
_TEXT	ENDS
;	COMDAT ??0?$TArray@E@@QAE@H@Z
_TEXT	SEGMENT PARA USE32 PUBLIC 'CODE'
_TEXT	ENDS
;	COMDAT ??0?$TArray@E@@QAE@ABV0@@Z
_TEXT	SEGMENT PARA USE32 PUBLIC 'CODE'
_TEXT	ENDS
;	COMDAT ?CountBytes@?$TArray@E@@QAEXAAVFArchive@@@Z
_TEXT	SEGMENT PARA USE32 PUBLIC 'CODE'
_TEXT	ENDS
;	COMDAT ?Remove@?$TArray@E@@QAEXHH@Z
_TEXT	SEGMENT PARA USE32 PUBLIC 'CODE'
_TEXT	ENDS
;	COMDAT ?Empty@?$TArray@E@@QAEXH@Z
_TEXT	SEGMENT PARA USE32 PUBLIC 'CODE'
_TEXT	ENDS
;	COMDAT ??4?$TArray@E@@QAEAAV0@ABV0@@Z
_TEXT	SEGMENT PARA USE32 PUBLIC 'CODE'
_TEXT	ENDS
;	COMDAT ??6@YAAAVFArchive@@AAV0@AAV?$TArray@H@@@Z
_TEXT	SEGMENT PARA USE32 PUBLIC 'CODE'
_TEXT	ENDS
;	COMDAT ?Remove@?$TArray@H@@QAEXHH@Z
_TEXT	SEGMENT PARA USE32 PUBLIC 'CODE'
_TEXT	ENDS
;	COMDAT ?Empty@?$TArray@H@@QAEXH@Z
_TEXT	SEGMENT PARA USE32 PUBLIC 'CODE'
_TEXT	ENDS
;	COMDAT ?Remove@?$TArray@VFString@@@@QAEXHH@Z
_TEXT	SEGMENT PARA USE32 PUBLIC 'CODE'
_TEXT	ENDS
;	COMDAT ??R?$TArray@VTPair@?$TMapBase@PAVUObject@@PAVFFieldNetCache@@@@@@QAEAAVTPair@?$TMapBase@PAVUObject@@PAVFFieldNetCache@@@@H@Z
_TEXT	SEGMENT PARA USE32 PUBLIC 'CODE'
_TEXT	ENDS
;	COMDAT ?Remove@?$TArray@VFPackageInfo@@@@QAEXHH@Z
_TEXT	SEGMENT PARA USE32 PUBLIC 'CODE'
_TEXT	ENDS
;	COMDAT ?Rehash@?$TMapBase@PAVUObject@@H@@IAEXXZ
_TEXT	SEGMENT PARA USE32 PUBLIC 'CODE'
_TEXT	ENDS
;	COMDAT ??0?$TArray@VTPair@?$TMapBase@PAVUObject@@H@@@@QAE@XZ
_TEXT	SEGMENT PARA USE32 PUBLIC 'CODE'
_TEXT	ENDS
;	COMDAT ??1?$TArray@VTPair@?$TMapBase@PAVUObject@@H@@@@QAE@XZ
_TEXT	SEGMENT PARA USE32 PUBLIC 'CODE'
_TEXT	ENDS
;	COMDAT ?Rehash@?$TMapBase@PAVUObject@@PAVFClassNetCache@@@@IAEXXZ
_TEXT	SEGMENT PARA USE32 PUBLIC 'CODE'
_TEXT	ENDS
;	COMDAT ??0?$TArray@VTPair@?$TMapBase@PAVUObject@@PAVFClassNetCache@@@@@@QAE@XZ
_TEXT	SEGMENT PARA USE32 PUBLIC 'CODE'
_TEXT	ENDS
;	COMDAT ??1?$TArray@VTPair@?$TMapBase@PAVUObject@@PAVFClassNetCache@@@@@@QAE@XZ
_TEXT	SEGMENT PARA USE32 PUBLIC 'CODE'
_TEXT	ENDS
;	COMDAT ?Remove@?$TArray@VFName@@@@QAEXHH@Z
_TEXT	SEGMENT PARA USE32 PUBLIC 'CODE'
_TEXT	ENDS
;	COMDAT ?Remove@?$TArray@UFRepRecord@@@@QAEXHH@Z
_TEXT	SEGMENT PARA USE32 PUBLIC 'CODE'
_TEXT	ENDS
;	COMDAT ?Remove@?$TArray@PAVUField@@@@QAEXHH@Z
_TEXT	SEGMENT PARA USE32 PUBLIC 'CODE'
_TEXT	ENDS
;	COMDAT ?Remove@?$TArray@VFClassDependency@@@@QAEXHH@Z
_TEXT	SEGMENT PARA USE32 PUBLIC 'CODE'
_TEXT	ENDS
;	COMDAT ?IterateToNext@?$TFieldIterator@VUProperty@@@@IAEXXZ
_TEXT	SEGMENT PARA USE32 PUBLIC 'CODE'
_TEXT	ENDS
;	COMDAT ??R?$TArray@UFGenerationInfo@@@@QBEABUFGenerationInfo@@H@Z
_TEXT	SEGMENT PARA USE32 PUBLIC 'CODE'
_TEXT	ENDS
;	COMDAT ?Remove@?$TArray@UFGenerationInfo@@@@QAEXHH@Z
_TEXT	SEGMENT PARA USE32 PUBLIC 'CODE'
_TEXT	ENDS
;	COMDAT ?Remove@?$TArray@UFObjectImport@@@@QAEXHH@Z
_TEXT	SEGMENT PARA USE32 PUBLIC 'CODE'
_TEXT	ENDS
;	COMDAT ?Remove@?$TArray@UFObjectExport@@@@QAEXHH@Z
_TEXT	SEGMENT PARA USE32 PUBLIC 'CODE'
_TEXT	ENDS
;	COMDAT ?Remove@?$TArray@PAVFLazyLoader@@@@QAEXHH@Z
_TEXT	SEGMENT PARA USE32 PUBLIC 'CODE'
_TEXT	ENDS
;	COMDAT ?Add@?$TTransArray@VFPoly@@@@QAEHHH@Z
_TEXT	SEGMENT PARA USE32 PUBLIC 'CODE'
_TEXT	ENDS
;	COMDAT ?SerializeItem@?$TTransArray@VFPoly@@@@KAXAAVFArchive@@PAX@Z
_TEXT	SEGMENT PARA USE32 PUBLIC 'CODE'
_TEXT	ENDS
;	COMDAT ?DestructItem@?$TTransArray@VFPoly@@@@KAXPAX@Z
_TEXT	SEGMENT PARA USE32 PUBLIC 'CODE'
_TEXT	ENDS
;	COMDAT ??0?$TArray@VFPoly@@@@QAE@H@Z
_TEXT	SEGMENT PARA USE32 PUBLIC 'CODE'
_TEXT	ENDS
;	COMDAT ??6@YAAAVFArchive@@AAV0@AAV?$TArray@VFPoly@@@@@Z
_TEXT	SEGMENT PARA USE32 PUBLIC 'CODE'
_TEXT	ENDS
;	COMDAT ?Remove@?$TArray@VFPoly@@@@QAEXHH@Z
_TEXT	SEGMENT PARA USE32 PUBLIC 'CODE'
_TEXT	ENDS
;	COMDAT ?Empty@?$TArray@VFPoly@@@@QAEXH@Z
_TEXT	SEGMENT PARA USE32 PUBLIC 'CODE'
_TEXT	ENDS
;	COMDAT ??0?$TArray@VFBspNode@@@@QAE@H@Z
_TEXT	SEGMENT PARA USE32 PUBLIC 'CODE'
_TEXT	ENDS
;	COMDAT ?Remove@?$TArray@VFBspNode@@@@QAEXHH@Z
_TEXT	SEGMENT PARA USE32 PUBLIC 'CODE'
_TEXT	ENDS
;	COMDAT ??0?$TArray@VFVert@@@@QAE@H@Z
_TEXT	SEGMENT PARA USE32 PUBLIC 'CODE'
_TEXT	ENDS
;	COMDAT ?Remove@?$TArray@VFVert@@@@QAEXHH@Z
_TEXT	SEGMENT PARA USE32 PUBLIC 'CODE'
_TEXT	ENDS
;	COMDAT ??0?$TArray@VFVector@@@@QAE@H@Z
_TEXT	SEGMENT PARA USE32 PUBLIC 'CODE'
_TEXT	ENDS
;	COMDAT ?Remove@?$TArray@VFVector@@@@QAEXHH@Z
_TEXT	SEGMENT PARA USE32 PUBLIC 'CODE'
_TEXT	ENDS
;	COMDAT ??0?$TArray@VFBspSurf@@@@QAE@H@Z
_TEXT	SEGMENT PARA USE32 PUBLIC 'CODE'
_TEXT	ENDS
;	COMDAT ?Remove@?$TArray@VFBspSurf@@@@QAEXHH@Z
_TEXT	SEGMENT PARA USE32 PUBLIC 'CODE'
_TEXT	ENDS
;	COMDAT ?Remove@?$TArray@VFLightMapIndex@@@@QAEXHH@Z
_TEXT	SEGMENT PARA USE32 PUBLIC 'CODE'
_TEXT	ENDS
;	COMDAT ?Remove@?$TArray@VFBox@@@@QAEXHH@Z
_TEXT	SEGMENT PARA USE32 PUBLIC 'CODE'
_TEXT	ENDS
;	COMDAT ?Remove@?$TArray@VFLeaf@@@@QAEXHH@Z
_TEXT	SEGMENT PARA USE32 PUBLIC 'CODE'
_TEXT	ENDS
;	COMDAT ??0?$TArray@PAVAActor@@@@QAE@H@Z
_TEXT	SEGMENT PARA USE32 PUBLIC 'CODE'
_TEXT	ENDS
;	COMDAT ?Remove@?$TArray@PAVAActor@@@@QAEXHH@Z
_TEXT	SEGMENT PARA USE32 PUBLIC 'CODE'
_TEXT	ENDS
;	COMDAT ?Remove@?$TArray@VFColor@@@@QAEXHH@Z
_TEXT	SEGMENT PARA USE32 PUBLIC 'CODE'
_TEXT	ENDS
;	COMDAT ??R?$TArray@UFMipmap@@@@QBEABUFMipmap@@H@Z
_TEXT	SEGMENT PARA USE32 PUBLIC 'CODE'
_TEXT	ENDS
;	COMDAT ?Remove@?$TArray@UFMipmap@@@@QAEXHH@Z
_TEXT	SEGMENT PARA USE32 PUBLIC 'CODE'
_TEXT	ENDS
;	COMDAT ?Empty@?$TArray@UFMipmap@@@@QAEXH@Z
_TEXT	SEGMENT PARA USE32 PUBLIC 'CODE'
_TEXT	ENDS
;	COMDAT ??R?$TArray@UFFontCharacter@@@@QAEAAUFFontCharacter@@H@Z
_TEXT	SEGMENT PARA USE32 PUBLIC 'CODE'
_TEXT	ENDS
;	COMDAT ?CountBytes@?$TArray@UFFontCharacter@@@@QAEXAAVFArchive@@@Z
_TEXT	SEGMENT PARA USE32 PUBLIC 'CODE'
_TEXT	ENDS
;	COMDAT ?Empty@?$TArray@UFFontCharacter@@@@QAEXH@Z
_TEXT	SEGMENT PARA USE32 PUBLIC 'CODE'
_TEXT	ENDS
;	COMDAT ?Remove@?$TArray@UFFontPage@@@@QAEXHH@Z
_TEXT	SEGMENT PARA USE32 PUBLIC 'CODE'
_TEXT	ENDS
;	COMDAT ??1?$TArray@VTPair@?$TMapBase@GH@@@@QAE@XZ
_TEXT	SEGMENT PARA USE32 PUBLIC 'CODE'
_TEXT	ENDS
;	COMDAT ?Remove@?$TArray@M@@QAEXHH@Z
_TEXT	SEGMENT PARA USE32 PUBLIC 'CODE'
_TEXT	ENDS
;	COMDAT ?Remove@?$TArray@UFMeshDecalTri@@@@QAEXHH@Z
_TEXT	SEGMENT PARA USE32 PUBLIC 'CODE'
_TEXT	ENDS
;	COMDAT ?Remove@?$TArray@PAVAParticleCollisionActor@@@@QAEXHH@Z
_TEXT	SEGMENT PARA USE32 PUBLIC 'CODE'
_TEXT	ENDS
;	COMDAT ?Remove@?$TArray@VFReachSpec@@@@QAEXHH@Z
_TEXT	SEGMENT PARA USE32 PUBLIC 'CODE'
_TEXT	ENDS
;	COMDAT ?Rehash@?$TMapBase@VFString@@V1@@@IAEXXZ
_TEXT	SEGMENT PARA USE32 PUBLIC 'CODE'
_TEXT	ENDS
;	COMDAT ??0?$TArray@VTPair@?$TMapBase@VFString@@V1@@@@@QAE@XZ
_TEXT	SEGMENT PARA USE32 PUBLIC 'CODE'
_TEXT	ENDS
;	COMDAT ??1?$TArray@VTPair@?$TMapBase@VFString@@V1@@@@@QAE@XZ
_TEXT	SEGMENT PARA USE32 PUBLIC 'CODE'
_TEXT	ENDS
;	COMDAT ?Rehash@?$TMapBase@VFName@@PAVAActor@@@@IAEXXZ
_TEXT	SEGMENT PARA USE32 PUBLIC 'CODE'
_TEXT	ENDS
;	COMDAT ??0?$TArray@VTPair@?$TMapBase@VFName@@PAVAActor@@@@@@QAE@XZ
_TEXT	SEGMENT PARA USE32 PUBLIC 'CODE'
_TEXT	ENDS
;	COMDAT ??1?$TArray@VTPair@?$TMapBase@VFName@@PAVAActor@@@@@@QAE@XZ
_TEXT	SEGMENT PARA USE32 PUBLIC 'CODE'
_TEXT	ENDS
;	COMDAT ?Rehash@?$TMapBase@VFString@@PAVUFont@@@@IAEXXZ
_TEXT	SEGMENT PARA USE32 PUBLIC 'CODE'
_TEXT	ENDS
;	COMDAT ??0?$TArray@VTPair@?$TMapBase@VFString@@PAVUFont@@@@@@QAE@XZ
_TEXT	SEGMENT PARA USE32 PUBLIC 'CODE'
_TEXT	ENDS
;	COMDAT ??1?$TArray@VTPair@?$TMapBase@VFString@@PAVUFont@@@@@@QAE@XZ
_TEXT	SEGMENT PARA USE32 PUBLIC 'CODE'
_TEXT	ENDS
;	COMDAT ?Remove@?$TArray@PAVUViewport@@@@QAEXHH@Z
_TEXT	SEGMENT PARA USE32 PUBLIC 'CODE'
_TEXT	ENDS
;	COMDAT ??R?$TArray@VFMeshAnimNotify@@@@QAEAAVFMeshAnimNotify@@H@Z
_TEXT	SEGMENT PARA USE32 PUBLIC 'CODE'
_TEXT	ENDS
;	COMDAT ?CountBytes@?$TArray@VFMeshAnimNotify@@@@QAEXAAVFArchive@@@Z
_TEXT	SEGMENT PARA USE32 PUBLIC 'CODE'
_TEXT	ENDS
;	COMDAT ?Remove@?$TArray@VFMeshAnimNotify@@@@QAEXHH@Z
_TEXT	SEGMENT PARA USE32 PUBLIC 'CODE'
_TEXT	ENDS
;	COMDAT ?Empty@?$TArray@VFMeshAnimNotify@@@@QAEXH@Z
_TEXT	SEGMENT PARA USE32 PUBLIC 'CODE'
_TEXT	ENDS
;	COMDAT ??1?$TArray@UFMeshVert@@@@QAE@XZ
_TEXT	SEGMENT PARA USE32 PUBLIC 'CODE'
_TEXT	ENDS
;	COMDAT ??6@YAAAVFArchive@@AAV0@AAV?$TArray@UFMeshVert@@@@@Z
_TEXT	SEGMENT PARA USE32 PUBLIC 'CODE'
_TEXT	ENDS
;	COMDAT ?Empty@?$TArray@UFMeshVert@@@@QAEXH@Z
_TEXT	SEGMENT PARA USE32 PUBLIC 'CODE'
_TEXT	ENDS
;	COMDAT ??1?$TArray@UFMeshTri@@@@QAE@XZ
_TEXT	SEGMENT PARA USE32 PUBLIC 'CODE'
_TEXT	ENDS
;	COMDAT ??6@YAAAVFArchive@@AAV0@AAV?$TArray@UFMeshTri@@@@@Z
_TEXT	SEGMENT PARA USE32 PUBLIC 'CODE'
_TEXT	ENDS
;	COMDAT ?Empty@?$TArray@UFMeshTri@@@@QAEXH@Z
_TEXT	SEGMENT PARA USE32 PUBLIC 'CODE'
_TEXT	ENDS
;	COMDAT ?Remove@?$TArray@VFMeshAnimSeq@@@@QAEXHH@Z
_TEXT	SEGMENT PARA USE32 PUBLIC 'CODE'
_TEXT	ENDS
;	COMDAT ??1?$TArray@UFMeshVertConnect@@@@QAE@XZ
_TEXT	SEGMENT PARA USE32 PUBLIC 'CODE'
_TEXT	ENDS
;	COMDAT ??6@YAAAVFArchive@@AAV0@AAV?$TArray@UFMeshVertConnect@@@@@Z
_TEXT	SEGMENT PARA USE32 PUBLIC 'CODE'
_TEXT	ENDS
;	COMDAT ?Empty@?$TArray@UFMeshVertConnect@@@@QAEXH@Z
_TEXT	SEGMENT PARA USE32 PUBLIC 'CODE'
_TEXT	ENDS
;	COMDAT ?Remove@?$TArray@PAVUTexture@@@@QAEXHH@Z
_TEXT	SEGMENT PARA USE32 PUBLIC 'CODE'
_TEXT	ENDS
;	COMDAT ?Remove@?$TArray@UFMeshFace@@@@QAEXHH@Z
_TEXT	SEGMENT PARA USE32 PUBLIC 'CODE'
_TEXT	ENDS
;	COMDAT ?Remove@?$TArray@UFMeshWedge@@@@QAEXHH@Z
_TEXT	SEGMENT PARA USE32 PUBLIC 'CODE'
_TEXT	ENDS
;	COMDAT ?Remove@?$TArray@UFMeshMaterial@@@@QAEXHH@Z
_TEXT	SEGMENT PARA USE32 PUBLIC 'CODE'
_TEXT	ENDS
;	COMDAT ??1?$TArray@VTPair@?$TMapBase@VFName@@V1@@@@@QAE@XZ
_TEXT	SEGMENT PARA USE32 PUBLIC 'CODE'
_TEXT	ENDS
;	COMDAT ??R?$TArray@VFSpark@@@@QBEABVFSpark@@H@Z
_TEXT	SEGMENT PARA USE32 PUBLIC 'CODE'
_TEXT	ENDS
;	COMDAT ?CountBytes@?$TArray@VFSpark@@@@QAEXAAVFArchive@@@Z
_TEXT	SEGMENT PARA USE32 PUBLIC 'CODE'
_TEXT	ENDS
;	COMDAT ?Empty@?$TArray@VFSpark@@@@QAEXH@Z
_TEXT	SEGMENT PARA USE32 PUBLIC 'CODE'
_TEXT	ENDS
;	COMDAT ?NeedsDestructor@?$TTypeInfoBase@UFGenerationInfo@@@@SAHXZ
_TEXT	SEGMENT PARA USE32 PUBLIC 'CODE'
_TEXT	ENDS
;	COMDAT ?NeedsDestructor@?$TTypeInfoBase@UFMipmap@@@@SAHXZ
_TEXT	SEGMENT PARA USE32 PUBLIC 'CODE'
_TEXT	ENDS
;	COMDAT ?NeedsDestructor@?$TTypeInfoBase@VFSpark@@@@SAHXZ
_TEXT	SEGMENT PARA USE32 PUBLIC 'CODE'
_TEXT	ENDS
;	COMDAT ??_GFString@@QAEPAXI@Z
_TEXT	SEGMENT PARA USE32 PUBLIC 'CODE'
_TEXT	ENDS
;	COMDAT ??_GFPackageInfo@@QAEPAXI@Z
_TEXT	SEGMENT PARA USE32 PUBLIC 'CODE'
_TEXT	ENDS
;	COMDAT __imp_??0FPoly@@QAE@XZ
_TEXT	SEGMENT PARA USE32 PUBLIC 'CODE'
_TEXT	ENDS
;	COMDAT ??_GFBspSurf@@QAEPAXI@Z
_TEXT	SEGMENT PARA USE32 PUBLIC 'CODE'
_TEXT	ENDS
;	COMDAT ??_GFMipmap@@QAEPAXI@Z
_TEXT	SEGMENT PARA USE32 PUBLIC 'CODE'
_TEXT	ENDS
;	COMDAT ??_GFFontPage@@QAEPAXI@Z
_TEXT	SEGMENT PARA USE32 PUBLIC 'CODE'
_TEXT	ENDS
;	COMDAT ??_GFMeshAnimSeq@@QAEPAXI@Z
_TEXT	SEGMENT PARA USE32 PUBLIC 'CODE'
_TEXT	ENDS
;	COMDAT __imp_??1FPackageInfo@@QAE@XZ
_TEXT	SEGMENT PARA USE32 PUBLIC 'CODE'
_TEXT	ENDS
;	COMDAT ??1FBspSurf@@QAE@XZ
_TEXT	SEGMENT PARA USE32 PUBLIC 'CODE'
_TEXT	ENDS
;	COMDAT __imp_??1FMipmap@@QAE@XZ
_TEXT	SEGMENT PARA USE32 PUBLIC 'CODE'
_TEXT	ENDS
;	COMDAT __imp_??1FFontPage@@QAE@XZ
_TEXT	SEGMENT PARA USE32 PUBLIC 'CODE'
_TEXT	ENDS
;	COMDAT ??1FMeshAnimSeq@@QAE@XZ
_TEXT	SEGMENT PARA USE32 PUBLIC 'CODE'
_TEXT	ENDS
;	COMDAT ?NeedsDestructor@?$TTypeInfoBase@VFString@@@@SAHXZ
_TEXT	SEGMENT PARA USE32 PUBLIC 'CODE'
_TEXT	ENDS
;	COMDAT ??R?$TArray@H@@QAEAAHH@Z
_TEXT	SEGMENT PARA USE32 PUBLIC 'CODE'
_TEXT	ENDS
;	COMDAT ?CountBytes@?$TArray@H@@QAEXAAVFArchive@@@Z
_TEXT	SEGMENT PARA USE32 PUBLIC 'CODE'
_TEXT	ENDS
;	COMDAT ??R?$TArray@VFString@@@@QAEAAVFString@@H@Z
_TEXT	SEGMENT PARA USE32 PUBLIC 'CODE'
_TEXT	ENDS
;	COMDAT ??R?$TArray@VFPackageInfo@@@@QAEAAVFPackageInfo@@H@Z
_TEXT	SEGMENT PARA USE32 PUBLIC 'CODE'
_TEXT	ENDS
;	COMDAT ??R?$TArray@VTPair@?$TMapBase@PAVUObject@@H@@@@QAEAAVTPair@?$TMapBase@PAVUObject@@H@@H@Z
_TEXT	SEGMENT PARA USE32 PUBLIC 'CODE'
_TEXT	ENDS
;	COMDAT ?Remove@?$TArray@VTPair@?$TMapBase@PAVUObject@@H@@@@QAEXHH@Z
_TEXT	SEGMENT PARA USE32 PUBLIC 'CODE'
_TEXT	ENDS
;	COMDAT ??R?$TArray@VTPair@?$TMapBase@PAVUObject@@PAVFClassNetCache@@@@@@QAEAAVTPair@?$TMapBase@PAVUObject@@PAVFClassNetCache@@@@H@Z
_TEXT	SEGMENT PARA USE32 PUBLIC 'CODE'
_TEXT	ENDS
;	COMDAT ?Remove@?$TArray@VTPair@?$TMapBase@PAVUObject@@PAVFClassNetCache@@@@@@QAEXHH@Z
_TEXT	SEGMENT PARA USE32 PUBLIC 'CODE'
_TEXT	ENDS
;	COMDAT ??1?$TArray@VFDecal@@@@QAE@XZ
_TEXT	SEGMENT PARA USE32 PUBLIC 'CODE'
_TEXT	ENDS
;	COMDAT ?Add@?$TArray@VFPoly@@@@QAEHHH@Z
_TEXT	SEGMENT PARA USE32 PUBLIC 'CODE'
_TEXT	ENDS
;	COMDAT ??1?$TArray@UFFontCharacter@@@@QAE@XZ
_TEXT	SEGMENT PARA USE32 PUBLIC 'CODE'
_TEXT	ENDS
;	COMDAT ??R?$TArray@UFFontPage@@@@QAEAAUFFontPage@@H@Z
_TEXT	SEGMENT PARA USE32 PUBLIC 'CODE'
_TEXT	ENDS
;	COMDAT ?Remove@?$TArray@VTPair@?$TMapBase@GH@@@@QAEXHH@Z
_TEXT	SEGMENT PARA USE32 PUBLIC 'CODE'
_TEXT	ENDS
;	COMDAT ??R?$TArray@VTPair@?$TMapBase@VFString@@V1@@@@@QAEAAVTPair@?$TMapBase@VFString@@V1@@@H@Z
_TEXT	SEGMENT PARA USE32 PUBLIC 'CODE'
_TEXT	ENDS
;	COMDAT ?Remove@?$TArray@VTPair@?$TMapBase@VFString@@V1@@@@@QAEXHH@Z
_TEXT	SEGMENT PARA USE32 PUBLIC 'CODE'
_TEXT	ENDS
;	COMDAT ?NeedsDestructor@?$TTypeInfoBase@PAVAActor@@@@SAHXZ
_TEXT	SEGMENT PARA USE32 PUBLIC 'CODE'
_TEXT	ENDS
;	COMDAT ??R?$TArray@VTPair@?$TMapBase@VFName@@PAVAActor@@@@@@QAEAAVTPair@?$TMapBase@VFName@@PAVAActor@@@@H@Z
_TEXT	SEGMENT PARA USE32 PUBLIC 'CODE'
_TEXT	ENDS
;	COMDAT ?Remove@?$TArray@VTPair@?$TMapBase@VFName@@PAVAActor@@@@@@QAEXHH@Z
_TEXT	SEGMENT PARA USE32 PUBLIC 'CODE'
_TEXT	ENDS
;	COMDAT ??R?$TArray@VTPair@?$TMapBase@VFString@@PAVUFont@@@@@@QAEAAVTPair@?$TMapBase@VFString@@PAVUFont@@@@H@Z
_TEXT	SEGMENT PARA USE32 PUBLIC 'CODE'
_TEXT	ENDS
;	COMDAT ?Remove@?$TArray@VTPair@?$TMapBase@VFString@@PAVUFont@@@@@@QAEXHH@Z
_TEXT	SEGMENT PARA USE32 PUBLIC 'CODE'
_TEXT	ENDS
;	COMDAT ??R?$TArray@UFMeshVert@@@@QAEAAUFMeshVert@@H@Z
_TEXT	SEGMENT PARA USE32 PUBLIC 'CODE'
_TEXT	ENDS
;	COMDAT ?CountBytes@?$TArray@UFMeshVert@@@@QAEXAAVFArchive@@@Z
_TEXT	SEGMENT PARA USE32 PUBLIC 'CODE'
_TEXT	ENDS
;	COMDAT ?Remove@?$TArray@UFMeshVert@@@@QAEXHH@Z
_TEXT	SEGMENT PARA USE32 PUBLIC 'CODE'
_TEXT	ENDS
;	COMDAT ??R?$TArray@UFMeshTri@@@@QAEAAUFMeshTri@@H@Z
_TEXT	SEGMENT PARA USE32 PUBLIC 'CODE'
_TEXT	ENDS
;	COMDAT ?CountBytes@?$TArray@UFMeshTri@@@@QAEXAAVFArchive@@@Z
_TEXT	SEGMENT PARA USE32 PUBLIC 'CODE'
_TEXT	ENDS
;	COMDAT ?Remove@?$TArray@UFMeshTri@@@@QAEXHH@Z
_TEXT	SEGMENT PARA USE32 PUBLIC 'CODE'
_TEXT	ENDS
;	COMDAT ??R?$TArray@VFMeshAnimSeq@@@@QAEAAVFMeshAnimSeq@@H@Z
_TEXT	SEGMENT PARA USE32 PUBLIC 'CODE'
_TEXT	ENDS
;	COMDAT ??R?$TArray@UFMeshVertConnect@@@@QAEAAUFMeshVertConnect@@H@Z
_TEXT	SEGMENT PARA USE32 PUBLIC 'CODE'
_TEXT	ENDS
;	COMDAT ?CountBytes@?$TArray@UFMeshVertConnect@@@@QAEXAAVFArchive@@@Z
_TEXT	SEGMENT PARA USE32 PUBLIC 'CODE'
_TEXT	ENDS
;	COMDAT ?Remove@?$TArray@UFMeshVertConnect@@@@QAEXHH@Z
_TEXT	SEGMENT PARA USE32 PUBLIC 'CODE'
_TEXT	ENDS
;	COMDAT ?Remove@?$TArray@VTPair@?$TMapBase@VFName@@V1@@@@@QAEXHH@Z
_TEXT	SEGMENT PARA USE32 PUBLIC 'CODE'
_TEXT	ENDS
;	COMDAT ?NeedsDestructor@?$TTypeInfoBase@VFPackageInfo@@@@SAHXZ
_TEXT	SEGMENT PARA USE32 PUBLIC 'CODE'
_TEXT	ENDS
;	COMDAT ?NeedsDestructor@?$TTypeInfoBase@UFRepRecord@@@@SAHXZ
_TEXT	SEGMENT PARA USE32 PUBLIC 'CODE'
_TEXT	ENDS
;	COMDAT ?NeedsDestructor@?$TTypeInfoBase@PAVUField@@@@SAHXZ
_TEXT	SEGMENT PARA USE32 PUBLIC 'CODE'
_TEXT	ENDS
;	COMDAT ?NeedsDestructor@?$TTypeInfoBase@VFClassDependency@@@@SAHXZ
_TEXT	SEGMENT PARA USE32 PUBLIC 'CODE'
_TEXT	ENDS
;	COMDAT ?NeedsDestructor@?$TTypeInfoBase@UFObjectImport@@@@SAHXZ
_TEXT	SEGMENT PARA USE32 PUBLIC 'CODE'
_TEXT	ENDS
;	COMDAT ?NeedsDestructor@?$TTypeInfoBase@UFObjectExport@@@@SAHXZ
_TEXT	SEGMENT PARA USE32 PUBLIC 'CODE'
_TEXT	ENDS
;	COMDAT ?NeedsDestructor@?$TTypeInfoBase@PAVFLazyLoader@@@@SAHXZ
_TEXT	SEGMENT PARA USE32 PUBLIC 'CODE'
_TEXT	ENDS
;	COMDAT ?NeedsDestructor@?$TTypeInfoBase@VFPoly@@@@SAHXZ
_TEXT	SEGMENT PARA USE32 PUBLIC 'CODE'
_TEXT	ENDS
;	COMDAT ?NeedsDestructor@?$TTypeInfoBase@VFBspNode@@@@SAHXZ
_TEXT	SEGMENT PARA USE32 PUBLIC 'CODE'
_TEXT	ENDS
;	COMDAT ?NeedsDestructor@?$TTypeInfoBase@VFVert@@@@SAHXZ
_TEXT	SEGMENT PARA USE32 PUBLIC 'CODE'
_TEXT	ENDS
;	COMDAT ?NeedsDestructor@?$TTypeInfoBase@VFVector@@@@SAHXZ
_TEXT	SEGMENT PARA USE32 PUBLIC 'CODE'
_TEXT	ENDS
;	COMDAT ?NeedsDestructor@?$TTypeInfoBase@VFBspSurf@@@@SAHXZ
_TEXT	SEGMENT PARA USE32 PUBLIC 'CODE'
_TEXT	ENDS
;	COMDAT ?NeedsDestructor@?$TTypeInfoBase@VFLightMapIndex@@@@SAHXZ
_TEXT	SEGMENT PARA USE32 PUBLIC 'CODE'
_TEXT	ENDS
;	COMDAT ?NeedsDestructor@?$TTypeInfoBase@VFBox@@@@SAHXZ
_TEXT	SEGMENT PARA USE32 PUBLIC 'CODE'
_TEXT	ENDS
;	COMDAT ?NeedsDestructor@?$TTypeInfoBase@VFLeaf@@@@SAHXZ
_TEXT	SEGMENT PARA USE32 PUBLIC 'CODE'
_TEXT	ENDS
;	COMDAT ?NeedsDestructor@?$TTypeInfoBase@VFColor@@@@SAHXZ
_TEXT	SEGMENT PARA USE32 PUBLIC 'CODE'
_TEXT	ENDS
;	COMDAT ?NeedsDestructor@?$TTypeInfoBase@UFFontCharacter@@@@SAHXZ
_TEXT	SEGMENT PARA USE32 PUBLIC 'CODE'
_TEXT	ENDS
;	COMDAT ?NeedsDestructor@?$TTypeInfoBase@UFFontPage@@@@SAHXZ
_TEXT	SEGMENT PARA USE32 PUBLIC 'CODE'
_TEXT	ENDS
;	COMDAT ?NeedsDestructor@?$TTypeInfoBase@M@@SAHXZ
_TEXT	SEGMENT PARA USE32 PUBLIC 'CODE'
_TEXT	ENDS
;	COMDAT ?NeedsDestructor@?$TTypeInfoBase@UFMeshDecalTri@@@@SAHXZ
_TEXT	SEGMENT PARA USE32 PUBLIC 'CODE'
_TEXT	ENDS
;	COMDAT ?NeedsDestructor@?$TTypeInfoBase@PAVAParticleCollisionActor@@@@SAHXZ
_TEXT	SEGMENT PARA USE32 PUBLIC 'CODE'
_TEXT	ENDS
;	COMDAT ?NeedsDestructor@?$TTypeInfoBase@VFReachSpec@@@@SAHXZ
_TEXT	SEGMENT PARA USE32 PUBLIC 'CODE'
_TEXT	ENDS
;	COMDAT ?NeedsDestructor@?$TTypeInfoBase@PAVUViewport@@@@SAHXZ
_TEXT	SEGMENT PARA USE32 PUBLIC 'CODE'
_TEXT	ENDS
;	COMDAT ?NeedsDestructor@?$TTypeInfoBase@VFMeshAnimNotify@@@@SAHXZ
_TEXT	SEGMENT PARA USE32 PUBLIC 'CODE'
_TEXT	ENDS
;	COMDAT ?NeedsDestructor@?$TTypeInfoBase@UFMeshVert@@@@SAHXZ
_TEXT	SEGMENT PARA USE32 PUBLIC 'CODE'
_TEXT	ENDS
;	COMDAT ?NeedsDestructor@?$TTypeInfoBase@UFMeshTri@@@@SAHXZ
_TEXT	SEGMENT PARA USE32 PUBLIC 'CODE'
_TEXT	ENDS
;	COMDAT ?NeedsDestructor@?$TTypeInfoBase@VFMeshAnimSeq@@@@SAHXZ
_TEXT	SEGMENT PARA USE32 PUBLIC 'CODE'
_TEXT	ENDS
;	COMDAT ?NeedsDestructor@?$TTypeInfoBase@UFMeshVertConnect@@@@SAHXZ
_TEXT	SEGMENT PARA USE32 PUBLIC 'CODE'
_TEXT	ENDS
;	COMDAT ?NeedsDestructor@?$TTypeInfoBase@PAVUTexture@@@@SAHXZ
_TEXT	SEGMENT PARA USE32 PUBLIC 'CODE'
_TEXT	ENDS
;	COMDAT ?NeedsDestructor@?$TTypeInfoBase@UFMeshFace@@@@SAHXZ
_TEXT	SEGMENT PARA USE32 PUBLIC 'CODE'
_TEXT	ENDS
;	COMDAT ?NeedsDestructor@?$TTypeInfoBase@UFMeshWedge@@@@SAHXZ
_TEXT	SEGMENT PARA USE32 PUBLIC 'CODE'
_TEXT	ENDS
;	COMDAT ?NeedsDestructor@?$TTypeInfoBase@UFMeshMaterial@@@@SAHXZ
_TEXT	SEGMENT PARA USE32 PUBLIC 'CODE'
_TEXT	ENDS
;	COMDAT ??_GTPair@?$TMapBase@VFString@@V1@@@QAEPAXI@Z
_TEXT	SEGMENT PARA USE32 PUBLIC 'CODE'
_TEXT	ENDS
;	COMDAT ??_GTPair@?$TMapBase@VFString@@PAVUFont@@@@QAEPAXI@Z
_TEXT	SEGMENT PARA USE32 PUBLIC 'CODE'
_TEXT	ENDS
;	COMDAT ??1TPair@?$TMapBase@VFString@@V1@@@QAE@XZ
_TEXT	SEGMENT PARA USE32 PUBLIC 'CODE'
_TEXT	ENDS
;	COMDAT ??1TPair@?$TMapBase@VFString@@PAVUFont@@@@QAE@XZ
_TEXT	SEGMENT PARA USE32 PUBLIC 'CODE'
_TEXT	ENDS
;	COMDAT ?Remove@?$TArray@VFDecal@@@@QAEXHH@Z
_TEXT	SEGMENT PARA USE32 PUBLIC 'CODE'
_TEXT	ENDS
;	COMDAT ?Remove@?$TArray@UFFontCharacter@@@@QAEXHH@Z
_TEXT	SEGMENT PARA USE32 PUBLIC 'CODE'
_TEXT	ENDS
;	COMDAT ?NeedsDestructor@?$TTypeInfoBase@VTPair@?$TMapBase@PAVUObject@@H@@@@SAHXZ
_TEXT	SEGMENT PARA USE32 PUBLIC 'CODE'
_TEXT	ENDS
;	COMDAT ?NeedsDestructor@?$TTypeInfoBase@VTPair@?$TMapBase@PAVUObject@@PAVFClassNetCache@@@@@@SAHXZ
_TEXT	SEGMENT PARA USE32 PUBLIC 'CODE'
_TEXT	ENDS
;	COMDAT ?NeedsDestructor@?$TTypeInfoBase@VTPair@?$TMapBase@GH@@@@SAHXZ
_TEXT	SEGMENT PARA USE32 PUBLIC 'CODE'
_TEXT	ENDS
;	COMDAT ?NeedsDestructor@?$TTypeInfoBase@VTPair@?$TMapBase@VFString@@V1@@@@@SAHXZ
_TEXT	SEGMENT PARA USE32 PUBLIC 'CODE'
_TEXT	ENDS
;	COMDAT ?NeedsDestructor@?$TTypeInfoBase@VTPair@?$TMapBase@VFName@@PAVAActor@@@@@@SAHXZ
_TEXT	SEGMENT PARA USE32 PUBLIC 'CODE'
_TEXT	ENDS
;	COMDAT ?NeedsDestructor@?$TTypeInfoBase@VTPair@?$TMapBase@VFString@@PAVUFont@@@@@@SAHXZ
_TEXT	SEGMENT PARA USE32 PUBLIC 'CODE'
_TEXT	ENDS
;	COMDAT ?NeedsDestructor@?$TTypeInfoBase@VTPair@?$TMapBase@VFName@@V1@@@@@SAHXZ
_TEXT	SEGMENT PARA USE32 PUBLIC 'CODE'
_TEXT	ENDS
;	COMDAT ??_GFDecal@@QAEPAXI@Z
_TEXT	SEGMENT PARA USE32 PUBLIC 'CODE'
_TEXT	ENDS
;	COMDAT ??1FDecal@@QAE@XZ
_TEXT	SEGMENT PARA USE32 PUBLIC 'CODE'
_TEXT	ENDS
;	COMDAT ??R?$TArray@VFDecal@@@@QAEAAVFDecal@@H@Z
_TEXT	SEGMENT PARA USE32 PUBLIC 'CODE'
_TEXT	ENDS
;	COMDAT ?NeedsDestructor@?$TTypeInfoBase@VFDecal@@@@SAHXZ
_TEXT	SEGMENT PARA USE32 PUBLIC 'CODE'
_TEXT	ENDS
;	COMDAT ?Clamp@@YAHHHH@Z
_TEXT	SEGMENT PARA USE32 PUBLIC 'CODE'
_TEXT	ENDS
;	COMDAT ?Clamp@@YAKKKK@Z
_TEXT	SEGMENT PARA USE32 PUBLIC 'CODE'
_TEXT	ENDS
;	COMDAT ??2@YAPAXIAAV?$TArray@VFClassDependency@@@@@Z
_TEXT	SEGMENT PARA USE32 PUBLIC 'CODE'
_TEXT	ENDS
;	COMDAT ??2@YAPAXIAAV?$TArray@UFGenerationInfo@@@@@Z
_TEXT	SEGMENT PARA USE32 PUBLIC 'CODE'
_TEXT	ENDS
;	COMDAT ?Align@@YAPAEQAEH@Z
_TEXT	SEGMENT PARA USE32 PUBLIC 'CODE'
_TEXT	ENDS
;	COMDAT ?Abs@@YAMM@Z
_TEXT	SEGMENT PARA USE32 PUBLIC 'CODE'
_TEXT	ENDS
;	COMDAT ?Clamp@@YAMMMM@Z
_TEXT	SEGMENT PARA USE32 PUBLIC 'CODE'
_TEXT	ENDS
;	COMDAT ?Abs@@YANN@Z
_TEXT	SEGMENT PARA USE32 PUBLIC 'CODE'
_TEXT	ENDS
;	COMDAT ?Clamp@@YANNNN@Z
_TEXT	SEGMENT PARA USE32 PUBLIC 'CODE'
_TEXT	ENDS
;	COMDAT ?Sgn@@YAMM@Z
_TEXT	SEGMENT PARA USE32 PUBLIC 'CODE'
_TEXT	ENDS
;	COMDAT ?Max@@YAMMM@Z
_TEXT	SEGMENT PARA USE32 PUBLIC 'CODE'
_TEXT	ENDS
;	COMDAT ?Min@@YAMMM@Z
_TEXT	SEGMENT PARA USE32 PUBLIC 'CODE'
_TEXT	ENDS
;	COMDAT ?Square@@YAMM@Z
_TEXT	SEGMENT PARA USE32 PUBLIC 'CODE'
_TEXT	ENDS
;	COMDAT ?Square@@YANN@Z
_TEXT	SEGMENT PARA USE32 PUBLIC 'CODE'
_TEXT	ENDS
;	COMDAT ?Abs@@YAHH@Z
_TEXT	SEGMENT PARA USE32 PUBLIC 'CODE'
_TEXT	ENDS
;	COMDAT ?Min@@YAHHH@Z
_TEXT	SEGMENT PARA USE32 PUBLIC 'CODE'
_TEXT	ENDS
;	COMDAT ?FindObjectChecked@@YAPAVUClass@@PAVUObject@@PBGH@Z
_TEXT	SEGMENT PARA USE32 PUBLIC 'CODE'
_TEXT	ENDS
;	COMDAT ??2@YAPAXIAAV?$TArray@VFColor@@@@@Z
_TEXT	SEGMENT PARA USE32 PUBLIC 'CODE'
_TEXT	ENDS
;	COMDAT ??2@YAPAXIAAV?$TArray@E@@@Z
_TEXT	SEGMENT PARA USE32 PUBLIC 'CODE'
_TEXT	ENDS
;	COMDAT ??2@YAPAXIAAV?$TArray@UFMipmap@@@@@Z
_TEXT	SEGMENT PARA USE32 PUBLIC 'CODE'
_TEXT	ENDS
;	COMDAT ??2@YAPAXIAAV?$TArray@UFFontCharacter@@@@@Z
_TEXT	SEGMENT PARA USE32 PUBLIC 'CODE'
_TEXT	ENDS
;	COMDAT ??2@YAPAXIAAV?$TArray@VFMeshAnimNotify@@@@@Z
_TEXT	SEGMENT PARA USE32 PUBLIC 'CODE'
_TEXT	ENDS
;	COMDAT ??2@YAPAXIAAV?$TArray@VFSpark@@@@@Z
_TEXT	SEGMENT PARA USE32 PUBLIC 'CODE'
_TEXT	ENDS
;	COMDAT ??2@YAPAXIAAV?$TArray@H@@@Z
_TEXT	SEGMENT PARA USE32 PUBLIC 'CODE'
_TEXT	ENDS
;	COMDAT ??2@YAPAXIAAV?$TArray@VFPoly@@@@@Z
_TEXT	SEGMENT PARA USE32 PUBLIC 'CODE'
_TEXT	ENDS
;	COMDAT ??2@YAPAXIAAV?$TArray@UFMeshVert@@@@@Z
_TEXT	SEGMENT PARA USE32 PUBLIC 'CODE'
_TEXT	ENDS
;	COMDAT ??2@YAPAXIAAV?$TArray@UFMeshTri@@@@@Z
_TEXT	SEGMENT PARA USE32 PUBLIC 'CODE'
_TEXT	ENDS
;	COMDAT ??2@YAPAXIAAV?$TArray@UFMeshVertConnect@@@@@Z
_TEXT	SEGMENT PARA USE32 PUBLIC 'CODE'
_TEXT	ENDS
;	COMDAT ??_SULevel@@6BUObject@@@
CONST	SEGMENT DWORD USE32 PUBLIC 'CONST'
CONST	ENDS
;	COMDAT ??_SAInternetLink@@6B@
CONST	SEGMENT DWORD USE32 PUBLIC 'CONST'
CONST	ENDS
;	COMDAT ??_SALight@@6B@
CONST	SEGMENT DWORD USE32 PUBLIC 'CONST'
CONST	ENDS
;	COMDAT ??_SUCanvas@@6B@
CONST	SEGMENT DWORD USE32 PUBLIC 'CONST'
CONST	ENDS
;	COMDAT ??_7ULinkerLoad@@6BULinker@@@
CONST	SEGMENT DWORD USE32 PUBLIC 'CONST'
CONST	ENDS
;	COMDAT ??_SAInventory@@6B@
CONST	SEGMENT DWORD USE32 PUBLIC 'CONST'
CONST	ENDS
;	COMDAT ??_7ULinkerSave@@6BULinker@@@
CONST	SEGMENT DWORD USE32 PUBLIC 'CONST'
CONST	ENDS
;	COMDAT ??_SAPolyMarker@@6B@
CONST	SEGMENT DWORD USE32 PUBLIC 'CONST'
CONST	ENDS
;	COMDAT ??_SAlocationid@@6B@
CONST	SEGMENT DWORD USE32 PUBLIC 'CONST'
CONST	ENDS
;	COMDAT ??_SARenderActor@@6B@
CONST	SEGMENT DWORD USE32 PUBLIC 'CONST'
CONST	ENDS
;	COMDAT ??_R0PAX@8
_DATA	SEGMENT DWORD USE32 PUBLIC 'DATA'
_DATA	ENDS
;	COMDAT ??_SAInfoActor@@6B@
CONST	SEGMENT DWORD USE32 PUBLIC 'CONST'
CONST	ENDS
;	COMDAT ??_7?$TLazyArray@E@@6B@
CONST	SEGMENT DWORD USE32 PUBLIC 'CONST'
CONST	ENDS
;	COMDAT ??_SUObjectProperty@@6B@
CONST	SEGMENT DWORD USE32 PUBLIC 'CONST'
CONST	ENDS
;	COMDAT ??_SUState@@6B@
CONST	SEGMENT DWORD USE32 PUBLIC 'CONST'
CONST	ENDS
;	COMDAT ?Half@?1??appFloor@@YAHM@Z@4MA
_DATA	SEGMENT DWORD USE32 PUBLIC 'DATA'
_DATA	ENDS
;	COMDAT __CT??_R0PAX@84
xdata$x	SEGMENT DWORD USE32 PUBLIC 'CONST'
xdata$x	ENDS
;	COMDAT ??_SASpawnNotify@@6B@
CONST	SEGMENT DWORD USE32 PUBLIC 'CONST'
CONST	ENDS
;	COMDAT ??_SUMeshInstance@@6B@
CONST	SEGMENT DWORD USE32 PUBLIC 'CONST'
CONST	ENDS
;	COMDAT ??_SAActorDamageEffect@@6B@
CONST	SEGMENT DWORD USE32 PUBLIC 'CONST'
CONST	ENDS
;	COMDAT ??_7FMovingBrushTrackerBase@@6B@
CONST	SEGMENT DWORD USE32 PUBLIC 'CONST'
CONST	ENDS
;	COMDAT ??_SATcpLink@@6B@
CONST	SEGMENT DWORD USE32 PUBLIC 'CONST'
CONST	ENDS
;	COMDAT ??_SAPawn@@6B@
CONST	SEGMENT DWORD USE32 PUBLIC 'CONST'
CONST	ENDS
;	COMDAT ??_SUUnrealLodMesh@@6B@
CONST	SEGMENT DWORD USE32 PUBLIC 'CONST'
CONST	ENDS
;	COMDAT ??_SAMutator@@6B@
CONST	SEGMENT DWORD USE32 PUBLIC 'CONST'
CONST	ENDS
;	COMDAT ??_SAMapLocations@@6B@
CONST	SEGMENT DWORD USE32 PUBLIC 'CONST'
CONST	ENDS
;	COMDAT ??_7UFireTexture@@6B@
CONST	SEGMENT DWORD USE32 PUBLIC 'CONST'
CONST	ENDS
;	COMDAT ??_SABrush@@6B@
CONST	SEGMENT DWORD USE32 PUBLIC 'CONST'
CONST	ENDS
;	COMDAT ??_SUSystem@@6BUObject@@@
CONST	SEGMENT DWORD USE32 PUBLIC 'CONST'
CONST	ENDS
;	COMDAT ??_SAClipMarker@@6B@
CONST	SEGMENT DWORD USE32 PUBLIC 'CONST'
CONST	ENDS
;	COMDAT ??_SUPrimitive@@6B@
CONST	SEGMENT DWORD USE32 PUBLIC 'CONST'
CONST	ENDS
;	COMDAT ??_SAPlayerPawn@@6B@
CONST	SEGMENT DWORD USE32 PUBLIC 'CONST'
CONST	ENDS
;	COMDAT ??_SAPlayerStart@@6B@
CONST	SEGMENT DWORD USE32 PUBLIC 'CONST'
CONST	ENDS
;	COMDAT ??_7UWaveTexture@@6B@
CONST	SEGMENT DWORD USE32 PUBLIC 'CONST'
CONST	ENDS
;	COMDAT ??_SAWeapon@@6B@
CONST	SEGMENT DWORD USE32 PUBLIC 'CONST'
CONST	ENDS
;	COMDAT ??_SABreakableGlass@@6B@
CONST	SEGMENT DWORD USE32 PUBLIC 'CONST'
CONST	ENDS
;	COMDAT ??_SAPathNode@@6B@
CONST	SEGMENT DWORD USE32 PUBLIC 'CONST'
CONST	ENDS
;	COMDAT ??_SAMover@@6B@
CONST	SEGMENT DWORD USE32 PUBLIC 'CONST'
CONST	ENDS
;	COMDAT ??_SABoneRope@@6B@
CONST	SEGMENT DWORD USE32 PUBLIC 'CONST'
CONST	ENDS
;	COMDAT __CT??_R0PAG@84
xdata$x	SEGMENT DWORD USE32 PUBLIC 'CONST'
xdata$x	ENDS
;	COMDAT ??_SAActor@@6B@
CONST	SEGMENT DWORD USE32 PUBLIC 'CONST'
CONST	ENDS
;	COMDAT ??_SULevelSummary@@6B@
CONST	SEGMENT DWORD USE32 PUBLIC 'CONST'
CONST	ENDS
;	COMDAT ??_7FStringOutputDevice@@6B@
CONST	SEGMENT DWORD USE32 PUBLIC 'CONST'
CONST	ENDS
;	COMDAT ??_SUEnum@@6B@
CONST	SEGMENT DWORD USE32 PUBLIC 'CONST'
CONST	ENDS
;	COMDAT ??_7ULinkerSave@@6BFArchive@@@
CONST	SEGMENT DWORD USE32 PUBLIC 'CONST'
CONST	ENDS
;	COMDAT ??_R0PAG@8
_DATA	SEGMENT DWORD USE32 PUBLIC 'DATA'
_DATA	ENDS
;	COMDAT ??_SACarcass@@6B@
CONST	SEGMENT DWORD USE32 PUBLIC 'CONST'
CONST	ENDS
;	COMDAT ??_SAUdpLink@@6B@
CONST	SEGMENT DWORD USE32 PUBLIC 'CONST'
CONST	ENDS
;	COMDAT ??_SASavedMove@@6B@
CONST	SEGMENT DWORD USE32 PUBLIC 'CONST'
CONST	ENDS
;	COMDAT ??_SUStrProperty@@6B@
CONST	SEGMENT DWORD USE32 PUBLIC 'CONST'
CONST	ENDS
;	COMDAT ??_SADecal@@6B@
CONST	SEGMENT DWORD USE32 PUBLIC 'CONST'
CONST	ENDS
;	COMDAT ??_SANavigationPoint@@6B@
CONST	SEGMENT DWORD USE32 PUBLIC 'CONST'
CONST	ENDS
;	COMDAT ??_SUSound@@6B@
CONST	SEGMENT DWORD USE32 PUBLIC 'CONST'
CONST	ENDS
;	COMDAT ??_SUPackageMap@@6B@
CONST	SEGMENT DWORD USE32 PUBLIC 'CONST'
CONST	ENDS
;	COMDAT ??_SUStructProperty@@6B@
CONST	SEGMENT DWORD USE32 PUBLIC 'CONST'
CONST	ENDS
;	COMDAT ??_SUFunction@@6B@
CONST	SEGMENT DWORD USE32 PUBLIC 'CONST'
CONST	ENDS
;	COMDAT ??_SUMesh@@6B@
CONST	SEGMENT DWORD USE32 PUBLIC 'CONST'
CONST	ENDS
;	COMDAT ??_SAZoneInfo@@6B@
CONST	SEGMENT DWORD USE32 PUBLIC 'CONST'
CONST	ENDS
;	COMDAT ??_SAButtonMarker@@6B@
CONST	SEGMENT DWORD USE32 PUBLIC 'CONST'
CONST	ENDS
;	COMDAT ??_7FBufferArchive@@6B@
CONST	SEGMENT DWORD USE32 PUBLIC 'CONST'
CONST	ENDS
;	COMDAT ??_SAGameInfo@@6B@
CONST	SEGMENT DWORD USE32 PUBLIC 'CONST'
CONST	ENDS
;	COMDAT ??_SATriggers@@6B@
CONST	SEGMENT DWORD USE32 PUBLIC 'CONST'
CONST	ENDS
;	COMDAT ??_7?$TLazyArray@UFMeshTri@@@@6B@
CONST	SEGMENT DWORD USE32 PUBLIC 'CONST'
CONST	ENDS
;	COMDAT ??_SAPlayerReplicationInfo@@6B@
CONST	SEGMENT DWORD USE32 PUBLIC 'CONST'
CONST	ENDS
;	COMDAT ??_SUFontTrueType@@6B@
CONST	SEGMENT DWORD USE32 PUBLIC 'CONST'
CONST	ENDS
;	COMDAT ??_SASoftParticleAffector@@6B@
CONST	SEGMENT DWORD USE32 PUBLIC 'CONST'
CONST	ENDS
;	COMDAT ??_SUObject@@6B@
CONST	SEGMENT DWORD USE32 PUBLIC 'CONST'
CONST	ENDS
;	COMDAT ??_SUClassProperty@@6B@
CONST	SEGMENT DWORD USE32 PUBLIC 'CONST'
CONST	ENDS
;	COMDAT ??_SABeamSystem@@6B@
CONST	SEGMENT DWORD USE32 PUBLIC 'CONST'
CONST	ENDS
;	COMDAT ??_SUInput@@6BUObject@@@
CONST	SEGMENT DWORD USE32 PUBLIC 'CONST'
CONST	ENDS
;	COMDAT ??_7?$TLazyArray@H@@6B@
CONST	SEGMENT DWORD USE32 PUBLIC 'CONST'
CONST	ENDS
;	COMDAT ??_SUDukeMesh@@6B@
CONST	SEGMENT DWORD USE32 PUBLIC 'CONST'
CONST	ENDS
;	COMDAT ??_SAInfo@@6B@
CONST	SEGMENT DWORD USE32 PUBLIC 'CONST'
CONST	ENDS
;	COMDAT ??_SAParticleSystem@@6B@
CONST	SEGMENT DWORD USE32 PUBLIC 'CONST'
CONST	ENDS
;	COMDAT ??_SATeleporter@@6B@
CONST	SEGMENT DWORD USE32 PUBLIC 'CONST'
CONST	ENDS
;	COMDAT ??_SAMeshEffect@@6B@
CONST	SEGMENT DWORD USE32 PUBLIC 'CONST'
CONST	ENDS
;	COMDAT ??_SAFocalPoint@@6B@
CONST	SEGMENT DWORD USE32 PUBLIC 'CONST'
CONST	ENDS
;	COMDAT ??_SAScout@@6B@
CONST	SEGMENT DWORD USE32 PUBLIC 'CONST'
CONST	ENDS
;	COMDAT ??_SAInterpolationStation@@6B@
CONST	SEGMENT DWORD USE32 PUBLIC 'CONST'
CONST	ENDS
;	COMDAT ??_7?$TLazyArray@UFMeshVert@@@@6B@
CONST	SEGMENT DWORD USE32 PUBLIC 'CONST'
CONST	ENDS
;	COMDAT ??_SASkyZoneInfo@@6B@
CONST	SEGMENT DWORD USE32 PUBLIC 'CONST'
CONST	ENDS
;	COMDAT ??_SUFloatProperty@@6B@
CONST	SEGMENT DWORD USE32 PUBLIC 'CONST'
CONST	ENDS
;	COMDAT ??_SUConst@@6B@
CONST	SEGMENT DWORD USE32 PUBLIC 'CONST'
CONST	ENDS
;	COMDAT ??_SUGameEngine@@6BUObject@@@
CONST	SEGMENT DWORD USE32 PUBLIC 'CONST'
CONST	ENDS
;	COMDAT ??_7HActorVertex@@6B@
CONST	SEGMENT DWORD USE32 PUBLIC 'CONST'
CONST	ENDS
;	COMDAT ??_SUNameProperty@@6B@
CONST	SEGMENT DWORD USE32 PUBLIC 'CONST'
CONST	ENDS
;	COMDAT ??_SAParticleCollisionActor@@6B@
CONST	SEGMENT DWORD USE32 PUBLIC 'CONST'
CONST	ENDS
;	COMDAT ??_SAKeypoint@@6B@
CONST	SEGMENT DWORD USE32 PUBLIC 'CONST'
CONST	ENDS
;	COMDAT ??_SUPackage@@6B@
CONST	SEGMENT DWORD USE32 PUBLIC 'CONST'
CONST	ENDS
;	COMDAT ??_SAItem@@6B@
CONST	SEGMENT DWORD USE32 PUBLIC 'CONST'
CONST	ENDS
;	COMDAT ??_SUPalette@@6B@
CONST	SEGMENT DWORD USE32 PUBLIC 'CONST'
CONST	ENDS
;	COMDAT ??_7FLazyLoader@@6B@
CONST	SEGMENT DWORD USE32 PUBLIC 'CONST'
CONST	ENDS
;	COMDAT ??_7UFractalTexture@@6B@
CONST	SEGMENT DWORD USE32 PUBLIC 'CONST'
CONST	ENDS
;	COMDAT ??_SUMusic@@6B@
CONST	SEGMENT DWORD USE32 PUBLIC 'CONST'
CONST	ENDS
;	COMDAT ??_SAHUD@@6B@
CONST	SEGMENT DWORD USE32 PUBLIC 'CONST'
CONST	ENDS
;	COMDAT ??_SUCommandlet@@6B@
CONST	SEGMENT DWORD USE32 PUBLIC 'CONST'
CONST	ENDS
;	COMDAT ??_SAWarpZoneMarker@@6B@
CONST	SEGMENT DWORD USE32 PUBLIC 'CONST'
CONST	ENDS
;	COMDAT ??_SATriggerMarker@@6B@
CONST	SEGMENT DWORD USE32 PUBLIC 'CONST'
CONST	ENDS
;	COMDAT ??_7FBufferWriter@@6B@
CONST	SEGMENT DWORD USE32 PUBLIC 'CONST'
CONST	ENDS
;	COMDAT ??_SUBoolProperty@@6B@
CONST	SEGMENT DWORD USE32 PUBLIC 'CONST'
CONST	ENDS
;	COMDAT ??_SADecoration@@6B@
CONST	SEGMENT DWORD USE32 PUBLIC 'CONST'
CONST	ENDS
;	COMDAT ??_SAInterpolationPoint@@6B@
CONST	SEGMENT DWORD USE32 PUBLIC 'CONST'
CONST	ENDS
;	COMDAT ??_SADamageType@@6B@
CONST	SEGMENT DWORD USE32 PUBLIC 'CONST'
CONST	ENDS
;	COMDAT ??_SUFont@@6B@
CONST	SEGMENT DWORD USE32 PUBLIC 'CONST'
CONST	ENDS
;	COMDAT ??_SAMaterial@@6B@
CONST	SEGMENT DWORD USE32 PUBLIC 'CONST'
CONST	ENDS
;	COMDAT ??_SUPolys@@6B@
CONST	SEGMENT DWORD USE32 PUBLIC 'CONST'
CONST	ENDS
;	COMDAT ??_SUUnrealMesh@@6B@
CONST	SEGMENT DWORD USE32 PUBLIC 'CONST'
CONST	ENDS
;	COMDAT ??_7FConfigCache@@6B@
CONST	SEGMENT DWORD USE32 PUBLIC 'CONST'
CONST	ENDS
;	COMDAT ??_SAReplicationInfo@@6B@
CONST	SEGMENT DWORD USE32 PUBLIC 'CONST'
CONST	ENDS
;	COMDAT ??_SUFixedArrayProperty@@6B@
CONST	SEGMENT DWORD USE32 PUBLIC 'CONST'
CONST	ENDS
;	COMDAT ??_7UIceTexture@@6B@
CONST	SEGMENT DWORD USE32 PUBLIC 'CONST'
CONST	ENDS
;	COMDAT ??_7UWaterTexture@@6B@
CONST	SEGMENT DWORD USE32 PUBLIC 'CONST'
CONST	ENDS
;	COMDAT ??_SADOTAffector@@6B@
CONST	SEGMENT DWORD USE32 PUBLIC 'CONST'
CONST	ENDS
;	COMDAT ??_SADoorMover@@6B@
CONST	SEGMENT DWORD USE32 PUBLIC 'CONST'
CONST	ENDS
;	COMDAT ??_SAFlareLight@@6B@
CONST	SEGMENT DWORD USE32 PUBLIC 'CONST'
CONST	ENDS
;	COMDAT ??_7ULinkerLoad@@6BFArchive@@@
CONST	SEGMENT DWORD USE32 PUBLIC 'CONST'
CONST	ENDS
;	COMDAT ??_SATrigger@@6B@
CONST	SEGMENT DWORD USE32 PUBLIC 'CONST'
CONST	ENDS
;	COMDAT ??_SUArrayProperty@@6B@
CONST	SEGMENT DWORD USE32 PUBLIC 'CONST'
CONST	ENDS
;	COMDAT ??_SUVoiceSound@@6B@
CONST	SEGMENT DWORD USE32 PUBLIC 'CONST'
CONST	ENDS
;	COMDAT ??_SAGameReplicationInfo@@6B@
CONST	SEGMENT DWORD USE32 PUBLIC 'CONST'
CONST	ENDS
;	COMDAT ??_SAMeshDecal@@6B@
CONST	SEGMENT DWORD USE32 PUBLIC 'CONST'
CONST	ENDS
;	COMDAT ??_SATriggerLight@@6B@
CONST	SEGMENT DWORD USE32 PUBLIC 'CONST'
CONST	ENDS
;	COMDAT ??_7FCollisionHashBase@@6B@
CONST	SEGMENT DWORD USE32 PUBLIC 'CONST'
CONST	ENDS
;	COMDAT ??_7UWetTexture@@6B@
CONST	SEGMENT DWORD USE32 PUBLIC 'CONST'
CONST	ENDS
;	COMDAT ??_7?$TLazyArray@UFMeshVertConnect@@@@6B@
CONST	SEGMENT DWORD USE32 PUBLIC 'CONST'
CONST	ENDS
;	COMDAT ??_SUIntProperty@@6B@
CONST	SEGMENT DWORD USE32 PUBLIC 'CONST'
CONST	ENDS
;	COMDAT ??_SUStruct@@6B@
CONST	SEGMENT DWORD USE32 PUBLIC 'CONST'
CONST	ENDS
;	COMDAT ??_SULinker@@6B@
CONST	SEGMENT DWORD USE32 PUBLIC 'CONST'
CONST	ENDS
;	COMDAT ??_SADukeNet@@6B@
CONST	SEGMENT DWORD USE32 PUBLIC 'CONST'
CONST	ENDS
;	COMDAT ??_SASoftParticleSystem@@6B@
CONST	SEGMENT DWORD USE32 PUBLIC 'CONST'
CONST	ENDS
;	COMDAT ??_SAWarpZoneInfo@@6B@
CONST	SEGMENT DWORD USE32 PUBLIC 'CONST'
CONST	ENDS
;	COMDAT ??_SUTexture@@6B@
CONST	SEGMENT DWORD USE32 PUBLIC 'CONST'
CONST	ENDS
;	COMDAT ??_SAInventorySpot@@6B@
CONST	SEGMENT DWORD USE32 PUBLIC 'CONST'
CONST	ENDS
;	COMDAT ??_SUModel@@6B@
CONST	SEGMENT DWORD USE32 PUBLIC 'CONST'
CONST	ENDS
;	COMDAT ??_SUByteProperty@@6B@
CONST	SEGMENT DWORD USE32 PUBLIC 'CONST'
CONST	ENDS
;	COMDAT ??_SALiftCenter@@6B@
CONST	SEGMENT DWORD USE32 PUBLIC 'CONST'
CONST	ENDS
;	COMDAT __CTA2PAG
xdata$x	SEGMENT DWORD USE32 PUBLIC 'CONST'
xdata$x	ENDS
;	COMDAT ??_SUScriptedTexture@@6B@
CONST	SEGMENT DWORD USE32 PUBLIC 'CONST'
CONST	ENDS
;	COMDAT ??_SURenderIterator@@6B@
CONST	SEGMENT DWORD USE32 PUBLIC 'CONST'
CONST	ENDS
;	COMDAT ??_SUMapProperty@@6B@
CONST	SEGMENT DWORD USE32 PUBLIC 'CONST'
CONST	ENDS
;	COMDAT ??_SALevelInfo@@6B@
CONST	SEGMENT DWORD USE32 PUBLIC 'CONST'
CONST	ENDS
;	COMDAT __TI2PAG
xdata$x	SEGMENT DWORD USE32 PUBLIC 'CONST'
xdata$x	ENDS
;	COMDAT ??_SUTextBuffer@@6BUObject@@@
CONST	SEGMENT DWORD USE32 PUBLIC 'CONST'
CONST	ENDS
;	COMDAT ??_SACamera@@6B@
CONST	SEGMENT DWORD USE32 PUBLIC 'CONST'
CONST	ENDS
;	COMDAT ??_SALiftExit@@6B@
CONST	SEGMENT DWORD USE32 PUBLIC 'CONST'
CONST	ENDS
;	COMDAT ??_SAProjectile@@6B@
CONST	SEGMENT DWORD USE32 PUBLIC 'CONST'
CONST	ENDS
;	COMDAT ??_SUClass@@6B@
CONST	SEGMENT DWORD USE32 PUBLIC 'CONST'
CONST	ENDS
;	COMDAT ??_SAInternetInfo@@6B@
CONST	SEGMENT DWORD USE32 PUBLIC 'CONST'
CONST	ENDS
FLAT	GROUP _DATA, CONST, _BSS, CRT$XCA, CRT$XCU, CRT$XCL, CRT$XCC, CRT$XCZ, xdata$x
	ASSUME	CS: FLAT, DS: FLAT, SS: FLAT
endif

INCLUDELIB MSVCRT
INCLUDELIB OLDNAMES

PUBLIC	_autoclassUWaterTexture
PUBLIC	_GPackage
PUBLIC	_autoclassUWaveTexture
PUBLIC	?PrivateStaticClass@UWaterTexture@@0VUClass@@A	; UWaterTexture::PrivateStaticClass
PUBLIC	_autoclassUWetTexture
PUBLIC	?PrivateStaticClass@UWaveTexture@@0VUClass@@A	; UWaveTexture::PrivateStaticClass
PUBLIC	_hInstance
PUBLIC	?PrivateStaticClass@UWetTexture@@0VUClass@@A	; UWetTexture::PrivateStaticClass
PUBLIC	_autoclassUIceTexture
PUBLIC	?PrivateStaticClass@UIceTexture@@0VUClass@@A	; UIceTexture::PrivateStaticClass
PUBLIC	_SpeedRindex
PUBLIC	_StaleRindex
PUBLIC	_SpeedRandArr
PUBLIC	_PhaseTable
PUBLIC	_SignedPhaseTable
PUBLIC	_LightPhaseTable
PUBLIC	_autoclassUFractalTexture
PUBLIC	_LTimeTotal1
PUBLIC	_LTimeTotal2
PUBLIC	_LinePixels
PUBLIC	?TotalTime0@@3_JA				; TotalTime0
PUBLIC	?TotalTime1@@3_JA				; TotalTime1
PUBLIC	?TotalTime2@@3_JA				; TotalTime2
PUBLIC	?TotalTime3@@3_JA				; TotalTime3
PUBLIC	?TotalTime4@@3_JA				; TotalTime4
PUBLIC	?TotalPixels@@3_JA				; TotalPixels
PUBLIC	?TotalFrames@@3HA				; TotalFrames
PUBLIC	?PrivateStaticClass@UFractalTexture@@0VUClass@@A ; UFractalTexture::PrivateStaticClass
PUBLIC	_autoclassUFireTexture
PUBLIC	?PrivateStaticClass@UFireTexture@@0VUClass@@A	; UFireTexture::PrivateStaticClass
_BSS	SEGMENT
?LastMouseX@?1??WaterPaint@UWaterTexture@@AAEXHHK@Z@4HA DD 01H DUP (?) ; LastMouseX
?LastMouseY@?1??WaterPaint@UWaterTexture@@AAEXHHK@Z@4HA DD 01H DUP (?) ; LastMouseY
?LastLeftButton@?1??WaterPaint@UWaterTexture@@AAEXHHK@Z@4HA DD 01H DUP (?) ; LastLeftButton
?LastRightButton@?1??WaterPaint@UWaterTexture@@AAEXHHK@Z@4HA DD 01H DUP (?) ; LastRightButton
_autoclassUWaterTexture DD 01H DUP (?)
_autoclassUWaveTexture DD 01H DUP (?)
?PrivateStaticClass@UWaterTexture@@0VUClass@@A DB 0528H DUP (?) ; UWaterTexture::PrivateStaticClass
_autoclassUWetTexture DD 01H DUP (?)
?PrivateStaticClass@UWaveTexture@@0VUClass@@A DB 0528H DUP (?) ; UWaveTexture::PrivateStaticClass
_hInstance DD	01H DUP (?)
?PrivateStaticClass@UWetTexture@@0VUClass@@A DB 0528H DUP (?) ; UWetTexture::PrivateStaticClass
?MouseLastU@?1??MousePosition@UIceTexture@@UAEXKMM@Z@4MA DD 01H DUP (?) ; MouseLastU
?MouseLastV@?1??MousePosition@UIceTexture@@UAEXKMM@Z@4MA DD 01H DUP (?) ; MouseLastV
_autoclassUIceTexture DD 01H DUP (?)
?PrivateStaticClass@UIceTexture@@0VUClass@@A DB 0528H DUP (?) ; UIceTexture::PrivateStaticClass
_SpeedRindex DD	01H DUP (?)
_StaleRindex DD	01H DUP (?)
_SpeedRandArr DB 0200H DUP (?)
_PhaseTable DB	0100H DUP (?)
_SignedPhaseTable DB 0100H DUP (?)
_LightPhaseTable DB 0100H DUP (?)
?Initialized@?1??InitTables@@YAXXZ@4HA DD 01H DUP (?)	; Initialized
_autoclassUFractalTexture DD 01H DUP (?)
?LightPinX@?1??AddSpark@UFireTexture@@AAEXHH@Z@4HA DD 01H DUP (?) ; LightPinX
_LTimeTotal1 DQ	01H DUP (?)
?LightPinY@?1??AddSpark@UFireTexture@@AAEXHH@Z@4HA DD 01H DUP (?) ; LightPinY
	ALIGN	8

_LTimeTotal2 DQ	01H DUP (?)
_LinePixels DQ	01H DUP (?)
?TotalTime0@@3_JA DQ 01H DUP (?)			; TotalTime0
?TotalTime1@@3_JA DQ 01H DUP (?)			; TotalTime1
?TotalTime2@@3_JA DQ 01H DUP (?)			; TotalTime2
?TotalTime3@@3_JA DQ 01H DUP (?)			; TotalTime3
?TotalTime4@@3_JA DQ 01H DUP (?)			; TotalTime4
?TotalPixels@@3_JA DQ 01H DUP (?)			; TotalPixels
?TotalFrames@@3HA DD 01H DUP (?)			; TotalFrames
?PrivateStaticClass@UFractalTexture@@0VUClass@@A DB 0528H DUP (?) ; UFractalTexture::PrivateStaticClass
?LastMouseX@?1??FirePaint@UFireTexture@@AAEXHHK@Z@4HA DD 01H DUP (?) ; LastMouseX
?LastMouseY@?1??FirePaint@UFireTexture@@AAEXHHK@Z@4HA DD 01H DUP (?) ; LastMouseY
?LastLeftButton@?1??FirePaint@UFireTexture@@AAEXHHK@Z@4HA DD 01H DUP (?) ; LastLeftButton
?LastRightButton@?1??FirePaint@UFireTexture@@AAEXHHK@Z@4HA DD 01H DUP (?) ; LastRightButton
_autoclassUFireTexture DD 01H DUP (?)
?PrivateStaticClass@UFireTexture@@0VUClass@@A DB 0528H DUP (?) ; UFireTexture::PrivateStaticClass
_BSS	ENDS
_DATA	SEGMENT
_GPackage DB	'F', 00H, 'i', 00H, 'r', 00H, 'e', 00H, 00H, 00H
_DATA	ENDS
CRT$XCU	SEGMENT
_$S189	DD	FLAT:_$E188
_$S192	DD	FLAT:_$E191
_$S198	DD	FLAT:_$E197
_$S201	DD	FLAT:_$E200
_$S207	DD	FLAT:_$E206
_$S210	DD	FLAT:_$E209
_$S216	DD	FLAT:_$E215
_$S219	DD	FLAT:_$E218
_$S225	DD	FLAT:_$E224
_$S228	DD	FLAT:_$E227
_$S234	DD	FLAT:_$E233
_$S237	DD	FLAT:_$E236
CRT$XCU	ENDS
PUBLIC	_DllMain@12
; Function compile flags: /Ogty
; File C:\duke4\Fire\Src\UnFractal.cpp
;	COMDAT _DllMain@12
_TEXT	SEGMENT
_hInInstance$ = 8
_DllMain@12 PROC NEAR					; COMDAT

; 89   : IMPLEMENT_PACKAGE(Fire);

  00000	8b 44 24 04	 mov	 eax, DWORD PTR _hInInstance$[esp-4]
  00004	a3 00 00 00 00	 mov	 DWORD PTR _hInstance, eax
  00009	b8 01 00 00 00	 mov	 eax, 1
  0000e	c2 0c 00	 ret	 12			; 0000000cH
_DllMain@12 ENDP
_TEXT	ENDS
PUBLIC	?FakeAtan@@YANN@Z				; FakeAtan
PUBLIC	__real@00000000
PUBLIC	__real@3ff921cac0000000
PUBLIC	__real@3ff0000000000000
EXTRN	__fltused:NEAR
;	COMDAT __real@00000000
; File ..\..\Core\Inc\UnTemplate.h
CONST	SEGMENT
__real@00000000 DD 000000000r			; 0
CONST	ENDS
;	COMDAT __real@3ff921cac0000000
CONST	SEGMENT
__real@3ff921cac0000000 DQ 03ff921cac0000000r	; 1.57075
CONST	ENDS
;	COMDAT __real@3ff0000000000000
CONST	SEGMENT
__real@3ff0000000000000 DQ 03ff0000000000000r	; 1
; Function compile flags: /Ogty
; File C:\duke4\Fire\Src\UnFractal.cpp
CONST	ENDS
;	COMDAT ?FakeAtan@@YANN@Z
_TEXT	SEGMENT
_X$ = 8
?FakeAtan@@YANN@Z PROC NEAR				; FakeAtan, COMDAT

; 132  :     return 3.1415F * 0.5F * X / (Abs((FLOAT)X) + 1.0);

  00000	dd 44 24 04	 fld	 QWORD PTR _X$[esp-4]
  00004	d8 15 00 00 00
	00		 fcom	 DWORD PTR __real@00000000
  0000a	df e0		 fnstsw	 ax
  0000c	f6 c4 01	 test	 ah, 1
  0000f	74 02		 je	 SHORT $L131807
  00011	d9 e0		 fchs
$L131807:
  00013	dd 44 24 04	 fld	 QWORD PTR _X$[esp-4]
  00017	dc 0d 00 00 00
	00		 fmul	 QWORD PTR __real@3ff921cac0000000
  0001d	d9 c9		 fxch	 ST(1)
  0001f	dc 05 00 00 00
	00		 fadd	 QWORD PTR __real@3ff0000000000000
  00025	de f9		 fdivp	 ST(1), ST(0)

; 133  : }

  00027	c3		 ret	 0
?FakeAtan@@YANN@Z ENDP					; FakeAtan
_TEXT	ENDS
PUBLIC	?InitTables@@YAXXZ				; InitTables
PUBLIC	__real@3b800000
PUBLIC	__real@40c90fdb
PUBLIC	__real@405fe00000000000
PUBLIC	__real@405fdcccc0000000
EXTRN	__imp__rand:NEAR
;	COMDAT __real@3b800000
; File ..\..\Core\Inc\UnFile.h
CONST	SEGMENT
__real@3b800000 DD 03b800000r			; 0.00390625
CONST	ENDS
;	COMDAT __real@40c90fdb
CONST	SEGMENT
__real@40c90fdb DD 040c90fdbr			; 6.28319
CONST	ENDS
;	COMDAT __real@405fe00000000000
CONST	SEGMENT
__real@405fe00000000000 DQ 0405fe00000000000r	; 127.5
CONST	ENDS
;	COMDAT __real@405fdcccc0000000
CONST	SEGMENT
__real@405fdcccc0000000 DQ 0405fdcccc0000000r	; 127.45
; Function compile flags: /Ogty
; File C:\duke4\Fire\Src\UnFractal.cpp
CONST	ENDS
;	COMDAT ?InitTables@@YAXXZ
_TEXT	SEGMENT
_t$123656 = -8
_I$131824 = -4
$T131826 = -8
?InitTables@@YAXXZ PROC NEAR				; InitTables, COMDAT

; 144  : 	static INT  Initialized=0;
; 145  : 	if( !Initialized )

  00000	a1 00 00 00 00	 mov	 eax, DWORD PTR ?Initialized@?1??InitTables@@YAXXZ@4HA
  00005	83 ec 08	 sub	 esp, 8
  00008	85 c0		 test	 eax, eax
  0000a	0f 85 c1 00 00
	00		 jne	 $L123655

; 146  : 	{
; 147  : 		// Init 8-bit sine table.
; 148  : 		for( INT t=0; t<256; t++ )

  00010	33 c0		 xor	 eax, eax
  00012	89 44 24 00	 mov	 DWORD PTR _t$123656[esp+8], eax
$L123657:

; 149  : 		{
; 150  : 			PhaseTable[t] = appRound(127.45F + 127.5F*appSin( ((FLOAT)t/256.0F) * 6.2831853F ));

  00016	db 44 24 00	 fild	 DWORD PTR _t$123656[esp+8]
  0001a	d8 0d 00 00 00
	00		 fmul	 DWORD PTR __real@3b800000
  00020	d8 0d 00 00 00
	00		 fmul	 DWORD PTR __real@40c90fdb
  00026	d9 fe		 fsin
  00028	dc 0d 00 00 00
	00		 fmul	 QWORD PTR __real@405fe00000000000
  0002e	dc 05 00 00 00
	00		 fadd	 QWORD PTR __real@405fdcccc0000000
  00034	d9 5c 24 00	 fstp	 DWORD PTR $T131826[esp+8]
  00038	d9 44 24 00	 fld	 DWORD PTR $T131826[esp+8]
  0003c	db 5c 24 04	 fistp	 DWORD PTR _I$131824[esp+8]
  00040	8a 4c 24 04	 mov	 cl, BYTE PTR _I$131824[esp+8]
  00044	88 88 00 00 00
	00		 mov	 BYTE PTR _PhaseTable[eax], cl
  0004a	40		 inc	 eax
  0004b	3d 00 01 00 00	 cmp	 eax, 256		; 00000100H
  00050	89 44 24 00	 mov	 DWORD PTR _t$123656[esp+8], eax
  00054	7c c0		 jl	 SHORT $L123657

; 151  : 		}
; 152  : 
; 153  : 		for( t=0; t<256; t++ )

  00056	33 c9		 xor	 ecx, ecx
$L123661:

; 154  : 		{
; 155  : 		 	  LightPhaseTable[t] = Clamp (PhaseTable[t] + LIGHTPHASEBIAS, 0, 255);

  00058	33 d2		 xor	 edx, edx
  0005a	8a 91 00 00 00
	00		 mov	 dl, BYTE PTR _PhaseTable[ecx]
  00060	8b c2		 mov	 eax, edx
  00062	25 ff 00 00 00	 and	 eax, 255		; 000000ffH
  00067	83 c0 20	 add	 eax, 32			; 00000020H
  0006a	79 04		 jns	 SHORT $L131837
  0006c	33 c0		 xor	 eax, eax
  0006e	eb 0c		 jmp	 SHORT $L131836
$L131837:
  00070	3d ff 00 00 00	 cmp	 eax, 255		; 000000ffH
  00075	7c 05		 jl	 SHORT $L131836
  00077	b8 ff 00 00 00	 mov	 eax, 255		; 000000ffH
$L131836:

; 156  : 			 SignedPhaseTable[t] = (BYTE)( -128 + (SBYTE)PhaseTable[t] );

  0007c	80 c2 80	 add	 dl, 128			; 00000080H
  0007f	88 81 00 00 00
	00		 mov	 BYTE PTR _LightPhaseTable[ecx], al
  00085	88 91 00 00 00
	00		 mov	 BYTE PTR _SignedPhaseTable[ecx], dl
  0008b	41		 inc	 ecx
  0008c	81 f9 00 01 00
	00		 cmp	 ecx, 256		; 00000100H
  00092	7c c4		 jl	 SHORT $L123661
  00094	56		 push	 esi
  00095	57		 push	 edi

; 157  : 		}
; 158  : 
; 159  : 		for( t=0 ; t<512 ; t++ )

  00096	8b 3d 00 00 00
	00		 mov	 edi, DWORD PTR __imp__rand
  0009c	33 f6		 xor	 esi, esi

; 174  : 	}
; 175  : }

  0009e	8b ff		 npad	 2

; 157  : 		}
; 158  : 
; 159  : 		for( t=0 ; t<512 ; t++ )

$L123671:

; 160  : 			SpeedRandArr[t] = (BYTE)(appRand() & 255);

  000a0	ff d7		 call	 edi
  000a2	88 86 00 00 00
	00		 mov	 BYTE PTR _SpeedRandArr[esi], al
  000a8	46		 inc	 esi
  000a9	81 fe 00 02 00
	00		 cmp	 esi, 512		; 00000200H
  000af	7c ef		 jl	 SHORT $L123671
  000b1	5f		 pop	 edi

; 161  : 
; 162  : 		// Speedy random number generator: initialize & align the index.
; 163  : 
; 164  : #if     RANDASM
; 165  : 		//SpeedRindex = ((DWORD)(&SpeedRandArr) +0xFF ) & 0xFFFFFF00;
; 166  : 		SpeedRindex=0;

  000b2	c7 05 00 00 00
	00 00 00 00 00	 mov	 DWORD PTR _SpeedRindex, 0

; 167  : #else
; 168  : 		SpeedRindex=0;
; 169  : #endif
; 170  : 		StaleRindex=0;

  000bc	c7 05 00 00 00
	00 00 00 00 00	 mov	 DWORD PTR _StaleRindex, 0

; 171  : 
; 172  : 		// Now initialized;
; 173  : 		Initialized=1;

  000c6	c7 05 00 00 00
	00 01 00 00 00	 mov	 DWORD PTR ?Initialized@?1??InitTables@@YAXXZ@4HA, 1
  000d0	5e		 pop	 esi
$L123655:

; 174  : 	}
; 175  : }

  000d1	83 c4 08	 add	 esp, 8
  000d4	c3		 ret	 0
?InitTables@@YAXXZ ENDP					; InitTables
_TEXT	ENDS
PUBLIC	?AddSpark@UFireTexture@@AAEXHH@Z		; UFireTexture::AddSpark
; Function compile flags: /Ogty
;	COMDAT ?AddSpark@UFireTexture@@AAEXHH@Z
_TEXT	SEGMENT
_MouseX$ = 8
_MouseY$ = 12
_TempSpeed$123741 = 8
_t$123749 = -8
_t$123755 = -8
?AddSpark@UFireTexture@@AAEXHH@Z PROC NEAR		; UFireTexture::AddSpark, COMDAT
; _this$ = ecx

; 464  : 	// Edit-time only.
; 465  : 	static INT  LightPinX=0;
; 466  : 	static INT  LightPinY=0;
; 467  : 
; 468  : 	// Return if out of bounds or out of sparks.
; 469  :     if( MouseX<0 || MouseY<0 || MouseX>=USize || MouseY>=VSize || ActiveSparkNum>=SparksLimit )

  00000	8b 44 24 04	 mov	 eax, DWORD PTR _MouseX$[esp-4]
  00004	83 ec 08	 sub	 esp, 8
  00007	53		 push	 ebx
  00008	55		 push	 ebp
  00009	56		 push	 esi
  0000a	33 d2		 xor	 edx, edx
  0000c	3b c2		 cmp	 eax, edx
  0000e	57		 push	 edi
  0000f	8b f1		 mov	 esi, ecx
  00011	0f 8c f8 07 00
	00		 jl	 $L123787
  00017	8b 5c 24 20	 mov	 ebx, DWORD PTR _MouseY$[esp+20]
  0001b	3b da		 cmp	 ebx, edx
  0001d	0f 8c ec 07 00
	00		 jl	 $L123787
  00023	3b 46 34	 cmp	 eax, DWORD PTR [esi+52]
  00026	0f 8d e3 07 00
	00		 jge	 $L123787
  0002c	3b 5e 38	 cmp	 ebx, DWORD PTR [esi+56]
  0002f	0f 8d da 07 00
	00		 jge	 $L123787
  00035	8b be f8 00 00
	00		 mov	 edi, DWORD PTR [esi+248]
  0003b	3b be f4 00 00
	00		 cmp	 edi, DWORD PTR [esi+244]
  00041	0f 8d c8 07 00
	00		 jge	 $L123787

; 470  :         return;
; 471  : 
; 472  :     // Dynamic spark arrays: ActiveSparkNum/SparksLimit  have the current sparks and the current maximum
; 473  : 	// size; with these, the dynamic array is used as a *static* array in all spark adders/setters.
; 474  : 	
; 475  : 	// Make new spark.
; 476  :     INT  S = ActiveSparkNum++;  // ->Sparks[0] is the first one.

  00047	8d 4f 01	 lea	 ecx, DWORD PTR [edi+1]
  0004a	89 8e f8 00 00
	00		 mov	 DWORD PTR [esi+248], ecx

; 477  : 
; 478  : 	// General new spark initialization.
; 479  :     Sparks(S).Type = SparkType;

  00050	8b 8e fc 00 00
	00		 mov	 ecx, DWORD PTR [esi+252]
  00056	89 54 24 1c	 mov	 DWORD PTR 8+[esp+20], edx
  0005a	8a 96 e0 00 00
	00		 mov	 dl, BYTE PTR [esi+224]
  00060	88 14 f9	 mov	 BYTE PTR [ecx+edi*8], dl

; 480  :     Sparks(S).X    = MouseX;

  00063	8b 8e fc 00 00
	00		 mov	 ecx, DWORD PTR [esi+252]
  00069	88 44 f9 02	 mov	 BYTE PTR [ecx+edi*8+2], al

; 481  :     Sparks(S).Y    = MouseY;

  0006d	8b 8e fc 00 00
	00		 mov	 ecx, DWORD PTR [esi+252]
  00073	88 5c f9 03	 mov	 BYTE PTR [ecx+edi*8+3], bl

; 482  : 	Sparks(S).Heat = FX_Heat; 

  00077	8b 8e fc 00 00
	00		 mov	 ecx, DWORD PTR [esi+252]
  0007d	8a 96 e8 00 00
	00		 mov	 dl, BYTE PTR [esi+232]
  00083	88 54 f9 01	 mov	 BYTE PTR [ecx+edi*8+1], dl

; 483  : 
; 484  :     // Spark-type specific assignments.
; 485  :     switch( SparkType )
; 486  :     {

  00087	8b 54 24 1c	 mov	 edx, DWORD PTR 8+[esp+20]
  0008b	33 c9		 xor	 ecx, ecx
  0008d	8a 8e e0 00 00
	00		 mov	 cl, BYTE PTR [esi+224]
  00093	8b e9		 mov	 ebp, ecx
  00095	81 e5 ff 00 00
	00		 and	 ebp, 255		; 000000ffH
  0009b	4d		 dec	 ebp
  0009c	83 fd 1b	 cmp	 ebp, 27			; 0000001bH
  0009f	0f 87 6a 07 00
	00		 ja	 $L123787
  000a5	ff 24 ad 00 00
	00 00		 jmp	 DWORD PTR $L132182[ebp*4]
$L123727:

; 487  : 		case SPARK_Sparkle:
; 488  : 			Sparks(S).ByteA  = FX_Size;

  000ac	8b 96 fc 00 00
	00		 mov	 edx, DWORD PTR [esi+252]
  000b2	8a 86 e9 00 00
	00		 mov	 al, BYTE PTR [esi+233]
  000b8	88 44 fa 04	 mov	 BYTE PTR [edx+edi*8+4], al

; 489  : 			Sparks(S).ByteB  = FX_AuxSize;

  000bc	8b 8e fc 00 00
	00		 mov	 ecx, DWORD PTR [esi+252]
  000c2	8a 96 ea 00 00
	00		 mov	 dl, BYTE PTR [esi+234]
  000c8	88 54 f9 05	 mov	 BYTE PTR [ecx+edi*8+5], dl
  000cc	5f		 pop	 edi
  000cd	5e		 pop	 esi
  000ce	5d		 pop	 ebp
  000cf	5b		 pop	 ebx

; 725  :             }
; 726  : 			break;
; 727  : 	}
; 728  : }

  000d0	83 c4 08	 add	 esp, 8
  000d3	c2 08 00	 ret	 8
$L123728:

; 490  : 			break;
; 491  : 
; 492  :         case SPARK_Pulse:
; 493  :             Sparks(S).Heat  = DrawPhase + AuxPhase;  

  000d6	8a 8e dc 00 00
	00		 mov	 cl, BYTE PTR [esi+220]
  000dc	8a 86 dd 00 00
	00		 mov	 al, BYTE PTR [esi+221]
  000e2	02 c1		 add	 al, cl
  000e4	8b 8e fc 00 00
	00		 mov	 ecx, DWORD PTR [esi+252]
  000ea	88 44 f9 01	 mov	 BYTE PTR [ecx+edi*8+1], al

; 494  : 			DrawPhase      += FX_Phase;         //

  000ee	8a 86 dc 00 00
	00		 mov	 al, BYTE PTR [esi+220]
  000f4	8a 96 ed 00 00
	00		 mov	 dl, BYTE PTR [esi+237]
  000fa	02 c2		 add	 al, dl
  000fc	88 86 dc 00 00
	00		 mov	 BYTE PTR [esi+220], al

; 495  : 			Sparks(S).ByteD = FX_Frequency;     // Improve useful range.
; 496  :             break;

  00102	e9 9e 05 00 00	 jmp	 $L132181
$L123729:

; 497  : 
; 498  :         case SPARK_Signal:
; 499  :             Sparks(S).Heat  = SpeedRand();      //

  00107	8b 0d 00 00 00
	00		 mov	 ecx, DWORD PTR _SpeedRindex
  0010d	8b 15 00 00 00
	00		 mov	 edx, DWORD PTR _SpeedRindex
  00113	81 c1 80 00 00
	00		 add	 ecx, 128		; 00000080H
  00119	83 c2 04	 add	 edx, 4
  0011c	81 e1 fc 00 00
	00		 and	 ecx, 252		; 000000fcH
  00122	81 e2 fc 00 00
	00		 and	 edx, 252		; 000000fcH
  00128	8b 81 00 00 00
	00		 mov	 eax, DWORD PTR _SpeedRandArr[ecx]
  0012e	89 15 00 00 00
	00		 mov	 DWORD PTR _SpeedRindex, edx
  00134	31 82 00 00 00
	00		 xor	 DWORD PTR _SpeedRandArr[edx], eax
  0013a	8b 96 fc 00 00
	00		 mov	 edx, DWORD PTR [esi+252]
  00140	88 44 fa 01	 mov	 BYTE PTR [edx+edi*8+1], al

; 500  : 			Sparks(S).ByteD = FX_Frequency;     // Improve useful range.

  00144	8b 86 fc 00 00
	00		 mov	 eax, DWORD PTR [esi+252]
  0014a	8a 8e ec 00 00
	00		 mov	 cl, BYTE PTR [esi+236]
  00150	88 4c f8 07	 mov	 BYTE PTR [eax+edi*8+7], cl

; 501  : 			Sparks(S).ByteC = (255 - FX_Heat);  //

  00154	8a 86 e8 00 00
	00		 mov	 al, BYTE PTR [esi+232]
  0015a	80 ca ff	 or	 dl, 255			; 000000ffH
  0015d	2a d0		 sub	 dl, al
  0015f	8b 86 fc 00 00
	00		 mov	 eax, DWORD PTR [esi+252]
  00165	88 54 f8 06	 mov	 BYTE PTR [eax+edi*8+6], dl
  00169	5f		 pop	 edi
  0016a	5e		 pop	 esi
  0016b	5d		 pop	 ebp
  0016c	5b		 pop	 ebx

; 725  :             }
; 726  : 			break;
; 727  : 	}
; 728  : }

  0016d	83 c4 08	 add	 esp, 8
  00170	c2 08 00	 ret	 8
$L123730:

; 502  :             break;                           
; 503  : 
; 504  :         case SPARK_Stars:    // Stars, FieldA for this type holds (negative) start Intensity.
; 505  :             Sparks(S).ByteA = FX_Heat;

  00173	8b 8e fc 00 00
	00		 mov	 ecx, DWORD PTR [esi+252]
  00179	8a 96 e8 00 00
	00		 mov	 dl, BYTE PTR [esi+232]
  0017f	88 54 f9 04	 mov	 BYTE PTR [ecx+edi*8+4], dl
  00183	5f		 pop	 edi

; 506  : 			StarStatus = 1;  // At least one star..

  00184	c6 86 10 05 00
	00 01		 mov	 BYTE PTR [esi+1296], 1
  0018b	5e		 pop	 esi
  0018c	5d		 pop	 ebp
  0018d	5b		 pop	 ebx

; 725  :             }
; 726  : 			break;
; 727  : 	}
; 728  : }

  0018e	83 c4 08	 add	 esp, 8
  00191	c2 08 00	 ret	 8
$L123731:

; 507  :             break;
; 508  : 
; 509  : 		case SPARK_Organic:  // Organic blaze-up.
; 510  : 			Sparks(S).ByteC = FX_Area; 

  00194	8b 86 fc 00 00
	00		 mov	 eax, DWORD PTR [esi+252]
  0019a	8a 8e eb 00 00
	00		 mov	 cl, BYTE PTR [esi+235]
  001a0	88 4c f8 06	 mov	 BYTE PTR [eax+edi*8+6], cl
  001a4	5f		 pop	 edi
  001a5	5e		 pop	 esi
  001a6	5d		 pop	 ebp
  001a7	5b		 pop	 ebx

; 725  :             }
; 726  : 			break;
; 727  : 	}
; 728  : }

  001a8	83 c4 08	 add	 esp, 8
  001ab	c2 08 00	 ret	 8
$L123733:

; 511  : 			break;             
; 512  : 
; 513  : 		case SPARK_Eels: 
; 514  : 			Sparks(S).ByteC = FX_Size;
; 515  : 			break;
; 516  : 
; 517  : 		case SPARK_BlazeLeft:
; 518  : 		case SPARK_BlazeRight:
; 519  : 			Sparks(S).ByteC = FX_Size;

  001ae	8b 8e fc 00 00
	00		 mov	 ecx, DWORD PTR [esi+252]
  001b4	8a 96 e9 00 00
	00		 mov	 dl, BYTE PTR [esi+233]
  001ba	88 54 f9 06	 mov	 BYTE PTR [ecx+edi*8+6], dl
  001be	5f		 pop	 edi
  001bf	5e		 pop	 esi
  001c0	5d		 pop	 ebp
  001c1	5b		 pop	 ebx

; 725  :             }
; 726  : 			break;
; 727  : 	}
; 728  : }

  001c2	83 c4 08	 add	 esp, 8
  001c5	c2 08 00	 ret	 8
$L123737:

; 520  : 			break;
; 521  : 
; 522  : 		case SPARK_OzHasSpoken: 
; 523  : 			break;  
; 524  : 
; 525  : 		case SPARK_Emit: // Spawn at angle , lifetime , linear movers.
; 526  : 			Sparks(S).ByteA  = FX_HorizSpeed - 128;
; 527  : 			Sparks(S).ByteB  = 127 ^ FX_VertSpeed;
; 528  : 			Sparks(S).ByteD  = 255/( (INT)FX_Size +1);
; 529  : 			break;
; 530  : 
; 531  : 		case SPARK_Fountain: // As Emit, with gravity.
; 532  : 			Sparks(S).ByteA  = FX_HorizSpeed - 128;

  001c8	8a 86 ee 00 00
	00		 mov	 al, BYTE PTR [esi+238]
  001ce	8b 8e fc 00 00
	00		 mov	 ecx, DWORD PTR [esi+252]
  001d4	04 80		 add	 al, 128			; 00000080H
  001d6	88 44 f9 04	 mov	 BYTE PTR [ecx+edi*8+4], al

; 533  : 			Sparks(S).ByteB  = 127 ^ FX_VertSpeed;

  001da	8a 96 ef 00 00
	00		 mov	 dl, BYTE PTR [esi+239]
  001e0	8b 86 fc 00 00
	00		 mov	 eax, DWORD PTR [esi+252]
  001e6	80 f2 7f	 xor	 dl, 127			; 0000007fH
  001e9	88 54 f8 05	 mov	 BYTE PTR [eax+edi*8+5], dl

; 534  : 			Sparks(S).ByteD  = 255/( (INT)FX_Size + 1);

  001ed	33 c9		 xor	 ecx, ecx
  001ef	8a 8e e9 00 00
	00		 mov	 cl, BYTE PTR [esi+233]
  001f5	b8 ff 00 00 00	 mov	 eax, 255		; 000000ffH
  001fa	99		 cdq
  001fb	41		 inc	 ecx
  001fc	f7 f9		 idiv	 ecx
  001fe	8b 96 fc 00 00
	00		 mov	 edx, DWORD PTR [esi+252]
  00204	88 44 fa 07	 mov	 BYTE PTR [edx+edi*8+7], al
  00208	5f		 pop	 edi
  00209	5e		 pop	 esi
  0020a	5d		 pop	 ebp
  0020b	5b		 pop	 ebx

; 725  :             }
; 726  : 			break;
; 727  : 	}
; 728  : }

  0020c	83 c4 08	 add	 esp, 8
  0020f	c2 08 00	 ret	 8
$L123739:

; 535  : 			break;
; 536  : 	
; 537  : 		case SPARK_Cylinder: // Twister (X=sin()) movement.
; 538  : 		case SPARK_Cylinder3D: // Twister (X=sin()) movement.
; 539  : 			{
; 540  : 				INT TempSize = FX_Size;
; 541  : 				INT TempSpeed = FX_HorizSpeed - 128;

  00212	33 c9		 xor	 ecx, ecx
  00214	8a 8e ee 00 00
	00		 mov	 cl, BYTE PTR [esi+238]
  0021a	33 d2		 xor	 edx, edx
  0021c	8a 96 e9 00 00
	00		 mov	 dl, BYTE PTR [esi+233]
  00222	8b e9		 mov	 ebp, ecx

; 542  : 				INT ThisIdx = S;
; 543  : 				INT Axis2 = PenDownX*2 + FX_Size;

  00224	33 c9		 xor	 ecx, ecx
  00226	8a 8e 11 05 00
	00		 mov	 cl, BYTE PTR [esi+1297]
  0022c	81 ed 80 00 00
	00		 sub	 ebp, 128		; 00000080H
  00232	88 4c 24 10	 mov	 BYTE PTR -8+[esp+24], cl
  00236	89 6c 24 1c	 mov	 DWORD PTR _TempSpeed$123741[esp+20], ebp
  0023a	81 e1 ff 00 00
	00		 and	 ecx, 255		; 000000ffH
  00240	8d 2c 4a	 lea	 ebp, DWORD PTR [edx+ecx*2]

; 544  : 
; 545  : 				// Scale to imaginary axis while mousebutton remains down.
; 546  : 				if( (DrawMode > DRAW_Normal) && (PenDownX != 0) )

  00243	8a 8e f0 00 00
	00		 mov	 cl, BYTE PTR [esi+240]
  00249	84 c9		 test	 cl, cl
  0024b	76 30		 jbe	 SHORT $L123745
  0024d	8a 4c 24 10	 mov	 cl, BYTE PTR -8+[esp+24]
  00251	84 c9		 test	 cl, cl
  00253	74 28		 je	 SHORT $L123745

; 547  : 				{
; 548  : 					TempSize = Axis2 - MouseX*2;

  00255	8d 0c 00	 lea	 ecx, DWORD PTR [eax+eax]
  00258	8b d5		 mov	 edx, ebp
  0025a	2b d1		 sub	 edx, ecx

; 549  : 
; 550  : 					// Axis = at PenDownX + 0.5 * FX_Size.
; 551  : 
; 552  : 					if( TempSize<0 )  // Crossed the axis.

  0025c	79 1f		 jns	 SHORT $L123745

; 553  : 					{	
; 554  : 						TempSize = MouseX*2 - Axis2;

  0025e	2b cd		 sub	 ecx, ebp
  00260	8b d1		 mov	 edx, ecx

; 555  : 						Sparks(S).X = MouseX - TempSize;  // Minus total diameter.

  00262	8b 8e fc 00 00
	00		 mov	 ecx, DWORD PTR [esi+252]
  00268	2a c2		 sub	 al, dl
  0026a	88 44 f9 02	 mov	 BYTE PTR [ecx+edi*8+2], al

; 556  : 						TempSpeed = (256-TempSpeed) & 255; 

  0026e	8b 44 24 1c	 mov	 eax, DWORD PTR _TempSpeed$123741[esp+20]
  00272	f7 d8		 neg	 eax
  00274	25 ff 00 00 00	 and	 eax, 255		; 000000ffH
  00279	89 44 24 1c	 mov	 DWORD PTR _TempSpeed$123741[esp+20], eax
$L123745:

; 557  : 					}
; 558  : 				};
; 559  : 				
; 560  : 				Sparks(S).ByteA  = ( GlobalPhase * FX_Frequency + FX_Phase ) & 255;

  0027d	8a 86 ec 00 00
	00		 mov	 al, BYTE PTR [esi+236]
  00283	f6 ae d8 00 00
	00		 imul	 BYTE PTR [esi+216]
  00289	02 86 ed 00 00
	00		 add	 al, BYTE PTR [esi+237]
  0028f	8b 8e fc 00 00
	00		 mov	 ecx, DWORD PTR [esi+252]
  00295	88 44 f9 04	 mov	 BYTE PTR [ecx+edi*8+4], al

; 561  : 				Sparks(S).ByteB  = TempSize;  // Size.

  00299	8b 86 fc 00 00
	00		 mov	 eax, DWORD PTR [esi+252]
  0029f	88 54 f8 05	 mov	 BYTE PTR [eax+edi*8+5], dl

; 562  : 				Sparks(S).ByteD  = TempSpeed;

  002a3	8a 44 24 1c	 mov	 al, BYTE PTR _TempSpeed$123741[esp+20]
  002a7	8b 8e fc 00 00
	00		 mov	 ecx, DWORD PTR [esi+252]
  002ad	88 44 f9 07	 mov	 BYTE PTR [ecx+edi*8+7], al

; 563  : 				
; 564  : 				// Draw second spark at +0.5 phase
; 565  : 				if( (DrawMode == DRAW_Lathe_2) && (ActiveSparkNum < SparksLimit) ) 

  002b1	80 be f0 00 00
	00 02		 cmp	 BYTE PTR [esi+240], 2
  002b8	0f 85 87 00 00
	00		 jne	 $L123746
  002be	8b 86 f8 00 00
	00		 mov	 eax, DWORD PTR [esi+248]
  002c4	3b 86 f4 00 00
	00		 cmp	 eax, DWORD PTR [esi+244]
  002ca	7d 79		 jge	 SHORT $L123746

; 566  : 				{
; 567  : 					INT  S = ActiveSparkNum++; 
; 568  : 					Sparks(S).Type = SparkType;

  002cc	89 54 24 10	 mov	 DWORD PTR -8+[esp+24], edx
  002d0	8a 96 e0 00 00
	00		 mov	 dl, BYTE PTR [esi+224]
  002d6	8d 48 01	 lea	 ecx, DWORD PTR [eax+1]
  002d9	89 8e f8 00 00
	00		 mov	 DWORD PTR [esi+248], ecx
  002df	8b 8e fc 00 00
	00		 mov	 ecx, DWORD PTR [esi+252]
  002e5	88 14 c1	 mov	 BYTE PTR [ecx+eax*8], dl

; 569  : 					Sparks(S).X    = Sparks(ThisIdx).X;

  002e8	8b ae fc 00 00
	00		 mov	 ebp, DWORD PTR [esi+252]
  002ee	8a 4c fd 02	 mov	 cl, BYTE PTR [ebp+edi*8+2]
  002f2	88 4c c5 02	 mov	 BYTE PTR [ebp+eax*8+2], cl

; 570  : 					Sparks(S).Y    = MouseY;

  002f6	8b 8e fc 00 00
	00		 mov	 ecx, DWORD PTR [esi+252]
  002fc	88 5c c1 03	 mov	 BYTE PTR [ecx+eax*8+3], bl

; 571  : 					Sparks(S).Heat = FX_Heat; 

  00300	8b 8e fc 00 00
	00		 mov	 ecx, DWORD PTR [esi+252]
  00306	8a 96 e8 00 00
	00		 mov	 dl, BYTE PTR [esi+232]
  0030c	88 54 c1 01	 mov	 BYTE PTR [ecx+eax*8+1], dl

; 572  : 
; 573  : 					Sparks(S).ByteA  = Sparks(ThisIdx).ByteA + 128;

  00310	8b ae fc 00 00
	00		 mov	 ebp, DWORD PTR [esi+252]
  00316	8a 4c fd 04	 mov	 cl, BYTE PTR [ebp+edi*8+4]

; 574  : 					Sparks(S).ByteB  = TempSize;  // size

  0031a	8b 54 24 10	 mov	 edx, DWORD PTR -8+[esp+24]
  0031e	80 c1 80	 add	 cl, 128			; 00000080H
  00321	88 4c c5 04	 mov	 BYTE PTR [ebp+eax*8+4], cl
  00325	8b 8e fc 00 00
	00		 mov	 ecx, DWORD PTR [esi+252]
  0032b	88 54 c1 05	 mov	 BYTE PTR [ecx+eax*8+5], dl

; 575  : 					Sparks(S).ByteD  = TempSpeed;

  0032f	8b 8e fc 00 00
	00		 mov	 ecx, DWORD PTR [esi+252]
  00335	89 54 24 10	 mov	 DWORD PTR -8+[esp+24], edx
  00339	8a 54 24 1c	 mov	 dl, BYTE PTR _TempSpeed$123741[esp+20]
  0033d	88 54 c1 07	 mov	 BYTE PTR [ecx+eax*8+7], dl
  00341	8b 54 24 10	 mov	 edx, DWORD PTR -8+[esp+24]
$L123746:

; 576  : 				}
; 577  : 				
; 578  : 				// Draw 2 more sparks at   +.33/.67 phases.
; 579  : 				if( ( DrawMode == DRAW_Lathe_3 ) && ( (ActiveSparkNum+2) <= SparksLimit ) )

  00345	80 be f0 00 00
	00 03		 cmp	 BYTE PTR [esi+240], 3
  0034c	0f 85 b3 00 00
	00		 jne	 $L123752
  00352	8b 86 f8 00 00
	00		 mov	 eax, DWORD PTR [esi+248]
  00358	8b 8e f4 00 00
	00		 mov	 ecx, DWORD PTR [esi+244]
  0035e	83 c0 02	 add	 eax, 2
  00361	3b c1		 cmp	 eax, ecx
  00363	0f 8f 9c 00 00
	00		 jg	 $L123752

; 580  : 				{
; 581  : 					for( INT t=1; t<3; t++ )

  00369	c7 44 24 10 01
	00 00 00	 mov	 DWORD PTR _t$123749[esp+24], 1
$L132177:

; 582  : 					{
; 583  : 						INT  S = ActiveSparkNum++; 

  00371	8b 8e f8 00 00
	00		 mov	 ecx, DWORD PTR [esi+248]
  00377	8d 41 01	 lea	 eax, DWORD PTR [ecx+1]
  0037a	89 86 f8 00 00
	00		 mov	 DWORD PTR [esi+248], eax

; 584  : 						Sparks(S).Type   = SparkType;

  00380	8b 86 fc 00 00
	00		 mov	 eax, DWORD PTR [esi+252]
  00386	89 54 24 14	 mov	 DWORD PTR -4+[esp+24], edx
  0038a	8a 96 e0 00 00
	00		 mov	 dl, BYTE PTR [esi+224]
  00390	88 14 c8	 mov	 BYTE PTR [eax+ecx*8], dl

; 585  : 						Sparks(S).X      = Sparks(ThisIdx).X;

  00393	8b ae fc 00 00
	00		 mov	 ebp, DWORD PTR [esi+252]
  00399	8a 44 fd 02	 mov	 al, BYTE PTR [ebp+edi*8+2]
  0039d	88 44 cd 02	 mov	 BYTE PTR [ebp+ecx*8+2], al

; 586  : 						Sparks(S).Y      = MouseY;

  003a1	8b 86 fc 00 00
	00		 mov	 eax, DWORD PTR [esi+252]
  003a7	88 5c c8 03	 mov	 BYTE PTR [eax+ecx*8+3], bl

; 587  : 						Sparks(S).Heat   = FX_Heat; 

  003ab	8b 86 fc 00 00
	00		 mov	 eax, DWORD PTR [esi+252]
  003b1	8a 9e e8 00 00
	00		 mov	 bl, BYTE PTR [esi+232]

; 588  : 
; 589  : 						Sparks(S).ByteA  = Sparks(ThisIdx).ByteA + (t*(256/3) );
; 590  : 						Sparks(S).ByteB  = TempSize; // Size.

  003b7	8b 54 24 14	 mov	 edx, DWORD PTR -4+[esp+24]
  003bb	88 5c c8 01	 mov	 BYTE PTR [eax+ecx*8+1], bl
  003bf	8a 44 24 10	 mov	 al, BYTE PTR _t$123749[esp+24]
  003c3	8b ae fc 00 00
	00		 mov	 ebp, DWORD PTR [esi+252]
  003c9	b3 55		 mov	 bl, 85			; 00000055H
  003cb	f6 eb		 imul	 bl
  003cd	8a 5c fd 04	 mov	 bl, BYTE PTR [ebp+edi*8+4]
  003d1	02 d8		 add	 bl, al
  003d3	88 5c cd 04	 mov	 BYTE PTR [ebp+ecx*8+4], bl
  003d7	8b 86 fc 00 00
	00		 mov	 eax, DWORD PTR [esi+252]

; 591  : 						Sparks(S).ByteD  = TempSpeed;

  003dd	8a 5c 24 1c	 mov	 bl, BYTE PTR _TempSpeed$123741[esp+20]
  003e1	88 54 c8 05	 mov	 BYTE PTR [eax+ecx*8+5], dl
  003e5	8b 86 fc 00 00
	00		 mov	 eax, DWORD PTR [esi+252]
  003eb	88 5c c8 07	 mov	 BYTE PTR [eax+ecx*8+7], bl
  003ef	8b 44 24 10	 mov	 eax, DWORD PTR _t$123749[esp+24]
  003f3	8b 5c 24 20	 mov	 ebx, DWORD PTR _MouseY$[esp+20]
  003f7	40		 inc	 eax
  003f8	83 f8 03	 cmp	 eax, 3
  003fb	89 44 24 10	 mov	 DWORD PTR _t$123749[esp+24], eax
  003ff	0f 8c 6c ff ff
	ff		 jl	 $L132177
$L123752:

; 592  : 					}
; 593  : 				}			
; 594  : 
; 595  : 				// Draw 2 more sparks at   +.33/.67 phases.
; 596  : 				if( ( DrawMode == DRAW_Lathe_4 ) && ( (ActiveSparkNum+3) <= SparksLimit ) )

  00405	80 be f0 00 00
	00 04		 cmp	 BYTE PTR [esi+240], 4
  0040c	0f 85 fd 03 00
	00		 jne	 $L123787
  00412	8b 8e f8 00 00
	00		 mov	 ecx, DWORD PTR [esi+248]
  00418	8b 86 f4 00 00
	00		 mov	 eax, DWORD PTR [esi+244]
  0041e	83 c1 03	 add	 ecx, 3
  00421	3b c8		 cmp	 ecx, eax
  00423	0f 8f e6 03 00
	00		 jg	 $L123787

; 597  : 				{
; 598  : 					for( INT t=1; t<4; t++ )

  00429	c7 44 24 10 01
	00 00 00	 mov	 DWORD PTR _t$123755[esp+24], 1
  00431	eb 04		 jmp	 SHORT $L123756
$L132178:
  00433	8b 5c 24 20	 mov	 ebx, DWORD PTR _MouseY$[esp+20]
$L123756:

; 599  : 					{
; 600  : 						INT  S = ActiveSparkNum++; 

  00437	8b 86 f8 00 00
	00		 mov	 eax, DWORD PTR [esi+248]
  0043d	8d 48 01	 lea	 ecx, DWORD PTR [eax+1]
  00440	89 8e f8 00 00
	00		 mov	 DWORD PTR [esi+248], ecx

; 601  : 						Sparks(S).Type   = SparkType;

  00446	8b 8e fc 00 00
	00		 mov	 ecx, DWORD PTR [esi+252]
  0044c	89 54 24 14	 mov	 DWORD PTR -4+[esp+24], edx
  00450	8a 96 e0 00 00
	00		 mov	 dl, BYTE PTR [esi+224]
  00456	88 14 c1	 mov	 BYTE PTR [ecx+eax*8], dl

; 602  : 						Sparks(S).X      = Sparks(ThisIdx).X;

  00459	8b ae fc 00 00
	00		 mov	 ebp, DWORD PTR [esi+252]
  0045f	8a 4c fd 02	 mov	 cl, BYTE PTR [ebp+edi*8+2]

; 603  : 						Sparks(S).Y      = MouseY;
; 604  : 						Sparks(S).Heat   = FX_Heat; 
; 605  : 
; 606  : 						Sparks(S).ByteA  = Sparks(ThisIdx).ByteA +( t * 64 );
; 607  : 						Sparks(S).ByteB  = TempSize; // Size.

  00463	8b 54 24 14	 mov	 edx, DWORD PTR -4+[esp+24]
  00467	88 4c c5 02	 mov	 BYTE PTR [ebp+eax*8+2], cl
  0046b	8b 8e fc 00 00
	00		 mov	 ecx, DWORD PTR [esi+252]
  00471	88 5c c1 03	 mov	 BYTE PTR [ecx+eax*8+3], bl
  00475	8b 8e fc 00 00
	00		 mov	 ecx, DWORD PTR [esi+252]
  0047b	8a 9e e8 00 00
	00		 mov	 bl, BYTE PTR [esi+232]
  00481	88 5c c1 01	 mov	 BYTE PTR [ecx+eax*8+1], bl
  00485	8b ae fc 00 00
	00		 mov	 ebp, DWORD PTR [esi+252]
  0048b	8a 4c 24 10	 mov	 cl, BYTE PTR _t$123755[esp+24]
  0048f	8a 5c fd 04	 mov	 bl, BYTE PTR [ebp+edi*8+4]
  00493	c0 e1 06	 shl	 cl, 6
  00496	02 d9		 add	 bl, cl
  00498	88 5c c5 04	 mov	 BYTE PTR [ebp+eax*8+4], bl
  0049c	8b 8e fc 00 00
	00		 mov	 ecx, DWORD PTR [esi+252]

; 608  : 						Sparks(S).ByteD  = TempSpeed;

  004a2	8a 5c 24 1c	 mov	 bl, BYTE PTR _TempSpeed$123741[esp+20]
  004a6	88 54 c1 05	 mov	 BYTE PTR [ecx+eax*8+5], dl
  004aa	8b 8e fc 00 00
	00		 mov	 ecx, DWORD PTR [esi+252]
  004b0	88 5c c1 07	 mov	 BYTE PTR [ecx+eax*8+7], bl
  004b4	8b 44 24 10	 mov	 eax, DWORD PTR _t$123755[esp+24]
  004b8	40		 inc	 eax
  004b9	83 f8 04	 cmp	 eax, 4
  004bc	89 44 24 10	 mov	 DWORD PTR _t$123755[esp+24], eax
  004c0	0f 8c 6d ff ff
	ff		 jl	 $L132178
  004c6	5f		 pop	 edi
  004c7	5e		 pop	 esi
  004c8	5d		 pop	 ebp
  004c9	5b		 pop	 ebx

; 725  :             }
; 726  : 			break;
; 727  : 	}
; 728  : }

  004ca	83 c4 08	 add	 esp, 8
  004cd	c2 08 00	 ret	 8
$L123760:

; 609  : 					}
; 610  : 				}			
; 611  : 			}
; 612  : 			break;
; 613  : 
; 614  : 		case SPARK_Jugglers: // Twister (X=sin()) movement.
; 615  : 			Sparks(S).ByteA  = ( GlobalPhase * FX_Frequency + FX_Phase ) & 255;

  004d0	8a 86 ec 00 00
	00		 mov	 al, BYTE PTR [esi+236]
  004d6	f6 ae d8 00 00
	00		 imul	 BYTE PTR [esi+216]
  004dc	8a 8e ed 00 00
	00		 mov	 cl, BYTE PTR [esi+237]
  004e2	8b 96 fc 00 00
	00		 mov	 edx, DWORD PTR [esi+252]
  004e8	02 c1		 add	 al, cl
  004ea	88 44 fa 04	 mov	 BYTE PTR [edx+edi*8+4], al

; 616  : 			Sparks(S).ByteB  = FX_Size;  // size

  004ee	8b 86 fc 00 00
	00		 mov	 eax, DWORD PTR [esi+252]
  004f4	8a 8e e9 00 00
	00		 mov	 cl, BYTE PTR [esi+233]
  004fa	88 4c f8 05	 mov	 BYTE PTR [eax+edi*8+5], cl

; 617  : 			Sparks(S).ByteD  = FX_HorizSpeed - 128;

  004fe	8a 96 ee 00 00
	00		 mov	 dl, BYTE PTR [esi+238]
  00504	8b 86 fc 00 00
	00		 mov	 eax, DWORD PTR [esi+252]
  0050a	80 c2 80	 add	 dl, 128			; 00000080H
  0050d	88 54 f8 07	 mov	 BYTE PTR [eax+edi*8+7], dl
  00511	5f		 pop	 edi
  00512	5e		 pop	 esi
  00513	5d		 pop	 ebp
  00514	5b		 pop	 ebx

; 725  :             }
; 726  : 			break;
; 727  : 	}
; 728  : }

  00515	83 c4 08	 add	 esp, 8
  00518	c2 08 00	 ret	 8
$L123761:

; 618  : 			break;
; 619  : 
; 620  : 		case SPARK_Lissajous:
; 621  : 			Sparks(S).Heat  = FX_Size;       // size

  0051b	8a 86 e9 00 00
	00		 mov	 al, BYTE PTR [esi+233]
  00521	8b 8e fc 00 00
	00		 mov	 ecx, DWORD PTR [esi+252]
  00527	88 44 f9 01	 mov	 BYTE PTR [ecx+edi*8+1], al

; 622  : 			Sparks(S).ByteA = FX_Phase;      // phase u

  0052b	8a 86 ed 00 00
	00		 mov	 al, BYTE PTR [esi+237]
  00531	8b 8e fc 00 00
	00		 mov	 ecx, DWORD PTR [esi+252]
  00537	88 44 f9 04	 mov	 BYTE PTR [ecx+edi*8+4], al

; 623  : 			Sparks(S).ByteB = FX_Frequency;  // phase v

  0053b	8b 8e fc 00 00
	00		 mov	 ecx, DWORD PTR [esi+252]
  00541	8a 86 ec 00 00
	00		 mov	 al, BYTE PTR [esi+236]
  00547	88 44 f9 05	 mov	 BYTE PTR [ecx+edi*8+5], al

; 624  : 			Sparks(S).ByteC = FX_HorizSpeed - 128;

  0054b	8a 8e ee 00 00
	00		 mov	 cl, BYTE PTR [esi+238]
  00551	8b 86 fc 00 00
	00		 mov	 eax, DWORD PTR [esi+252]
  00557	80 c1 80	 add	 cl, 128			; 00000080H
  0055a	88 4c f8 06	 mov	 BYTE PTR [eax+edi*8+6], cl

; 625  : 			Sparks(S).ByteD = FX_VertSpeed  - 128;

  0055e	8a 8e ef 00 00
	00		 mov	 cl, BYTE PTR [esi+239]
  00564	8b 86 fc 00 00
	00		 mov	 eax, DWORD PTR [esi+252]
  0056a	80 c1 80	 add	 cl, 128			; 00000080H
  0056d	88 4c f8 07	 mov	 BYTE PTR [eax+edi*8+7], cl

; 626  : 			// Special-cases redirected to more efficient setters.
; 627  : 			if( Sparks(S).ByteC == 0 ) Sparks(S).Type = SPARK_LissajY;

  00571	8b 8e fc 00 00
	00		 mov	 ecx, DWORD PTR [esi+252]
  00577	8d 04 f9	 lea	 eax, DWORD PTR [ecx+edi*8]
  0057a	38 50 06	 cmp	 BYTE PTR [eax+6], dl
  0057d	75 03		 jne	 SHORT $L123762
  0057f	c6 00 1e	 mov	 BYTE PTR [eax], 30	; 0000001eH
$L123762:

; 628  : 			if( Sparks(S).ByteD == 0 ) Sparks(S).Type = SPARK_LissajX;

  00582	8b 86 fc 00 00
	00		 mov	 eax, DWORD PTR [esi+252]
  00588	8d 3c f8	 lea	 edi, DWORD PTR [eax+edi*8]
  0058b	38 57 07	 cmp	 BYTE PTR [edi+7], dl
  0058e	0f 85 7b 02 00
	00		 jne	 $L123787
  00594	c6 07 1d	 mov	 BYTE PTR [edi], 29	; 0000001dH
  00597	5f		 pop	 edi
  00598	5e		 pop	 esi
  00599	5d		 pop	 ebp
  0059a	5b		 pop	 ebx

; 725  :             }
; 726  : 			break;
; 727  : 	}
; 728  : }

  0059b	83 c4 08	 add	 esp, 8
  0059e	c2 08 00	 ret	 8
$L123764:

; 629  : 			break;
; 630  : 
; 631  :         case SPARK_SphereLightning: // Spherical lightning.
; 632  :             Sparks(S).Heat   = FX_Heat;  // heat

  005a1	8b 8e fc 00 00
	00		 mov	 ecx, DWORD PTR [esi+252]
  005a7	8a 96 e8 00 00
	00		 mov	 dl, BYTE PTR [esi+232]
  005ad	88 54 f9 01	 mov	 BYTE PTR [ecx+edi*8+1], dl

; 633  :             Sparks(S).ByteC  = FX_Size;  // radius

  005b1	8b 86 fc 00 00
	00		 mov	 eax, DWORD PTR [esi+252]
  005b7	8a 8e e9 00 00
	00		 mov	 cl, BYTE PTR [esi+233]
  005bd	88 4c f8 06	 mov	 BYTE PTR [eax+edi*8+6], cl

; 634  :             // minimal 8 (=radius 4)
; 635  :             if( Sparks(S).ByteC <8 ) Sparks(S).ByteC = 8;

  005c1	8b 96 fc 00 00
	00		 mov	 edx, DWORD PTR [esi+252]
  005c7	8a 4c fa 06	 mov	 cl, BYTE PTR [edx+edi*8+6]
  005cb	80 f9 08	 cmp	 cl, 8
  005ce	8d 44 fa 06	 lea	 eax, DWORD PTR [edx+edi*8+6]
  005d2	73 03		 jae	 SHORT $L123765
  005d4	c6 00 08	 mov	 BYTE PTR [eax], 8
$L123765:

; 636  : 			Sparks(S).ByteD  = 96;  // Hardcoded chance.

  005d7	8b 86 fc 00 00
	00		 mov	 eax, DWORD PTR [esi+252]
  005dd	c6 44 f8 07 60	 mov	 BYTE PTR [eax+edi*8+7], 96 ; 00000060H
  005e2	5f		 pop	 edi
  005e3	5e		 pop	 esi
  005e4	5d		 pop	 ebp
  005e5	5b		 pop	 ebx

; 725  :             }
; 726  : 			break;
; 727  : 	}
; 728  : }

  005e6	83 c4 08	 add	 esp, 8
  005e9	c2 08 00	 ret	 8
$L123766:

; 637  :             break;
; 638  : 
; 639  : 		case SPARK_Flocks:
; 640  : 			Sparks(S).ByteA  = 128;

  005ec	8b 8e fc 00 00
	00		 mov	 ecx, DWORD PTR [esi+252]
  005f2	b0 80		 mov	 al, 128			; 00000080H
  005f4	88 44 f9 04	 mov	 BYTE PTR [ecx+edi*8+4], al

; 641  : 			Sparks(S).ByteB  = FX_Size;   // Lifetime

  005f8	8a 8e e9 00 00
	00		 mov	 cl, BYTE PTR [esi+233]
  005fe	8b 96 fc 00 00
	00		 mov	 edx, DWORD PTR [esi+252]
  00604	88 4c fa 05	 mov	 BYTE PTR [edx+edi*8+5], cl

; 642  : 			Sparks(S).ByteC  = 128;

  00608	8b 96 fc 00 00
	00		 mov	 edx, DWORD PTR [esi+252]
  0060e	88 44 fa 06	 mov	 BYTE PTR [edx+edi*8+6], al

; 643  : 			Sparks(S).ByteD  = (255-FX_Area);   // spawn direction delta

  00612	8a 8e eb 00 00
	00		 mov	 cl, BYTE PTR [esi+235]
  00618	0c ff		 or	 al, 255			; 000000ffH
  0061a	2a c1		 sub	 al, cl
  0061c	8b 8e fc 00 00
	00		 mov	 ecx, DWORD PTR [esi+252]
  00622	88 44 f9 07	 mov	 BYTE PTR [ecx+edi*8+7], al
  00626	5f		 pop	 edi
  00627	5e		 pop	 esi
  00628	5d		 pop	 ebp
  00629	5b		 pop	 ebx

; 725  :             }
; 726  : 			break;
; 727  : 	}
; 728  : }

  0062a	83 c4 08	 add	 esp, 8
  0062d	c2 08 00	 ret	 8
$L123767:

; 644  : 			break;
; 645  : 
; 646  : 		case SPARK_Wheel:  // Swirly emitter.
; 647  : 			Sparks(S).ByteA  = FX_Phase;  // Initial spawn dir.

  00630	8b 96 fc 00 00
	00		 mov	 edx, DWORD PTR [esi+252]
  00636	8a 86 ed 00 00
	00		 mov	 al, BYTE PTR [esi+237]
  0063c	88 44 fa 04	 mov	 BYTE PTR [edx+edi*8+4], al

; 648  : 			Sparks(S).ByteB  = FX_Size;   // Lifetime

  00640	8b 8e fc 00 00
	00		 mov	 ecx, DWORD PTR [esi+252]
  00646	8a 96 e9 00 00
	00		 mov	 dl, BYTE PTR [esi+233]
  0064c	88 54 f9 05	 mov	 BYTE PTR [ecx+edi*8+5], dl

; 649  : 			Sparks(S).ByteC  = FX_Frequency; 

  00650	8b 86 fc 00 00
	00		 mov	 eax, DWORD PTR [esi+252]
  00656	8a 8e ec 00 00
	00		 mov	 cl, BYTE PTR [esi+236]
  0065c	88 4c f8 06	 mov	 BYTE PTR [eax+edi*8+6], cl

; 650  : 			Sparks(S).ByteD  = (255-FX_Area);   // spawn direction delta

  00660	8a 86 eb 00 00
	00		 mov	 al, BYTE PTR [esi+235]
  00666	80 ca ff	 or	 dl, 255			; 000000ffH
  00669	2a d0		 sub	 dl, al
  0066b	8b 86 fc 00 00
	00		 mov	 eax, DWORD PTR [esi+252]
  00671	88 54 f8 07	 mov	 BYTE PTR [eax+edi*8+7], dl
  00675	5f		 pop	 edi
  00676	5e		 pop	 esi
  00677	5d		 pop	 ebp
  00678	5b		 pop	 ebx

; 725  :             }
; 726  : 			break;
; 727  : 	}
; 728  : }

  00679	83 c4 08	 add	 esp, 8
  0067c	c2 08 00	 ret	 8
$L123768:

; 651  : 			break;
; 652  : 	
; 653  : 		case SPARK_Sprinkler: 
; 654  : 			Sparks(S).ByteA  = FX_Phase;  // Initial spawn dir.

  0067f	8b 8e fc 00 00
	00		 mov	 ecx, DWORD PTR [esi+252]
  00685	8a 96 ed 00 00
	00		 mov	 dl, BYTE PTR [esi+237]
  0068b	88 54 f9 04	 mov	 BYTE PTR [ecx+edi*8+4], dl

; 655  : 			Sparks(S).ByteB  = - 128;

  0068f	8b 8e fc 00 00
	00		 mov	 ecx, DWORD PTR [esi+252]
  00695	b0 80		 mov	 al, 128			; 00000080H
  00697	88 44 f9 05	 mov	 BYTE PTR [ecx+edi*8+5], al

; 656  : 			Sparks(S).ByteC  = 128;       // lifetime

  0069b	8b 96 fc 00 00
	00		 mov	 edx, DWORD PTR [esi+252]
  006a1	88 44 fa 06	 mov	 BYTE PTR [edx+edi*8+6], al
$L132181:

; 657  : 			Sparks(S).ByteD  = FX_Frequency;

  006a5	8b 86 fc 00 00
	00		 mov	 eax, DWORD PTR [esi+252]
  006ab	8a 8e ec 00 00
	00		 mov	 cl, BYTE PTR [esi+236]
  006b1	88 4c f8 07	 mov	 BYTE PTR [eax+edi*8+7], cl
  006b5	5f		 pop	 edi
  006b6	5e		 pop	 esi
  006b7	5d		 pop	 ebp
  006b8	5b		 pop	 ebx

; 725  :             }
; 726  : 			break;
; 727  : 	}
; 728  : }

  006b9	83 c4 08	 add	 esp, 8
  006bc	c2 08 00	 ret	 8
$L123769:

; 658  : 			break;
; 659  : 
; 660  : 		case SPARK_Gametes: 
; 661  : 			Sparks(S).ByteC  = FX_Size;    // Lifetime of spawned spermatozoids.

  006bf	8b 96 fc 00 00
	00		 mov	 edx, DWORD PTR [esi+252]
  006c5	8a 86 e9 00 00
	00		 mov	 al, BYTE PTR [esi+233]
  006cb	88 44 fa 06	 mov	 BYTE PTR [edx+edi*8+6], al
  006cf	5f		 pop	 edi
  006d0	5e		 pop	 esi
  006d1	5d		 pop	 ebp
  006d2	5b		 pop	 ebx

; 725  :             }
; 726  : 			break;
; 727  : 	}
; 728  : }

  006d3	83 c4 08	 add	 esp, 8
  006d6	c2 08 00	 ret	 8
$L123770:

; 662  : 			break;
; 663  : 
; 664  : 		case SPARK_LocalCloud:
; 665  : 			Sparks(S).ByteC  = FX_Area;

  006d9	8b 8e fc 00 00
	00		 mov	 ecx, DWORD PTR [esi+252]
  006df	8a 96 eb 00 00
	00		 mov	 dl, BYTE PTR [esi+235]
  006e5	88 54 f9 06	 mov	 BYTE PTR [ecx+edi*8+6], dl
$L123771:

; 666  : 			Sparks(S).ByteA  = FX_HorizSpeed - 128;         

  006e9	8a 86 ee 00 00
	00		 mov	 al, BYTE PTR [esi+238]
  006ef	8b 8e fc 00 00
	00		 mov	 ecx, DWORD PTR [esi+252]
  006f5	04 80		 add	 al, 128			; 00000080H
  006f7	88 44 f9 04	 mov	 BYTE PTR [ecx+edi*8+4], al

; 667  :             Sparks(S).ByteB  = (255 ^ FX_VertSpeed) - 128;  

  006fb	8a 96 ef 00 00
	00		 mov	 dl, BYTE PTR [esi+239]
  00701	8b 86 fc 00 00
	00		 mov	 eax, DWORD PTR [esi+252]
  00707	f6 d2		 not	 dl
  00709	80 c2 80	 add	 dl, 128			; 00000080H
  0070c	88 54 f8 05	 mov	 BYTE PTR [eax+edi*8+5], dl

; 668  : 			Sparks(S).ByteD  = 255-FX_Size;

  00710	8a 86 e9 00 00
	00		 mov	 al, BYTE PTR [esi+233]
  00716	8b 96 fc 00 00
	00		 mov	 edx, DWORD PTR [esi+252]
  0071c	80 c9 ff	 or	 cl, 255			; 000000ffH
  0071f	2a c8		 sub	 cl, al
  00721	88 4c fa 07	 mov	 BYTE PTR [edx+edi*8+7], cl
  00725	5f		 pop	 edi
  00726	5e		 pop	 esi
  00727	5d		 pop	 ebp
  00728	5b		 pop	 ebx

; 725  :             }
; 726  : 			break;
; 727  : 	}
; 728  : }

  00729	83 c4 08	 add	 esp, 8
  0072c	c2 08 00	 ret	 8
  0072f	90		 npad	 1
$L123773:

; 669  : 			break;
; 670  : 
; 671  : 		case SPARK_CustomCloud:
; 672  : 			Sparks(S).ByteA  = FX_HorizSpeed - 128;         
; 673  :             Sparks(S).ByteB  = (255 ^ FX_VertSpeed) - 128;  
; 674  : 			Sparks(S).ByteD  = 255-FX_Size;
; 675  : 			break;
; 676  : 
; 677  :         case SPARK_LineLightning: // 2-point lightning bolts.
; 678  :         case SPARK_RampLightning: 
; 679  :             // We have a new spark if no other was an 'open' one.
; 680  : 			// Not always the last one since short-lived sparks may shuffle the spark
; 681  : 			// order at any moment.
; 682  :             do { S--; }

  00730	4f		 dec	 edi

; 683  : 			while( (S>=0) && !( (Sparks(S).Type == SparkType) && (Sparks(S).ByteD == 0))  );

  00731	0f 88 b2 00 00
	00		 js	 $L123777
  00737	8b ae fc 00 00
	00		 mov	 ebp, DWORD PTR [esi+252]
  0073d	38 4c fd 00	 cmp	 BYTE PTR [ebp+edi*8], cl
  00741	8d 6c fd 00	 lea	 ebp, DWORD PTR [ebp+edi*8]
  00745	75 e9		 jne	 SHORT $L123773
  00747	38 55 07	 cmp	 BYTE PTR [ebp+7], dl
  0074a	75 e4		 jne	 SHORT $L123773

; 684  : 
; 685  :             if( S>=0 )
; 686  :             // Open point found, draw it while being stretched.
; 687  :             {
; 688  :                 ActiveSparkNum--; // so don't allocate 'current' spark

  0074c	ff 8e f8 00 00
	00		 dec	 DWORD PTR [esi+248]

; 689  : 
; 690  : 				// Refresh to 'starting' point
; 691  : 				Sparks(S).X  = LightPinX;

  00752	8b 8e fc 00 00
	00		 mov	 ecx, DWORD PTR [esi+252]
  00758	89 54 24 20	 mov	 DWORD PTR 12+[esp+20], edx
  0075c	8a 15 00 00 00
	00		 mov	 dl, BYTE PTR ?LightPinX@?1??AddSpark@UFireTexture@@AAEXHH@Z@4HA
  00762	88 54 f9 02	 mov	 BYTE PTR [ecx+edi*8+2], dl

; 692  : 				Sparks(S).Y  = LightPinY;

  00766	8b 8e fc 00 00
	00		 mov	 ecx, DWORD PTR [esi+252]
  0076c	8a 15 00 00 00
	00		 mov	 dl, BYTE PTR ?LightPinY@?1??AddSpark@UFireTexture@@AAEXHH@Z@4HA
  00772	88 54 f9 03	 mov	 BYTE PTR [ecx+edi*8+3], dl

; 693  : 
; 694  :                 // Dragging the lightning: Must have a heat value.
; 695  :                 // Close it by setting ByteD = heat ?
; 696  :                 // To nonzero, eventually.
; 697  : 
; 698  :                 Sparks(S).Heat = 3 | (FX_Heat); // Brightness.

  00776	8a 8e e8 00 00
	00		 mov	 cl, BYTE PTR [esi+232]
  0077c	8b ae fc 00 00
	00		 mov	 ebp, DWORD PTR [esi+252]
  00782	80 c9 03	 or	 cl, 3

; 699  : 
; 700  :                 INT  LenX = MouseX - (INT)Sparks(S).X;
; 701  :                 INT  LenY = MouseY - (INT)Sparks(S).Y;

  00785	8b 54 24 20	 mov	 edx, DWORD PTR 12+[esp+20]
  00789	88 4c fd 01	 mov	 BYTE PTR [ebp+edi*8+1], cl
  0078d	8b 8e fc 00 00
	00		 mov	 ecx, DWORD PTR [esi+252]
  00793	8d 2c f9	 lea	 ebp, DWORD PTR [ecx+edi*8]
  00796	33 c9		 xor	 ecx, ecx
  00798	8a 4d 02	 mov	 cl, BYTE PTR [ebp+2]
  0079b	2b c1		 sub	 eax, ecx
  0079d	33 c9		 xor	 ecx, ecx
  0079f	8a 4d 03	 mov	 cl, BYTE PTR [ebp+3]
  007a2	2b d9		 sub	 ebx, ecx

; 702  : 
; 703  : 				if( LenX<0 )	LenX  = (- LenX) | 1;

  007a4	3b c2		 cmp	 eax, edx
  007a6	7d 07		 jge	 SHORT $L123782
  007a8	f7 d8		 neg	 eax
  007aa	83 c8 01	 or	 eax, 1

; 704  :                 else			LenX &= 0xFFFFFFFE;

  007ad	eb 03		 jmp	 SHORT $L123783
$L123782:
  007af	83 e0 fe	 and	 eax, -2			; fffffffeH
$L123783:

; 705  : 				if( LenY<0 )	LenY  = (- LenY) | 1;

  007b2	3b da		 cmp	 ebx, edx
  007b4	7d 07		 jge	 SHORT $L123784
  007b6	f7 db		 neg	 ebx
  007b8	83 cb 01	 or	 ebx, 1

; 706  :                 else			LenY &= 0xFFFFFFFE;

  007bb	eb 03		 jmp	 SHORT $L123785
$L123784:
  007bd	83 e3 fe	 and	 ebx, -2			; fffffffeH
$L123785:

; 707  : 
; 708  :                 if( (LenX == 0) && (LenY == 0) )

  007c0	3b c2		 cmp	 eax, edx
  007c2	75 07		 jne	 SHORT $L123786
  007c4	3b da		 cmp	 ebx, edx
  007c6	75 03		 jne	 SHORT $L123786

; 709  :                     Sparks(S).Heat=0;  // too short!

  007c8	88 55 01	 mov	 BYTE PTR [ebp+1], dl
$L123786:

; 710  : 
; 711  :                 Sparks(S).ByteA = LenX;

  007cb	8b 96 fc 00 00
	00		 mov	 edx, DWORD PTR [esi+252]
  007d1	88 44 fa 04	 mov	 BYTE PTR [edx+edi*8+4], al

; 712  :                 Sparks(S).ByteB = LenY;

  007d5	8b 86 fc 00 00
	00		 mov	 eax, DWORD PTR [esi+252]
  007db	88 5c f8 05	 mov	 BYTE PTR [eax+edi*8+5], bl
  007df	5f		 pop	 edi
  007e0	5e		 pop	 esi
  007e1	5d		 pop	 ebp
  007e2	5b		 pop	 ebx

; 725  :             }
; 726  : 			break;
; 727  : 	}
; 728  : }

  007e3	83 c4 08	 add	 esp, 8
  007e6	c2 08 00	 ret	 8
$L123777:

; 713  :                 // ByteD Stays 0 while drawing to indicate open bolt.
; 714  : 
; 715  :             } // Open point found.
; 716  : 
; 717  :             else
; 718  : 
; 719  :             { // No open point found: new lightning thing.
; 720  :                 S = ActiveSparkNum - 1;

  007e9	8b 8e f8 00 00
	00		 mov	 ecx, DWORD PTR [esi+248]

; 721  :                 Sparks(S).ByteD=0; // Signify open bolt.

  007ef	8b be fc 00 00
	00		 mov	 edi, DWORD PTR [esi+252]
  007f5	49		 dec	 ecx
  007f6	88 54 cf 07	 mov	 BYTE PTR [edi+ecx*8+7], dl

; 722  : 				Sparks(S).Heat =0; //

  007fa	8b b6 fc 00 00
	00		 mov	 esi, DWORD PTR [esi+252]
  00800	88 54 ce 01	 mov	 BYTE PTR [esi+ecx*8+1], dl

; 723  : 				LightPinX = MouseX;

  00804	a3 00 00 00 00	 mov	 DWORD PTR ?LightPinX@?1??AddSpark@UFireTexture@@AAEXHH@Z@4HA, eax

; 724  : 				LightPinY = MouseY;

  00809	89 1d 00 00 00
	00		 mov	 DWORD PTR ?LightPinY@?1??AddSpark@UFireTexture@@AAEXHH@Z@4HA, ebx
$L123787:
  0080f	5f		 pop	 edi
  00810	5e		 pop	 esi
  00811	5d		 pop	 ebp
  00812	5b		 pop	 ebx

; 725  :             }
; 726  : 			break;
; 727  : 	}
; 728  : }

  00813	83 c4 08	 add	 esp, 8
  00816	c2 08 00	 ret	 8
  00819	8d 49 00	 npad	 3
$L132182:
  0081c	00 00 00 00	 DD	 $L123727
  00820	00 00 00 00	 DD	 $L123728
  00824	00 00 00 00	 DD	 $L123729
  00828	00 00 00 00	 DD	 $L123787
  0082c	00 00 00 00	 DD	 $L123787
  00830	00 00 00 00	 DD	 $L123787
  00834	00 00 00 00	 DD	 $L123733
  00838	00 00 00 00	 DD	 $L123733
  0083c	00 00 00 00	 DD	 $L123739
  00840	00 00 00 00	 DD	 $L123739
  00844	00 00 00 00	 DD	 $L123761
  00848	00 00 00 00	 DD	 $L123760
  0084c	00 00 00 00	 DD	 $L123737
  00850	00 00 00 00	 DD	 $L123737
  00854	00 00 00 00	 DD	 $L123766
  00858	00 00 00 00	 DD	 $L123769
  0085c	00 00 00 00	 DD	 $L123731
  00860	00 00 00 00	 DD	 $L123787
  00864	00 00 00 00	 DD	 $L123787
  00868	00 00 00 00	 DD	 $L123771
  0086c	00 00 00 00	 DD	 $L123770
  00870	00 00 00 00	 DD	 $L123730
  00874	00 00 00 00	 DD	 $L123773
  00878	00 00 00 00	 DD	 $L123773
  0087c	00 00 00 00	 DD	 $L123764
  00880	00 00 00 00	 DD	 $L123767
  00884	00 00 00 00	 DD	 $L123769
  00888	00 00 00 00	 DD	 $L123768
?AddSpark@UFireTexture@@AAEXHH@Z ENDP			; UFireTexture::AddSpark
_TEXT	ENDS
PUBLIC	?CloseSpark@UFireTexture@@AAEXHH@Z		; UFireTexture::CloseSpark
; Function compile flags: /Ogty
;	COMDAT ?CloseSpark@UFireTexture@@AAEXHH@Z
_TEXT	SEGMENT
?CloseSpark@UFireTexture@@AAEXHH@Z PROC NEAR		; UFireTexture::CloseSpark, COMDAT
; _this$ = ecx

; 732  : {

  00000	56		 push	 esi

; 733  :     INT  S = ActiveSparkNum; // Sparks[S=0] is only one if ActiveSparkNum = 1.

  00001	8b b1 f8 00 00
	00		 mov	 esi, DWORD PTR [ecx+248]
$L123794:

; 734  : 
; 735  : 	        // Warning: extremely kludgy.
; 736  :             // Find ANY old spark of type 17/18 which has an 'open' end.
; 737  :             do { S--; } while( (S>=0) && !(	(

  00007	4e		 dec	 esi

; 738  : 				                   (Sparks(S).Type == SPARK_LineLightning)
; 739  : 							    || (Sparks(S).Type == SPARK_RampLightning)
; 740  : 								)
; 741  : 								&& (Sparks(S).ByteD == 0))  );

  00008	78 3c		 js	 SHORT $L123800
  0000a	8b 81 fc 00 00
	00		 mov	 eax, DWORD PTR [ecx+252]
  00010	8d 14 f0	 lea	 edx, DWORD PTR [eax+esi*8]
  00013	8a 02		 mov	 al, BYTE PTR [edx]
  00015	3c 17		 cmp	 al, 23			; 00000017H
  00017	74 04		 je	 SHORT $L123798
  00019	3c 18		 cmp	 al, 24			; 00000018H
  0001b	75 ea		 jne	 SHORT $L123794
$L123798:
  0001d	8a 42 07	 mov	 al, BYTE PTR [edx+7]
  00020	84 c0		 test	 al, al
  00022	75 e3		 jne	 SHORT $L123794

; 742  :             if( S>=0 )
; 743  :             // Open point found, closin' it.
; 744  :             {
; 745  :                 // ByteD, minimally 1...
; 746  : 				Sparks(S).ByteD  = FX_Frequency;

  00024	8a 81 ec 00 00
	00		 mov	 al, BYTE PTR [ecx+236]
  0002a	8b 91 fc 00 00
	00		 mov	 edx, DWORD PTR [ecx+252]
  00030	88 44 f2 07	 mov	 BYTE PTR [edx+esi*8+7], al

; 747  : 				if( Sparks(S).ByteD == 0 ) Sparks(S).ByteD = 1; // Ensure != 0.

  00034	8b 89 fc 00 00
	00		 mov	 ecx, DWORD PTR [ecx+252]
  0003a	8d 44 f1 07	 lea	 eax, DWORD PTR [ecx+esi*8+7]
  0003e	80 38 00	 cmp	 BYTE PTR [eax], 0
  00041	75 03		 jne	 SHORT $L123800
  00043	c6 00 01	 mov	 BYTE PTR [eax], 1
$L123800:
  00046	5e		 pop	 esi

; 748  : 			}
; 749  : }

  00047	c2 08 00	 ret	 8
?CloseSpark@UFireTexture@@AAEXHH@Z ENDP			; UFireTexture::CloseSpark
_TEXT	ENDS
PUBLIC	?DeleteSparks@UFireTexture@@AAEXHHH@Z		; UFireTexture::DeleteSparks
; Function compile flags: /Ogty
;	COMDAT ?DeleteSparks@UFireTexture@@AAEXHHH@Z
_TEXT	SEGMENT
_SparkX$ = 8
_SparkY$ = 12
_AreaWidth$ = 16
?DeleteSparks@UFireTexture@@AAEXHHH@Z PROC NEAR		; UFireTexture::DeleteSparks, COMDAT
; _this$ = ecx

; 758  : {

  00000	55		 push	 ebp

; 759  :     if( ActiveSparkNum > 0 )

  00001	8b a9 f8 00 00
	00		 mov	 ebp, DWORD PTR [ecx+248]
  00007	85 ed		 test	 ebp, ebp
  00009	56		 push	 esi
  0000a	7e 5c		 jle	 SHORT $L123811

; 760  : 	{
; 761  : 		for( INT S=0; S<ActiveSparkNum; S++ )

  0000c	33 f6		 xor	 esi, esi
  0000e	85 ed		 test	 ebp, ebp
  00010	7e 56		 jle	 SHORT $L123811
  00012	53		 push	 ebx
  00013	57		 push	 edi
$L123809:

; 762  : 		{
; 763  : 			// Diamond-shaped eraser.
; 764  : 			if( AreaWidth >= Abs(SparkX - Sparks(S).X) + Abs(SparkY - Sparks(S).Y ) )

  00014	8b 81 fc 00 00
	00		 mov	 eax, DWORD PTR [ecx+252]
  0001a	33 d2		 xor	 edx, edx
  0001c	8a 54 f0 02	 mov	 dl, BYTE PTR [eax+esi*8+2]
  00020	8b fa		 mov	 edi, edx
  00022	8b 54 24 14	 mov	 edx, DWORD PTR _SparkX$[esp+12]
  00026	2b d7		 sub	 edx, edi
  00028	79 02		 jns	 SHORT $L132216
  0002a	f7 da		 neg	 edx
$L132216:
  0002c	8b 7c 24 18	 mov	 edi, DWORD PTR _SparkY$[esp+12]
  00030	33 db		 xor	 ebx, ebx
  00032	8a 5c f0 03	 mov	 bl, BYTE PTR [eax+esi*8+3]
  00036	2b fb		 sub	 edi, ebx
  00038	79 02		 jns	 SHORT $L132227
  0003a	f7 df		 neg	 edi
$L132227:
  0003c	03 fa		 add	 edi, edx
  0003e	39 7c 24 1c	 cmp	 DWORD PTR _AreaWidth$[esp+12], edi
  00042	7c 17		 jl	 SHORT $L123810

; 765  : 			{
; 766  : 				// Delete spark by replacing it with last one (+ delete last one).
; 767  : 				INT LastSpark = --ActiveSparkNum;

  00044	8d 55 ff	 lea	 edx, DWORD PTR [ebp-1]
  00047	89 91 f8 00 00
	00		 mov	 DWORD PTR [ecx+248], edx

; 768  : 				Sparks(S) =   Sparks(LastSpark);

  0004d	8b 3c d0	 mov	 edi, DWORD PTR [eax+edx*8]
  00050	89 3c f0	 mov	 DWORD PTR [eax+esi*8], edi
  00053	8b 54 d0 04	 mov	 edx, DWORD PTR [eax+edx*8+4]
  00057	89 54 f0 04	 mov	 DWORD PTR [eax+esi*8+4], edx
$L123810:
  0005b	8b a9 f8 00 00
	00		 mov	 ebp, DWORD PTR [ecx+248]
  00061	46		 inc	 esi
  00062	3b f5		 cmp	 esi, ebp
  00064	7c ae		 jl	 SHORT $L123809
  00066	5f		 pop	 edi
  00067	5b		 pop	 ebx
$L123811:
  00068	5e		 pop	 esi
  00069	5d		 pop	 ebp

; 769  : 			}
; 770  : 		}
; 771  : 	}
; 772  : }

  0006a	c2 0c 00	 ret	 12			; 0000000cH
?DeleteSparks@UFireTexture@@AAEXHHH@Z ENDP		; UFireTexture::DeleteSparks
_TEXT	ENDS
PUBLIC	?DrawSparkLine@UFireTexture@@AAEXHHHHH@Z	; UFireTexture::DrawSparkLine
; Function compile flags: /Ogty
;	COMDAT ?DrawSparkLine@UFireTexture@@AAEXHHHHH@Z
_TEXT	SEGMENT
_StartX$ = 8
_StartY$ = 12
_DestX$ = 16
_DestY$ = 20
_this$ = -4
_Xinc$ = 16
_Yinc$ = 8
_DivY2$123851 = 12
_DivX2$123861 = 12
?DrawSparkLine@UFireTexture@@AAEXHHHHH@Z PROC NEAR	; UFireTexture::DrawSparkLine, COMDAT
; _this$ = ecx

; 780  : {

  00000	51		 push	 ecx

; 781  :     INT  Xinc, Yinc;
; 782  : 
; 783  :     INT  DivX = DestX - StartX;

  00001	8b 44 24 10	 mov	 eax, DWORD PTR _DestX$[esp]
  00005	53		 push	 ebx
  00006	55		 push	 ebp
  00007	56		 push	 esi
  00008	8b 74 24 14	 mov	 esi, DWORD PTR _StartX$[esp+12]
  0000c	89 4c 24 0c	 mov	 DWORD PTR _this$[esp+16], ecx

; 784  :     INT  DivY = DestY - StartY;

  00010	8b 4c 24 20	 mov	 ecx, DWORD PTR _DestY$[esp+12]
  00014	57		 push	 edi
  00015	8b 7c 24 1c	 mov	 edi, DWORD PTR _StartY$[esp+16]
  00019	2b c6		 sub	 eax, esi
  0001b	2b cf		 sub	 ecx, edi

; 785  : 
; 786  :     if( (DivX == 0) && (DivY == 0) )

  0001d	83 ca ff	 or	 edx, -1
  00020	85 c0		 test	 eax, eax
  00022	75 0a		 jne	 SHORT $L132262
  00024	85 c9		 test	 ecx, ecx
  00026	0f 84 e2 00 00
	00		 je	 $L123867

; 787  :         return;
; 788  : 
; 789  :     if( DivX<0 )

  0002c	eb 14		 jmp	 SHORT $L123836
$L132262:
  0002e	7d 06		 jge	 SHORT $L123834

; 790  :         Xinc = -1;

  00030	89 54 24 20	 mov	 DWORD PTR _Xinc$[esp+16], edx

; 791  :     else

  00034	eb 14		 jmp	 SHORT $L123837
$L123834:

; 792  :     {
; 793  :         if( DivX>0 )

  00036	85 c0		 test	 eax, eax

; 794  :             Xinc = 1;

  00038	c7 44 24 20 01
	00 00 00	 mov	 DWORD PTR _Xinc$[esp+16], 1
  00040	7f 08		 jg	 SHORT $L123837
$L123836:

; 795  :         else
; 796  :             Xinc=0;

  00042	c7 44 24 20 00
	00 00 00	 mov	 DWORD PTR _Xinc$[esp+16], 0
$L123837:

; 797  :     }
; 798  : 
; 799  :     if( DivY<0 )

  0004a	85 c9		 test	 ecx, ecx

; 800  :         Yinc = -1;
; 801  :     else

  0004c	7c 07		 jl	 SHORT $L132263

; 802  :     {
; 803  :         if( DivY>0 )

  0004e	33 d2		 xor	 edx, edx
  00050	85 c9		 test	 ecx, ecx
  00052	0f 9f c2	 setg	 dl
$L132263:

; 804  :             Yinc = 1;
; 805  :         else
; 806  :             Yinc=0;
; 807  :     }
; 808  : 
; 809  :     DivX = Abs(DivX);

  00055	85 c0		 test	 eax, eax
  00057	89 54 24 18	 mov	 DWORD PTR _Yinc$[esp+16], edx
  0005b	7d 02		 jge	 SHORT $L132247
  0005d	f7 d8		 neg	 eax
$L132247:

; 810  :     DivY = Abs(DivY);

  0005f	85 c9		 test	 ecx, ecx
  00061	7d 02		 jge	 SHORT $L132254
  00063	f7 d9		 neg	 ecx
$L132254:

; 811  : 
; 812  :     INT  Xpoint = StartX;
; 813  :     INT  Ypoint = StartY;
; 814  : 
; 815  :     if( DivX>=DivY )   // Draw line based on X loop.

  00065	3b c1		 cmp	 eax, ecx
  00067	8b de		 mov	 ebx, esi
  00069	7c 5b		 jl	 SHORT $L123850

; 816  :     {
; 817  :         INT  DivY2  = DivY + DivY;

  0006b	03 c9		 add	 ecx, ecx

; 818  :         INT  Diff   = DivY2 - DivX;

  0006d	8b f1		 mov	 esi, ecx

; 819  :         INT  DivXY2 = DivY2 - DivX - DivX;

  0006f	8d 14 00	 lea	 edx, DWORD PTR [eax+eax]
  00072	8b e9		 mov	 ebp, ecx
  00074	2b f0		 sub	 esi, eax
  00076	2b ea		 sub	 ebp, edx

; 820  : 
; 821  :         for( INT LCount = 1; LCount<=DivX; LCount++ )

  00078	83 f8 01	 cmp	 eax, 1
  0007b	89 4c 24 1c	 mov	 DWORD PTR _DivY2$123851[esp+16], ecx
  0007f	0f 8c 89 00 00
	00		 jl	 $L123867

; 816  :     {
; 817  :         INT  DivY2  = DivY + DivY;

  00085	89 44 24 24	 mov	 DWORD PTR 20+[esp+16], eax

; 853  :         }
; 854  :     }
; 855  : }

  00089	8d a4 24 00 00
	00 00		 npad	 7
$L123855:

; 822  :         {
; 823  :             AddSpark(Xpoint,Ypoint);

  00090	8b 4c 24 10	 mov	 ecx, DWORD PTR _this$[esp+20]
  00094	57		 push	 edi
  00095	53		 push	 ebx
  00096	e8 00 00 00 00	 call	 ?AddSpark@UFireTexture@@AAEXHH@Z ; UFireTexture::AddSpark

; 824  : 
; 825  :             if( Diff<0 )

  0009b	85 f6		 test	 esi, esi
  0009d	7d 06		 jge	 SHORT $L123858

; 826  :                 Diff += DivY2;

  0009f	03 74 24 1c	 add	 esi, DWORD PTR _DivY2$123851[esp+16]

; 827  :             else

  000a3	eb 08		 jmp	 SHORT $L123859
$L123858:

; 828  :             {
; 829  :                 Diff   += DivXY2;
; 830  :                 Ypoint += Yinc;

  000a5	8b 44 24 18	 mov	 eax, DWORD PTR _Yinc$[esp+16]
  000a9	03 f5		 add	 esi, ebp
  000ab	03 f8		 add	 edi, eax
$L123859:

; 831  :             }
; 832  :         Xpoint += Xinc;

  000ad	8b 4c 24 20	 mov	 ecx, DWORD PTR _Xinc$[esp+16]
  000b1	8b 44 24 24	 mov	 eax, DWORD PTR 20+[esp+16]
  000b5	03 d9		 add	 ebx, ecx
  000b7	48		 dec	 eax
  000b8	89 44 24 24	 mov	 DWORD PTR 20+[esp+16], eax
  000bc	75 d2		 jne	 SHORT $L123855
  000be	5f		 pop	 edi
  000bf	5e		 pop	 esi
  000c0	5d		 pop	 ebp
  000c1	5b		 pop	 ebx

; 853  :         }
; 854  :     }
; 855  : }

  000c2	59		 pop	 ecx
  000c3	c2 14 00	 ret	 20			; 00000014H
$L123850:

; 833  :         }
; 834  :     }
; 835  :     else    // Draw line based on Y loop.
; 836  :     {
; 837  :         INT  DivX2  = DivX  + DivX;

  000c6	03 c0		 add	 eax, eax

; 838  :         INT  Diff   = DivX2 - DivY;

  000c8	8b f0		 mov	 esi, eax

; 839  :         INT  DivXY2 = DivX2 - DivY - DivY;

  000ca	8d 14 09	 lea	 edx, DWORD PTR [ecx+ecx]
  000cd	8b e8		 mov	 ebp, eax
  000cf	2b f1		 sub	 esi, ecx
  000d1	2b ea		 sub	 ebp, edx

; 840  : 
; 841  :         for( INT LCount = 1; LCount<=DivY; LCount++ )

  000d3	83 f9 01	 cmp	 ecx, 1
  000d6	89 44 24 1c	 mov	 DWORD PTR _DivX2$123861[esp+16], eax
  000da	7c 32		 jl	 SHORT $L123867

; 833  :         }
; 834  :     }
; 835  :     else    // Draw line based on Y loop.
; 836  :     {
; 837  :         INT  DivX2  = DivX  + DivX;

  000dc	89 4c 24 24	 mov	 DWORD PTR 20+[esp+16], ecx
$L123865:

; 842  :         {
; 843  :             AddSpark(Xpoint,Ypoint);

  000e0	8b 4c 24 10	 mov	 ecx, DWORD PTR _this$[esp+20]
  000e4	57		 push	 edi
  000e5	53		 push	 ebx
  000e6	e8 00 00 00 00	 call	 ?AddSpark@UFireTexture@@AAEXHH@Z ; UFireTexture::AddSpark

; 844  : 
; 845  :             if( Diff<0 )

  000eb	85 f6		 test	 esi, esi
  000ed	7d 06		 jge	 SHORT $L123868

; 846  :                 Diff += DivX2;

  000ef	03 74 24 1c	 add	 esi, DWORD PTR _DivX2$123861[esp+16]

; 847  :             else

  000f3	eb 08		 jmp	 SHORT $L123869
$L123868:

; 848  :             {
; 849  :                 Diff   += DivXY2;
; 850  :                 Xpoint += Xinc;

  000f5	8b 44 24 20	 mov	 eax, DWORD PTR _Xinc$[esp+16]
  000f9	03 f5		 add	 esi, ebp
  000fb	03 d8		 add	 ebx, eax
$L123869:

; 851  :             }
; 852  :             Ypoint += Yinc;

  000fd	8b 4c 24 18	 mov	 ecx, DWORD PTR _Yinc$[esp+16]
  00101	8b 44 24 24	 mov	 eax, DWORD PTR 20+[esp+16]
  00105	03 f9		 add	 edi, ecx
  00107	48		 dec	 eax
  00108	89 44 24 24	 mov	 DWORD PTR 20+[esp+16], eax
  0010c	75 d2		 jne	 SHORT $L123865
$L123867:
  0010e	5f		 pop	 edi
  0010f	5e		 pop	 esi
  00110	5d		 pop	 ebp
  00111	5b		 pop	 ebx

; 853  :         }
; 854  :     }
; 855  : }

  00112	59		 pop	 ecx
  00113	c2 14 00	 ret	 20			; 00000014H
?DrawSparkLine@UFireTexture@@AAEXHHHHH@Z ENDP		; UFireTexture::DrawSparkLine
_TEXT	ENDS
PUBLIC	?FirePaint@UFireTexture@@AAEXHHK@Z		; UFireTexture::FirePaint
; Function compile flags: /Ogty
;	COMDAT ?FirePaint@UFireTexture@@AAEXHHK@Z
_TEXT	SEGMENT
_MouseX$ = 8
_MouseY$ = 12
_Buttons$ = 16
_RightButton$ = -4
_LeftButton$ = -16
_PosChanged$ = 16
_RightChanged$ = -8
_LeftChanged$ = -12
?FirePaint@UFireTexture@@AAEXHHK@Z PROC NEAR		; UFireTexture::FirePaint, COMDAT
; _this$ = ecx

; 865  : {

  00000	83 ec 10	 sub	 esp, 16			; 00000010H

; 866  : 	UBOOL RightButton = (Buttons & MOUSE_Right);

  00003	8b 44 24 1c	 mov	 eax, DWORD PTR _Buttons$[esp+12]

; 867  : 	UBOOL  LeftButton = (Buttons & MOUSE_Left);
; 868  : 
; 869  : 	// Perform painting.
; 870  :     static INT  LastMouseX=0, LastMouseY=0, LastLeftButton=0, LastRightButton=0;
; 871  : 
; 872  :     UBOOL  PosChanged   = ((LastMouseX != MouseX) || (LastMouseY != MouseY));

  00007	8b 15 00 00 00
	00		 mov	 edx, DWORD PTR ?LastMouseY@?1??FirePaint@UFireTexture@@AAEXHHK@Z@4HA
  0000d	53		 push	 ebx
  0000e	8b 5c 24 18	 mov	 ebx, DWORD PTR _MouseX$[esp+16]
  00012	55		 push	 ebp
  00013	56		 push	 esi
  00014	8b f0		 mov	 esi, eax
  00016	83 e0 01	 and	 eax, 1
  00019	8b e8		 mov	 ebp, eax
  0001b	a1 00 00 00 00	 mov	 eax, DWORD PTR ?LastMouseX@?1??FirePaint@UFireTexture@@AAEXHHK@Z@4HA
  00020	83 e6 02	 and	 esi, 2
  00023	3b c3		 cmp	 eax, ebx
  00025	57		 push	 edi
  00026	8b f9		 mov	 edi, ecx
  00028	89 74 24 1c	 mov	 DWORD PTR _RightButton$[esp+32], esi
  0002c	89 6c 24 10	 mov	 DWORD PTR _LeftButton$[esp+32], ebp
  00030	75 0e		 jne	 SHORT $L132267
  00032	3b 54 24 28	 cmp	 edx, DWORD PTR _MouseY$[esp+28]
  00036	c7 44 24 2c 00
	00 00 00	 mov	 DWORD PTR _PosChanged$[esp+28], 0
  0003e	74 08		 je	 SHORT $L132268
$L132267:
  00040	c7 44 24 2c 01
	00 00 00	 mov	 DWORD PTR _PosChanged$[esp+28], 1
$L132268:

; 873  :     UBOOL  RightChanged =  (LastRightButton != RightButton);

  00048	33 c9		 xor	 ecx, ecx
  0004a	39 35 00 00 00
	00		 cmp	 DWORD PTR ?LastRightButton@?1??FirePaint@UFireTexture@@AAEXHHK@Z@4HA, esi
  00050	0f 95 c1	 setne	 cl
  00053	89 4c 24 18	 mov	 DWORD PTR _RightChanged$[esp+32], ecx

; 874  :     UBOOL  LeftChanged  =  (LastLeftButton  != LeftButton);

  00057	33 c9		 xor	 ecx, ecx
  00059	39 2d 00 00 00
	00		 cmp	 DWORD PTR ?LastLeftButton@?1??FirePaint@UFireTexture@@AAEXHHK@Z@4HA, ebp
  0005f	0f 95 c1	 setne	 cl

; 875  : 
; 876  : 
; 877  : 	
; 878  : 	if( LeftChanged && LeftButton )

  00062	85 c9		 test	 ecx, ecx
  00064	89 4c 24 14	 mov	 DWORD PTR _LeftChanged$[esp+32], ecx
  00068	74 33		 je	 SHORT $L123890
  0006a	85 ed		 test	 ebp, ebp
  0006c	74 1f		 je	 SHORT $L132329

; 879  : 	{
; 880  : 		PenDownX = MouseX;
; 881  : 		PenDownY = MouseY;

  0006e	8a 54 24 28	 mov	 dl, BYTE PTR _MouseY$[esp+28]
  00072	88 97 12 05 00
	00		 mov	 BYTE PTR [edi+1298], dl

; 896  : 			{	
; 897  :             AddSpark( MouseX, MouseY);

  00078	8b 54 24 28	 mov	 edx, DWORD PTR _MouseY$[esp+28]
  0007c	52		 push	 edx
  0007d	53		 push	 ebx
  0007e	8b cf		 mov	 ecx, edi
  00080	88 9f 11 05 00
	00		 mov	 BYTE PTR [edi+1297], bl
  00086	e8 00 00 00 00	 call	 ?AddSpark@UFireTexture@@AAEXHH@Z ; UFireTexture::AddSpark

; 898  : 			}
; 899  :     }
; 900  :     else // LeftButton == 0

  0008b	eb 63		 jmp	 SHORT $L123896
$L132329:

; 882  : 	}
; 883  : 	if( LeftChanged && (!LeftButton) )
; 884  : 	{
; 885  : 		PenDownX=0;

  0008d	c6 87 11 05 00
	00 00		 mov	 BYTE PTR [edi+1297], 0

; 886  : 		PenDownY=0;

  00094	c6 87 12 05 00
	00 00		 mov	 BYTE PTR [edi+1298], 0

; 887  : 	}
; 888  :     
; 889  :     // Draws the kind of spark/linetype currently selected.
; 890  :     if( LeftButton )

  0009b	eb 46		 jmp	 SHORT $L123897
$L123890:
  0009d	85 ed		 test	 ebp, ebp
  0009f	74 3a		 je	 SHORT $L132330

; 891  :     {
; 892  :         if( !LeftChanged && PosChanged && ( SparkType<4 ))

  000a1	8b 4c 24 2c	 mov	 ecx, DWORD PTR _PosChanged$[esp+28]
  000a5	85 c9		 test	 ecx, ecx
  000a7	74 57		 je	 SHORT $L132328
  000a9	80 bf e0 00 00
	00 04		 cmp	 BYTE PTR [edi+224], 4
  000b0	73 11		 jae	 SHORT $L132326

; 893  :             DrawSparkLine( LastMouseX, LastMouseY, MouseX, MouseY, 1);

  000b2	8b 4c 24 28	 mov	 ecx, DWORD PTR _MouseY$[esp+28]
  000b6	6a 01		 push	 1
  000b8	51		 push	 ecx
  000b9	53		 push	 ebx
  000ba	52		 push	 edx
  000bb	50		 push	 eax
  000bc	8b cf		 mov	 ecx, edi
  000be	e8 00 00 00 00	 call	 ?DrawSparkLine@UFireTexture@@AAEXHHHHH@Z ; UFireTexture::DrawSparkLine
$L132326:

; 894  : 
; 895  :         if( LeftChanged || ( PosChanged && ( SparkType>=4 )  )  )

  000c3	80 bf e0 00 00
	00 04		 cmp	 BYTE PTR [edi+224], 4
  000ca	72 2c		 jb	 SHORT $L132327

; 896  : 			{	
; 897  :             AddSpark( MouseX, MouseY);

  000cc	8b 54 24 28	 mov	 edx, DWORD PTR _MouseY$[esp+28]
  000d0	52		 push	 edx
  000d1	53		 push	 ebx
  000d2	8b cf		 mov	 ecx, edi
  000d4	e8 00 00 00 00	 call	 ?AddSpark@UFireTexture@@AAEXHH@Z ; UFireTexture::AddSpark

; 898  : 			}
; 899  :     }
; 900  :     else // LeftButton == 0

  000d9	eb 15		 jmp	 SHORT $L123896
$L132330:

; 901  : 	{
; 902  : 		// Lightning bolt close on release + movement.
; 903  : 		if( LeftChanged || PosChanged )

  000db	8b 44 24 2c	 mov	 eax, DWORD PTR _PosChanged$[esp+28]
  000df	85 c0		 test	 eax, eax
  000e1	74 2e		 je	 SHORT $L123898
$L123897:

; 904  : 		{
; 905  : 			CloseSpark( MouseX, MouseY );

  000e3	8b 44 24 28	 mov	 eax, DWORD PTR _MouseY$[esp+28]
  000e7	50		 push	 eax
  000e8	53		 push	 ebx
  000e9	8b cf		 mov	 ecx, edi
  000eb	e8 00 00 00 00	 call	 ?CloseSpark@UFireTexture@@AAEXHH@Z ; UFireTexture::CloseSpark
$L123896:

; 906  : 		}
; 907  : 	}
; 908  : 
; 909  :     // Lightning bolt close on non-moving re-clicking.
; 910  : 	if( (!LeftChanged) && (! PosChanged) && LeftButton )

  000f0	8b 44 24 14	 mov	 eax, DWORD PTR _LeftChanged$[esp+32]
  000f4	85 c0		 test	 eax, eax
  000f6	75 19		 jne	 SHORT $L123898
$L132327:
  000f8	8b 44 24 2c	 mov	 eax, DWORD PTR _PosChanged$[esp+28]
  000fc	85 c0		 test	 eax, eax
  000fe	75 11		 jne	 SHORT $L123898
$L132328:
  00100	85 ed		 test	 ebp, ebp
  00102	74 0d		 je	 SHORT $L123898

; 911  : 	{
; 912  : 		CloseSpark( MouseX, MouseY );

  00104	8b 4c 24 28	 mov	 ecx, DWORD PTR _MouseY$[esp+28]
  00108	51		 push	 ecx
  00109	53		 push	 ebx
  0010a	8b cf		 mov	 ecx, edi
  0010c	e8 00 00 00 00	 call	 ?CloseSpark@UFireTexture@@AAEXHH@Z ; UFireTexture::CloseSpark
$L123898:

; 913  : 	}
; 914  : 
; 915  : 	// Delete any sparks within certain range of mouse cursor.
; 916  :     if( RightButton && (PosChanged || RightChanged) )

  00111	85 f6		 test	 esi, esi
  00113	74 7b		 je	 SHORT $L132320
  00115	8b 44 24 2c	 mov	 eax, DWORD PTR _PosChanged$[esp+28]
  00119	85 c0		 test	 eax, eax
  0011b	75 08		 jne	 SHORT $L123900
  0011d	8b 44 24 18	 mov	 eax, DWORD PTR _RightChanged$[esp+32]
  00121	85 c0		 test	 eax, eax
  00123	74 6b		 je	 SHORT $L132320
$L123900:

; 917  : 	{
; 918  :         DeleteSparks( MouseX, MouseY, DEL_RANGE );

  00125	8b af f8 00 00
	00		 mov	 ebp, DWORD PTR [edi+248]
  0012b	85 ed		 test	 ebp, ebp
  0012d	7e 5d		 jle	 SHORT $L132335
  0012f	33 d2		 xor	 edx, edx
  00131	85 ed		 test	 ebp, ebp
  00133	7e 57		 jle	 SHORT $L132335
$L132318:
  00135	8b 87 fc 00 00
	00		 mov	 eax, DWORD PTR [edi+252]
  0013b	33 c9		 xor	 ecx, ecx
  0013d	8a 4c d0 02	 mov	 cl, BYTE PTR [eax+edx*8+2]
  00141	8b f1		 mov	 esi, ecx
  00143	8b cb		 mov	 ecx, ebx
  00145	2b ce		 sub	 ecx, esi
  00147	79 02		 jns	 SHORT $L132303
  00149	f7 d9		 neg	 ecx
$L132303:
  0014b	8b 74 24 28	 mov	 esi, DWORD PTR _MouseY$[esp+28]
  0014f	33 db		 xor	 ebx, ebx
  00151	8a 5c d0 03	 mov	 bl, BYTE PTR [eax+edx*8+3]
  00155	2b f3		 sub	 esi, ebx
  00157	79 02		 jns	 SHORT $L132309
  00159	f7 de		 neg	 esi
$L132309:
  0015b	03 f1		 add	 esi, ecx
  0015d	83 fe 0c	 cmp	 esi, 12			; 0000000cH
  00160	7f 17		 jg	 SHORT $L132319
  00162	8d 4d ff	 lea	 ecx, DWORD PTR [ebp-1]
  00165	89 8f f8 00 00
	00		 mov	 DWORD PTR [edi+248], ecx
  0016b	8b 34 c8	 mov	 esi, DWORD PTR [eax+ecx*8]
  0016e	89 34 d0	 mov	 DWORD PTR [eax+edx*8], esi
  00171	8b 4c c8 04	 mov	 ecx, DWORD PTR [eax+ecx*8+4]
  00175	89 4c d0 04	 mov	 DWORD PTR [eax+edx*8+4], ecx
$L132319:
  00179	8b af f8 00 00
	00		 mov	 ebp, DWORD PTR [edi+248]
  0017f	8b 5c 24 24	 mov	 ebx, DWORD PTR _MouseX$[esp+28]
  00183	42		 inc	 edx
  00184	3b d5		 cmp	 edx, ebp
  00186	7c ad		 jl	 SHORT $L132318
  00188	8b 74 24 1c	 mov	 esi, DWORD PTR _RightButton$[esp+32]
$L132335:
  0018c	8b 6c 24 10	 mov	 ebp, DWORD PTR _LeftButton$[esp+32]
$L132320:

; 919  : 	}
; 920  : 
; 921  : 	// Remember.
; 922  :     LastMouseX      = MouseX;
; 923  :     LastMouseY      = MouseY;

  00190	8b 54 24 28	 mov	 edx, DWORD PTR _MouseY$[esp+28]
  00194	5f		 pop	 edi

; 924  :     LastLeftButton  = LeftButton;
; 925  :     LastRightButton = RightButton;

  00195	89 35 00 00 00
	00		 mov	 DWORD PTR ?LastRightButton@?1??FirePaint@UFireTexture@@AAEXHHK@Z@4HA, esi
  0019b	5e		 pop	 esi
  0019c	89 2d 00 00 00
	00		 mov	 DWORD PTR ?LastLeftButton@?1??FirePaint@UFireTexture@@AAEXHHK@Z@4HA, ebp
  001a2	5d		 pop	 ebp
  001a3	89 1d 00 00 00
	00		 mov	 DWORD PTR ?LastMouseX@?1??FirePaint@UFireTexture@@AAEXHHK@Z@4HA, ebx
  001a9	89 15 00 00 00
	00		 mov	 DWORD PTR ?LastMouseY@?1??FirePaint@UFireTexture@@AAEXHHK@Z@4HA, edx
  001af	5b		 pop	 ebx

; 926  : }

  001b0	83 c4 10	 add	 esp, 16			; 00000010H
  001b3	c2 0c 00	 ret	 12			; 0000000cH
?FirePaint@UFireTexture@@AAEXHHK@Z ENDP			; UFireTexture::FirePaint
_TEXT	ENDS
PUBLIC	?MoveSparkXY@UFireTexture@@AAEXPAVFSpark@@CC@Z	; UFireTexture::MoveSparkXY
; Function compile flags: /Ogty
;	COMDAT ?MoveSparkXY@UFireTexture@@AAEXPAVFSpark@@CC@Z
_TEXT	SEGMENT
_Spark$ = 8
_Xspeed$ = 12
_Yspeed$ = 16
?MoveSparkXY@UFireTexture@@AAEXPAVFSpark@@CC@Z PROC NEAR ; UFireTexture::MoveSparkXY, COMDAT
; _this$ = ecx

; 1018 : {

  00000	53		 push	 ebx

; 1019 :     if( Xspeed<0 ) // move left

  00001	8a 5c 24 0c	 mov	 bl, BYTE PTR _Xspeed$[esp]
  00005	84 db		 test	 bl, bl
  00007	56		 push	 esi
  00008	8b 74 24 0c	 mov	 esi, DWORD PTR _Spark$[esp+4]
  0000c	57		 push	 edi
  0000d	8b f9		 mov	 edi, ecx
  0000f	7d 51		 jge	 SHORT $L123907

; 1020 :     {
; 1021 :         if( (SpeedRand()&127) < -Xspeed )

  00011	8b 0d 00 00 00
	00		 mov	 ecx, DWORD PTR _SpeedRindex
  00017	8b 15 00 00 00
	00		 mov	 edx, DWORD PTR _SpeedRindex
  0001d	81 c1 80 00 00
	00		 add	 ecx, 128		; 00000080H
  00023	83 c2 04	 add	 edx, 4
  00026	81 e1 fc 00 00
	00		 and	 ecx, 252		; 000000fcH
  0002c	81 e2 fc 00 00
	00		 and	 edx, 252		; 000000fcH
  00032	8b 81 00 00 00
	00		 mov	 eax, DWORD PTR _SpeedRandArr[ecx]
  00038	89 15 00 00 00
	00		 mov	 DWORD PTR _SpeedRindex, edx
  0003e	31 82 00 00 00
	00		 xor	 DWORD PTR _SpeedRandArr[edx], eax
  00044	0f be cb	 movsx	 ecx, bl
  00047	f7 d9		 neg	 ecx
  00049	83 e0 7f	 and	 eax, 127		; 0000007fH
  0004c	3b c1		 cmp	 eax, ecx
  0004e	7d 5c		 jge	 SHORT $L123910

; 1022 :             Spark->X = UMask & (Spark->X-1);

  00050	8a 56 02	 mov	 dl, BYTE PTR [esi+2]
  00053	8a 87 c8 00 00
	00		 mov	 al, BYTE PTR [edi+200]
  00059	fe ca		 dec	 dl
  0005b	22 d0		 and	 dl, al
  0005d	88 56 02	 mov	 BYTE PTR [esi+2], dl

; 1023 :     }
; 1024 :     else // move right

  00060	eb 4a		 jmp	 SHORT $L123910
$L123907:

; 1025 :     {
; 1026 :         if( (SpeedRand()&127) <  Xspeed )

  00062	8b 0d 00 00 00
	00		 mov	 ecx, DWORD PTR _SpeedRindex
  00068	8b 15 00 00 00
	00		 mov	 edx, DWORD PTR _SpeedRindex
  0006e	81 c1 80 00 00
	00		 add	 ecx, 128		; 00000080H
  00074	83 c2 04	 add	 edx, 4
  00077	81 e1 fc 00 00
	00		 and	 ecx, 252		; 000000fcH
  0007d	81 e2 fc 00 00
	00		 and	 edx, 252		; 000000fcH
  00083	8b 81 00 00 00
	00		 mov	 eax, DWORD PTR _SpeedRandArr[ecx]
  00089	89 15 00 00 00
	00		 mov	 DWORD PTR _SpeedRindex, edx
  0008f	31 82 00 00 00
	00		 xor	 DWORD PTR _SpeedRandArr[edx], eax
  00095	83 e0 7f	 and	 eax, 127		; 0000007fH
  00098	3a c3		 cmp	 al, bl
  0009a	7d 10		 jge	 SHORT $L123910

; 1027 :             Spark->X = UMask & (Spark->X+1);

  0009c	8a 46 02	 mov	 al, BYTE PTR [esi+2]
  0009f	8a 8f c8 00 00
	00		 mov	 cl, BYTE PTR [edi+200]
  000a5	fe c0		 inc	 al
  000a7	22 c1		 and	 al, cl
  000a9	88 46 02	 mov	 BYTE PTR [esi+2], al
$L123910:

; 1028 :     }
; 1029 : 
; 1030 :     if( Yspeed<0 ) // move up

  000ac	8a 5c 24 18	 mov	 bl, BYTE PTR _Yspeed$[esp+8]
  000b0	84 db		 test	 bl, bl
  000b2	7d 55		 jge	 SHORT $L123911

; 1031 :     {
; 1032 :         if( (SpeedRand()&127) < -Yspeed )

  000b4	8b 0d 00 00 00
	00		 mov	 ecx, DWORD PTR _SpeedRindex
  000ba	8b 15 00 00 00
	00		 mov	 edx, DWORD PTR _SpeedRindex
  000c0	81 c1 80 00 00
	00		 add	 ecx, 128		; 00000080H
  000c6	83 c2 04	 add	 edx, 4
  000c9	81 e1 fc 00 00
	00		 and	 ecx, 252		; 000000fcH
  000cf	81 e2 fc 00 00
	00		 and	 edx, 252		; 000000fcH
  000d5	8b 81 00 00 00
	00		 mov	 eax, DWORD PTR _SpeedRandArr[ecx]
  000db	89 15 00 00 00
	00		 mov	 DWORD PTR _SpeedRindex, edx
  000e1	31 82 00 00 00
	00		 xor	 DWORD PTR _SpeedRandArr[edx], eax
  000e7	0f be cb	 movsx	 ecx, bl
  000ea	f7 d9		 neg	 ecx
  000ec	83 e0 7f	 and	 eax, 127		; 0000007fH
  000ef	3b c1		 cmp	 eax, ecx
  000f1	7d 60		 jge	 SHORT $L123914

; 1033 :             Spark->Y = VMask &(Spark->Y-1);

  000f3	8a 56 03	 mov	 dl, BYTE PTR [esi+3]
  000f6	8a 87 cc 00 00
	00		 mov	 al, BYTE PTR [edi+204]
  000fc	fe ca		 dec	 dl
  000fe	22 d0		 and	 dl, al
  00100	5f		 pop	 edi
  00101	88 56 03	 mov	 BYTE PTR [esi+3], dl
  00104	5e		 pop	 esi
  00105	5b		 pop	 ebx

; 1039 :     }
; 1040 : }

  00106	c2 0c 00	 ret	 12			; 0000000cH
$L123911:

; 1034 :     }
; 1035 :     else // move down
; 1036 :     {
; 1037 :         if( (SpeedRand()&127) <  Yspeed )

  00109	8b 0d 00 00 00
	00		 mov	 ecx, DWORD PTR _SpeedRindex
  0010f	8b 15 00 00 00
	00		 mov	 edx, DWORD PTR _SpeedRindex
  00115	81 c1 80 00 00
	00		 add	 ecx, 128		; 00000080H
  0011b	83 c2 04	 add	 edx, 4
  0011e	81 e1 fc 00 00
	00		 and	 ecx, 252		; 000000fcH
  00124	81 e2 fc 00 00
	00		 and	 edx, 252		; 000000fcH
  0012a	8b 81 00 00 00
	00		 mov	 eax, DWORD PTR _SpeedRandArr[ecx]
  00130	89 15 00 00 00
	00		 mov	 DWORD PTR _SpeedRindex, edx
  00136	31 82 00 00 00
	00		 xor	 DWORD PTR _SpeedRandArr[edx], eax
  0013c	83 e0 7f	 and	 eax, 127		; 0000007fH
  0013f	3a c3		 cmp	 al, bl
  00141	7d 10		 jge	 SHORT $L123914

; 1038 : 			Spark->Y = VMask &(Spark->Y+1);

  00143	8a 46 03	 mov	 al, BYTE PTR [esi+3]
  00146	8a 8f cc 00 00
	00		 mov	 cl, BYTE PTR [edi+204]
