; Listing generated by Microsoft (R) Optimizing Compiler Version 12.00.8943.0 

	TITLE	C:\duke4\xcore\xmisc.cpp
	.386P
include listing.inc
if @Version gt 510
.model FLAT
else
_TEXT	SEGMENT PARA USE32 PUBLIC 'CODE'
_TEXT	ENDS
_DATA	SEGMENT DWORD USE32 PUBLIC 'DATA'
_DATA	ENDS
CONST	SEGMENT DWORD USE32 PUBLIC 'CONST'
CONST	ENDS
_BSS	SEGMENT DWORD USE32 PUBLIC 'BSS'
_BSS	ENDS
$$SYMBOLS	SEGMENT BYTE USE32 'DEBSYM'
$$SYMBOLS	ENDS
_TLS	SEGMENT DWORD USE32 PUBLIC 'TLS'
_TLS	ENDS
;	COMDAT ??_C@_0BF@MBIJ@Cannot?5init?5CPrintfT?$AA@
_DATA	SEGMENT DWORD USE32 PUBLIC 'DATA'
_DATA	ENDS
drectve	SEGMENT DWORD USE32 PUBLIC ''
drectve	ENDS
;	COMDAT ??0?$XChain@VXStatistic@@@@QAE@XZ
_TEXT	SEGMENT PARA USE32 PUBLIC 'CODE'
_TEXT	ENDS
;	COMDAT ?get_head@?$XList@VXStatistic@@@@QAEPAVXStatistic@@XZ
_TEXT	SEGMENT PARA USE32 PUBLIC 'CODE'
_TEXT	ENDS
;	COMDAT ??0?$XChain@VCSysObj@@@@QAE@XZ
_TEXT	SEGMENT PARA USE32 PUBLIC 'CODE'
_TEXT	ENDS
;	COMDAT ??0?$XChain@VCSysObj@@@@QAE@K@Z
_TEXT	SEGMENT PARA USE32 PUBLIC 'CODE'
_TEXT	ENDS
;	COMDAT ?get_next@?$XChain@VCSysObj@@@@QAEPAVCSysObj@@PAV2@@Z
_TEXT	SEGMENT PARA USE32 PUBLIC 'CODE'
_TEXT	ENDS
;	COMDAT ?get_prev@?$XChain@VCSysObj@@@@QAEPAVCSysObj@@PAV2@@Z
_TEXT	SEGMENT PARA USE32 PUBLIC 'CODE'
_TEXT	ENDS
;	COMDAT ?get_head@?$XChain@VCSysObj@@@@QAEPAVCSysObj@@XZ
_TEXT	SEGMENT PARA USE32 PUBLIC 'CODE'
_TEXT	ENDS
;	COMDAT ?get_tail@?$XChain@VCSysObj@@@@QAEPAVCSysObj@@XZ
_TEXT	SEGMENT PARA USE32 PUBLIC 'CODE'
_TEXT	ENDS
;	COMDAT ??1?$XChain@VXStatistic@@@@QAE@XZ
_TEXT	SEGMENT PARA USE32 PUBLIC 'CODE'
_TEXT	ENDS
;	COMDAT ?free_list@?$XChain@VXStatistic@@@@QAEXXZ
_TEXT	SEGMENT PARA USE32 PUBLIC 'CODE'
_TEXT	ENDS
;	COMDAT ??0?$XList@VXStatistic@@@@QAE@XZ
_TEXT	SEGMENT PARA USE32 PUBLIC 'CODE'
_TEXT	ENDS
;	COMDAT ??1?$XList@VXStatistic@@@@QAE@XZ
_TEXT	SEGMENT PARA USE32 PUBLIC 'CODE'
_TEXT	ENDS
;	COMDAT ?free_list@?$XList@VXStatistic@@@@QAEXXZ
_TEXT	SEGMENT PARA USE32 PUBLIC 'CODE'
_TEXT	ENDS
;	COMDAT ?add_head@?$XList@VXStatistic@@@@QAEPAU_XPos@@PAVXStatistic@@@Z
_TEXT	SEGMENT PARA USE32 PUBLIC 'CODE'
_TEXT	ENDS
;	COMDAT ?remove_head@?$XList@VXStatistic@@@@QAEPAVXStatistic@@XZ
_TEXT	SEGMENT PARA USE32 PUBLIC 'CODE'
_TEXT	ENDS
;	COMDAT ??1?$XChain@VCSysObj@@@@QAE@XZ
_TEXT	SEGMENT PARA USE32 PUBLIC 'CODE'
_TEXT	ENDS
;	COMDAT ?lose_list@?$XChain@VCSysObj@@@@QAEXXZ
_TEXT	SEGMENT PARA USE32 PUBLIC 'CODE'
_TEXT	ENDS
;	COMDAT ?free_list@?$XChain@VCSysObj@@@@QAEXXZ
_TEXT	SEGMENT PARA USE32 PUBLIC 'CODE'
_TEXT	ENDS
;	COMDAT ?add_head@?$XChain@VCSysObj@@@@QAEPAVCSysObj@@PAV2@@Z
_TEXT	SEGMENT PARA USE32 PUBLIC 'CODE'
_TEXT	ENDS
;	COMDAT ?add_tail@?$XChain@VCSysObj@@@@QAEPAVCSysObj@@PAV2@@Z
_TEXT	SEGMENT PARA USE32 PUBLIC 'CODE'
_TEXT	ENDS
;	COMDAT ?remove_head@?$XChain@VCSysObj@@@@QAEPAVCSysObj@@XZ
_TEXT	SEGMENT PARA USE32 PUBLIC 'CODE'
_TEXT	ENDS
;	COMDAT ?remove_tail@?$XChain@VCSysObj@@@@QAEPAVCSysObj@@XZ
_TEXT	SEGMENT PARA USE32 PUBLIC 'CODE'
_TEXT	ENDS
;	COMDAT ?remove@?$XChain@VCSysObj@@@@QAEPAVCSysObj@@PAV2@@Z
_TEXT	SEGMENT PARA USE32 PUBLIC 'CODE'
_TEXT	ENDS
;	COMDAT ??1?$XList@PAX@@QAE@XZ
_TEXT	SEGMENT PARA USE32 PUBLIC 'CODE'
_TEXT	ENDS
;	COMDAT ??0?$XRcBase@VCStrObj@@@@QAE@ABV0@@Z
_TEXT	SEGMENT PARA USE32 PUBLIC 'CODE'
_TEXT	ENDS
;	COMDAT ??0?$XRcBase@VCStrObj@@@@QAE@XZ
_TEXT	SEGMENT PARA USE32 PUBLIC 'CODE'
_TEXT	ENDS
;	COMDAT ??1?$XRcBase@VCStrObj@@@@QAE@XZ
_TEXT	SEGMENT PARA USE32 PUBLIC 'CODE'
_TEXT	ENDS
;	COMDAT ??4?$XRcBase@VCStrObj@@@@QAEAAV0@ABV0@@Z
_TEXT	SEGMENT PARA USE32 PUBLIC 'CODE'
_TEXT	ENDS
;	COMDAT ??0?$XRcPtr@VCPathObj@@@@QAE@ABV0@@Z
_TEXT	SEGMENT PARA USE32 PUBLIC 'CODE'
_TEXT	ENDS
;	COMDAT ??0?$XRcPtr@VCPathObj@@@@QAE@XZ
_TEXT	SEGMENT PARA USE32 PUBLIC 'CODE'
_TEXT	ENDS
;	COMDAT ??1?$XRcPtr@VCPathObj@@@@QAE@XZ
_TEXT	SEGMENT PARA USE32 PUBLIC 'CODE'
_TEXT	ENDS
;	COMDAT ??4?$XRcPtr@VCPathObj@@@@QAEAAV0@ABV0@@Z
_TEXT	SEGMENT PARA USE32 PUBLIC 'CODE'
_TEXT	ENDS
;	COMDAT ??0?$XList@VXFindLevel@@@@QAE@XZ
_TEXT	SEGMENT PARA USE32 PUBLIC 'CODE'
_TEXT	ENDS
;	COMDAT ??1?$XList@VXFindLevel@@@@QAE@XZ
_TEXT	SEGMENT PARA USE32 PUBLIC 'CODE'
_TEXT	ENDS
;	COMDAT ??_GCSysObj@@QAEPAXI@Z
_TEXT	SEGMENT PARA USE32 PUBLIC 'CODE'
_TEXT	ENDS
;	COMDAT ??_GXFindLevel@@QAEPAXI@Z
_TEXT	SEGMENT PARA USE32 PUBLIC 'CODE'
_TEXT	ENDS
;	COMDAT ?new_node@?$XList@VXStatistic@@@@IAEPAUXNode@1@XZ
_TEXT	SEGMENT PARA USE32 PUBLIC 'CODE'
_TEXT	ENDS
;	COMDAT ?free_nodes@?$XList@VXStatistic@@@@IAEXXZ
_TEXT	SEGMENT PARA USE32 PUBLIC 'CODE'
_TEXT	ENDS
;	COMDAT ?free_nodes@?$XList@PAX@@IAEXXZ
_TEXT	SEGMENT PARA USE32 PUBLIC 'CODE'
_TEXT	ENDS
;	COMDAT ?free_nodes@?$XList@VXFindLevel@@@@IAEXXZ
_TEXT	SEGMENT PARA USE32 PUBLIC 'CODE'
_TEXT	ENDS
;	COMDAT ?AddRef@?$XRcBase@VCStrObj@@@@QAEXXZ
_TEXT	SEGMENT PARA USE32 PUBLIC 'CODE'
_TEXT	ENDS
;	COMDAT ?DelRef@?$XRcBase@VCStrObj@@@@QAEXXZ
_TEXT	SEGMENT PARA USE32 PUBLIC 'CODE'
_TEXT	ENDS
;	COMDAT ?AddRef@?$XRcPtr@VCPathObj@@@@QAEXXZ
_TEXT	SEGMENT PARA USE32 PUBLIC 'CODE'
_TEXT	ENDS
;	COMDAT ?DelRef@?$XRcPtr@VCPathObj@@@@QAEXXZ
_TEXT	SEGMENT PARA USE32 PUBLIC 'CODE'
_TEXT	ENDS
;	COMDAT ??_GCStrObj@@QAEPAXI@Z
_TEXT	SEGMENT PARA USE32 PUBLIC 'CODE'
_TEXT	ENDS
;	COMDAT ??_GCPathObj@@QAEPAXI@Z
_TEXT	SEGMENT PARA USE32 PUBLIC 'CODE'
_TEXT	ENDS
;	COMDAT ??_GXStreamWrDirect@@UAEPAXI@Z
_TEXT	SEGMENT PARA USE32 PUBLIC 'CODE'
_TEXT	ENDS
;	COMDAT ??1XStreamWrDirect@@UAE@XZ
_TEXT	SEGMENT PARA USE32 PUBLIC 'CODE'
_TEXT	ENDS
;	COMDAT ??_7XStreamWrDirect@@6B@
CONST	SEGMENT DWORD USE32 PUBLIC 'CONST'
CONST	ENDS
;	COMDAT ??1XBufferWriteInt@@UAE@XZ
_TEXT	SEGMENT PARA USE32 PUBLIC 'CODE'
_TEXT	ENDS
;	COMDAT ??_7XBufferWriteInt@@6B@
CONST	SEGMENT DWORD USE32 PUBLIC 'CONST'
CONST	ENDS
;	COMDAT ??3XStreamWrDirect@@SAXPAX@Z
_TEXT	SEGMENT PARA USE32 PUBLIC 'CODE'
_TEXT	ENDS
;	COMDAT ??_EXStreamWrDirect@@UAEPAXI@Z
_TEXT	SEGMENT PARA USE32 PUBLIC 'CODE'
_TEXT	ENDS
;	COMDAT ?flush@XStreamWrDirect@@UAEKXZ
_TEXT	SEGMENT PARA USE32 PUBLIC 'CODE'
_TEXT	ENDS
;	COMDAT ?seek@XStreamWrDirect@@UAEKJ@Z
_TEXT	SEGMENT PARA USE32 PUBLIC 'CODE'
_TEXT	ENDS
;	COMDAT ??_GXStreamRdDirect@@UAEPAXI@Z
_TEXT	SEGMENT PARA USE32 PUBLIC 'CODE'
_TEXT	ENDS
;	COMDAT ??1XStreamRdDirect@@UAE@XZ
_TEXT	SEGMENT PARA USE32 PUBLIC 'CODE'
_TEXT	ENDS
;	COMDAT ??_7XStreamRdDirect@@6B@
CONST	SEGMENT DWORD USE32 PUBLIC 'CONST'
CONST	ENDS
;	COMDAT ??1XBufferReadInt@@UAE@XZ
_TEXT	SEGMENT PARA USE32 PUBLIC 'CODE'
_TEXT	ENDS
;	COMDAT ??_7XBufferReadInt@@6B@
CONST	SEGMENT DWORD USE32 PUBLIC 'CONST'
CONST	ENDS
;	COMDAT ??3XStreamRdDirect@@SAXPAX@Z
_TEXT	SEGMENT PARA USE32 PUBLIC 'CODE'
_TEXT	ENDS
;	COMDAT ??_EXStreamRdDirect@@UAEPAXI@Z
_TEXT	SEGMENT PARA USE32 PUBLIC 'CODE'
_TEXT	ENDS
;	COMDAT ?seek@XStreamRdDirect@@UAEKJ@Z
_TEXT	SEGMENT PARA USE32 PUBLIC 'CODE'
_TEXT	ENDS
;	COMDAT ?base_init@XFile@@EAEXXZ
_TEXT	SEGMENT PARA USE32 PUBLIC 'CODE'
_TEXT	ENDS
;	COMDAT ??4autochar@@QAEAAV0@PAD@Z
_TEXT	SEGMENT PARA USE32 PUBLIC 'CODE'
_TEXT	ENDS
;	COMDAT ??_GXBufferWriteInt@@UAEPAXI@Z
_TEXT	SEGMENT PARA USE32 PUBLIC 'CODE'
_TEXT	ENDS
;	COMDAT ??_EXBufferWriteInt@@UAEPAXI@Z
_TEXT	SEGMENT PARA USE32 PUBLIC 'CODE'
_TEXT	ENDS
;	COMDAT ??_GXBufferReadInt@@UAEPAXI@Z
_TEXT	SEGMENT PARA USE32 PUBLIC 'CODE'
_TEXT	ENDS
;	COMDAT ??_EXBufferReadInt@@UAEPAXI@Z
_TEXT	SEGMENT PARA USE32 PUBLIC 'CODE'
_TEXT	ENDS
;	COMDAT ?pos_wr@CBaseStream@@UAEXKK@Z
_TEXT	SEGMENT PARA USE32 PUBLIC 'CODE'
_TEXT	ENDS
;	COMDAT ?pos_rd@CBaseStream@@UAEXKK@Z
_TEXT	SEGMENT PARA USE32 PUBLIC 'CODE'
_TEXT	ENDS
;	COMDAT ?put@CBaseStream@@UAEKD@Z
_TEXT	SEGMENT PARA USE32 PUBLIC 'CODE'
_TEXT	ENDS
;	COMDAT ?ioctl_write@CBaseStream@@UAEKKK@Z
_TEXT	SEGMENT PARA USE32 PUBLIC 'CODE'
_TEXT	ENDS
;	COMDAT ?ioctl_read@CBaseStream@@UAEKKK@Z
_TEXT	SEGMENT PARA USE32 PUBLIC 'CODE'
_TEXT	ENDS
;	COMDAT ?seek_int@CBaseStream@@MAEJXZ
_TEXT	SEGMENT PARA USE32 PUBLIC 'CODE'
_TEXT	ENDS
;	COMDAT ??_GXMemRdBuffer@@UAEPAXI@Z
_TEXT	SEGMENT PARA USE32 PUBLIC 'CODE'
_TEXT	ENDS
;	COMDAT ??1XMemRdBuffer@@UAE@XZ
_TEXT	SEGMENT PARA USE32 PUBLIC 'CODE'
_TEXT	ENDS
;	COMDAT ??_7XMemRdBuffer@@6B@
CONST	SEGMENT DWORD USE32 PUBLIC 'CONST'
CONST	ENDS
;	COMDAT ??1autochar@@QAE@XZ
_TEXT	SEGMENT PARA USE32 PUBLIC 'CODE'
_TEXT	ENDS
;	COMDAT ??3XMemRdBuffer@@SAXPAX@Z
_TEXT	SEGMENT PARA USE32 PUBLIC 'CODE'
_TEXT	ENDS
;	COMDAT ??_EXMemRdBuffer@@UAEPAXI@Z
_TEXT	SEGMENT PARA USE32 PUBLIC 'CODE'
_TEXT	ENDS
;	COMDAT ??3CStrObj@@SAXPAX@Z
_TEXT	SEGMENT PARA USE32 PUBLIC 'CODE'
_TEXT	ENDS
;	COMDAT ??1CStrObj@@QAE@XZ
_TEXT	SEGMENT PARA USE32 PUBLIC 'CODE'
_TEXT	ENDS
;	COMDAT ??1XFindLevel@@QAE@XZ
_TEXT	SEGMENT PARA USE32 PUBLIC 'CODE'
_TEXT	ENDS
;	COMDAT ??1CSysObj@@QAE@XZ
_TEXT	SEGMENT PARA USE32 PUBLIC 'CODE'
_TEXT	ENDS
;	COMDAT ??_7CSysObj@@6B@
CONST	SEGMENT DWORD USE32 PUBLIC 'CONST'
CONST	ENDS
;	COMDAT ??3@YAXPAX@Z
_TEXT	SEGMENT PARA USE32 PUBLIC 'CODE'
_TEXT	ENDS
;	COMDAT ??0XListState@@QAE@XZ
_TEXT	SEGMENT PARA USE32 PUBLIC 'CODE'
_TEXT	ENDS
;	COMDAT ??3XStatistic@@SAXPAX@Z
_TEXT	SEGMENT PARA USE32 PUBLIC 'CODE'
_TEXT	ENDS
;	COMDAT ??0XChainState@@QAE@K@Z
_TEXT	SEGMENT PARA USE32 PUBLIC 'CODE'
_TEXT	ENDS
;	COMDAT ??0XChainState@@QAE@XZ
_TEXT	SEGMENT PARA USE32 PUBLIC 'CODE'
_TEXT	ENDS
FLAT	GROUP _DATA, CONST, _BSS, drectve
	ASSUME	CS: FLAT, DS: FLAT, SS: FLAT
endif

INCLUDELIB MSVCRT
INCLUDELIB OLDNAMES

drectve	SEGMENT
$SG56785 DB	'-INCLUDE:___@@_PchSym_@00@UwfpvEUcxlivUlyqUhgwxlivOlyq@', 00H
drectve	ENDS
PUBLIC	??0RingBuffer@@QAE@PBXK@Z			; RingBuffer::RingBuffer
; Function compile flags: /Ogty
; File C:\duke4\xcore\xmisc.cpp
_TEXT	SEGMENT
_mem$ = 8
_Size$ = 12
??0RingBuffer@@QAE@PBXK@Z PROC NEAR			; RingBuffer::RingBuffer
; _this$ = ecx

; 5    : 	mem_base=(char *)mem;
; 6    : 	size=Size;

	mov	edx, DWORD PTR _Size$[esp-4]
	mov	eax, ecx
	mov	ecx, DWORD PTR _mem$[esp-4]
	mov	DWORD PTR [eax+8], edx

; 7    : 	mem_end=mem_base+Size;

	add	edx, ecx
	mov	DWORD PTR [eax], ecx
	mov	DWORD PTR [eax+4], edx

; 8    : 	write_ptr=mem_base;

	mov	DWORD PTR [eax+12], ecx

; 9    : 	read_ptr=mem_base;

	mov	DWORD PTR [eax+16], ecx

; 10   : }

	ret	8
??0RingBuffer@@QAE@PBXK@Z ENDP				; RingBuffer::RingBuffer
_TEXT	ENDS
PUBLIC	?adjust_read@RingBuffer@@QAEXK@Z		; RingBuffer::adjust_read
; Function compile flags: /Ogty
_TEXT	SEGMENT
_amount$ = 8
?adjust_read@RingBuffer@@QAEXK@Z PROC NEAR		; RingBuffer::adjust_read
; _this$ = ecx

; 14   : 	char *cur=read_ptr;
; 15   : 
; 16   : 	cur+=amount;

	mov	eax, DWORD PTR [ecx+16]
	mov	edx, DWORD PTR _amount$[esp-4]
	push	esi

; 17   : 	if (cur > mem_end)

	mov	esi, DWORD PTR [ecx+4]
	add	eax, edx
	cmp	eax, esi
	jbe	SHORT $L56798

; 18   : 		cur-=size;

	sub	eax, DWORD PTR [ecx+8]
$L56798:

; 19   : 
; 20   : 	read_ptr=cur;

	mov	DWORD PTR [ecx+16], eax

; 21   : 	depth_write-=amount;

	mov	eax, DWORD PTR [ecx+20]
	sub	eax, edx
	pop	esi
	mov	DWORD PTR [ecx+20], eax

; 22   : }

	ret	4
?adjust_read@RingBuffer@@QAEXK@Z ENDP			; RingBuffer::adjust_read
_TEXT	ENDS
PUBLIC	?get_room@RingBuffer@@QAEKXZ			; RingBuffer::get_room
; Function compile flags: /Ogty
_TEXT	SEGMENT
?get_room@RingBuffer@@QAEKXZ PROC NEAR			; RingBuffer::get_room
; _this$ = ecx

; 26   : 	U32 room;
; 27   : 
; 28   : 	if (write_ptr>=read_ptr)

	mov	edx, DWORD PTR [ecx+12]
	mov	eax, DWORD PTR [ecx+16]
	cmp	edx, eax
	jb	SHORT $L56804

; 29   : 	{
; 30   : 		if ((write_ptr==read_ptr) && depth_write)

	jne	SHORT $L56805
	mov	eax, DWORD PTR [ecx+20]
	test	eax, eax
	je	SHORT $L56805

; 31   : 			return 0;

	xor	eax, eax

; 36   : 	return room;
; 37   : }

	ret	0
$L56805:

; 32   : 		room=mem_end - write_ptr;

	mov	eax, DWORD PTR [ecx+4]
$L56804:

; 33   : 		return room;
; 34   : 	}
; 35   : 	room=read_ptr - write_ptr;

	sub	eax, edx

; 36   : 	return room;
; 37   : }

	ret	0
?get_room@RingBuffer@@QAEKXZ ENDP			; RingBuffer::get_room
_TEXT	ENDS
PUBLIC	?get_total_room@RingBuffer@@QAEKXZ		; RingBuffer::get_total_room
; Function compile flags: /Ogty
_TEXT	SEGMENT
?get_total_room@RingBuffer@@QAEKXZ PROC NEAR		; RingBuffer::get_total_room
; _this$ = ecx

; 41   : 	U32 room;
; 42   : 	if (write_ptr>=read_ptr)

	mov	edx, DWORD PTR [ecx+12]
	push	esi
	mov	esi, DWORD PTR [ecx+16]
	cmp	edx, esi
	jb	SHORT $L56811

; 43   : 	{
; 44   : 		if ((write_ptr==read_ptr) && depth_write)

	jne	SHORT $L56812
	mov	eax, DWORD PTR [ecx+20]
	test	eax, eax
	je	SHORT $L56812

; 45   : 			return 0;

	xor	eax, eax
	pop	esi

; 52   : }

	ret	0
$L56812:

; 46   : 		room=mem_end - write_ptr;
; 47   : 		room+=(U32)(read_ptr - mem_base);
; 48   : 		return room;

	mov	eax, DWORD PTR [ecx+4]
	sub	eax, edx
	mov	edx, DWORD PTR [ecx]
	sub	eax, edx

; 51   : 	return room;

	add	eax, esi
	pop	esi

; 52   : }

	ret	0
$L56811:

; 49   : 	}
; 50   : 	room=read_ptr - write_ptr;

	mov	eax, esi
	pop	esi
	sub	eax, edx

; 52   : }

	ret	0
?get_total_room@RingBuffer@@QAEKXZ ENDP			; RingBuffer::get_total_room
_TEXT	ENDS
PUBLIC	?wrap@RingBuffer@@QAEXXZ			; RingBuffer::wrap
; Function compile flags: /Ogty
_TEXT	SEGMENT
?wrap@RingBuffer@@QAEXXZ PROC NEAR			; RingBuffer::wrap
; _this$ = ecx

; 56   : 	write_ptr=mem_base;

	mov	eax, DWORD PTR [ecx]
	mov	DWORD PTR [ecx+12], eax

; 57   : }

	ret	0
?wrap@RingBuffer@@QAEXXZ ENDP				; RingBuffer::wrap
_TEXT	ENDS
PUBLIC	?write@RingBuffer@@QAEKPBXK@Z			; RingBuffer::write
; Function compile flags: /Ogty
_TEXT	SEGMENT
_mem$ = 8
_size$ = 12
_total_size$ = 12
?write@RingBuffer@@QAEKPBXK@Z PROC NEAR			; RingBuffer::write
; _this$ = ecx

; 60   : {

	push	ebx
	push	ebp

; 61   : 	U32 total_size=size;

	mov	ebp, DWORD PTR _size$[esp+4]
	mov	ebx, ecx
	mov	eax, ebp

; 62   : 
; 63   : 	while(size)

	test	ebp, ebp
	mov	DWORD PTR _total_size$[esp+4], eax
	je	SHORT $L56826
	push	esi
	push	edi
$L56825:

; 64   : 	{
; 65   : 		U32 room,working_size;
; 66   : 
; 67   : 		room=get_room();

	mov	ecx, ebx
	call	?get_room@RingBuffer@@QAEKXZ		; RingBuffer::get_room

; 68   : 		
; 69   : 		working_size=size;
; 70   : 		if (working_size>room)

	cmp	ebp, eax
	mov	edx, ebp
	jbe	SHORT $L56829

; 71   : 			working_size=room;

	mov	edx, eax
$L56829:

; 72   : 		memcpy(write_ptr,mem,working_size);

	mov	esi, DWORD PTR _mem$[esp+12]
	mov	edi, DWORD PTR [ebx+12]
	mov	ecx, edx

; 73   : 		size-=working_size;

	sub	ebp, edx
	mov	eax, ecx
	shr	ecx, 2
	rep movsd
	mov	ecx, eax
	and	ecx, 3
	rep movsb

; 74   : 		write_ptr+=working_size;

	mov	edi, DWORD PTR [ebx+12]

; 75   : 		depth_write+=working_size;

	mov	esi, DWORD PTR [ebx+20]

; 76   : 		if (write_ptr==mem_end)

	mov	ecx, DWORD PTR [ebx+4]
	add	edi, edx
	mov	eax, edi
	add	esi, edx
	cmp	eax, ecx
	mov	DWORD PTR [ebx+12], edi
	mov	DWORD PTR [ebx+20], esi
	jne	SHORT $L56830

; 77   : 			wrap();

	mov	ecx, ebx
	call	?wrap@RingBuffer@@QAEXXZ		; RingBuffer::wrap
$L56830:

; 62   : 
; 63   : 	while(size)

	test	ebp, ebp
	jne	SHORT $L56825

; 78   : 	}
; 79   : 	return total_size;

	mov	eax, DWORD PTR _total_size$[esp+12]
	pop	edi
	pop	esi
$L56826:
	pop	ebp
	pop	ebx

; 80   : }

	ret	8
?write@RingBuffer@@QAEKPBXK@Z ENDP			; RingBuffer::write
_TEXT	ENDS
PUBLIC	?realloc@MemGrow@@QAEXK@Z			; MemGrow::realloc
EXTRN	@xmalloc@4:NEAR
EXTRN	@xfree@4:NEAR
; Function compile flags: /Ogty
_TEXT	SEGMENT
_inc_size$ = 8
?realloc@MemGrow@@QAEXK@Z PROC NEAR			; MemGrow::realloc
; _this$ = ecx

; 83   : {

	push	ebx
	mov	ebx, ecx
	push	ebp
	push	esi

; 84   : 	char *new_base=(char *)xmalloc(size+inc_size);

	mov	ecx, DWORD PTR [ebx+4]
	mov	esi, DWORD PTR _inc_size$[esp+8]
	push	edi
	add	ecx, esi
	call	@xmalloc@4

; 85   : 	memcpy(new_base,base,size);

	mov	ecx, DWORD PTR [ebx+4]
	mov	esi, DWORD PTR [ebx]
	mov	ebp, eax
	mov	eax, ecx
	mov	edi, ebp
	shr	ecx, 2
	rep movsd
	mov	ecx, eax
	and	ecx, 3
	rep movsb

; 86   : 	xfree(base);

	mov	ecx, DWORD PTR [ebx]
	call	@xfree@4

; 87   : 	base=new_base;
; 88   : 	size=size+inc_size;

	mov	ecx, DWORD PTR _inc_size$[esp+12]
	mov	eax, DWORD PTR [ebx+4]
	add	eax, ecx
	pop	edi
	mov	DWORD PTR [ebx], ebp
	pop	esi
	mov	DWORD PTR [ebx+4], eax
	pop	ebp
	pop	ebx

; 89   : }

	ret	4
?realloc@MemGrow@@QAEXK@Z ENDP				; MemGrow::realloc
_TEXT	ENDS
PUBLIC	??0?$XChain@VCSysObj@@@@QAE@XZ			; XChain<CSysObj>::XChain<CSysObj>
; Function compile flags: /Ogty
; File C:\duke4\xcore\xclass.h
;	COMDAT ??0?$XChain@VCSysObj@@@@QAE@XZ
_TEXT	SEGMENT
??0?$XChain@VCSysObj@@@@QAE@XZ PROC NEAR		; XChain<CSysObj>::XChain<CSysObj>, COMDAT
; _this$ = ecx

; 830  : 	XChain(void) : head(null),tail(null) {}

	mov	eax, ecx
	xor	ecx, ecx
	mov	DWORD PTR [eax], ecx
	mov	DWORD PTR [eax+4], ecx
	mov	DWORD PTR [eax+8], ecx
	ret	0
??0?$XChain@VCSysObj@@@@QAE@XZ ENDP			; XChain<CSysObj>::XChain<CSysObj>
_TEXT	ENDS
PUBLIC	??0?$XChain@VCSysObj@@@@QAE@K@Z			; XChain<CSysObj>::XChain<CSysObj>
; Function compile flags: /Ogty
;	COMDAT ??0?$XChain@VCSysObj@@@@QAE@K@Z
_TEXT	SEGMENT
_owned$ = 8
??0?$XChain@VCSysObj@@@@QAE@K@Z PROC NEAR		; XChain<CSysObj>::XChain<CSysObj>, COMDAT
; _this$ = ecx

; 831  : 	XChain(U32 owned) : head(null),tail(null),xchain_state(owned) {}

	mov	eax, ecx
	mov	ecx, DWORD PTR _owned$[esp-4]
	shl	ecx, 31					; 0000001fH
	and	ecx, -2147483648			; 80000000H
	mov	DWORD PTR [eax], 0
	mov	DWORD PTR [eax+4], 0
	mov	DWORD PTR [eax+8], ecx
	ret	4
??0?$XChain@VCSysObj@@@@QAE@K@Z ENDP			; XChain<CSysObj>::XChain<CSysObj>
_TEXT	ENDS
PUBLIC	?get_next@?$XChain@VCSysObj@@@@QAEPAVCSysObj@@PAV2@@Z ; XChain<CSysObj>::get_next
; Function compile flags: /Ogty
;	COMDAT ?get_next@?$XChain@VCSysObj@@@@QAEPAVCSysObj@@PAV2@@Z
_TEXT	SEGMENT
_ptr$ = 8
?get_next@?$XChain@VCSysObj@@@@QAEPAVCSysObj@@PAV2@@Z PROC NEAR ; XChain<CSysObj>::get_next, COMDAT
; _this$ = ecx

; 840  : 	TYPE *get_next(TYPE *ptr){return ptr->next;}

	mov	eax, DWORD PTR _ptr$[esp-4]
	mov	eax, DWORD PTR [eax+4]
	ret	4
?get_next@?$XChain@VCSysObj@@@@QAEPAVCSysObj@@PAV2@@Z ENDP ; XChain<CSysObj>::get_next
_TEXT	ENDS
PUBLIC	?get_prev@?$XChain@VCSysObj@@@@QAEPAVCSysObj@@PAV2@@Z ; XChain<CSysObj>::get_prev
; Function compile flags: /Ogty
;	COMDAT ?get_prev@?$XChain@VCSysObj@@@@QAEPAVCSysObj@@PAV2@@Z
_TEXT	SEGMENT
_ptr$ = 8
?get_prev@?$XChain@VCSysObj@@@@QAEPAVCSysObj@@PAV2@@Z PROC NEAR ; XChain<CSysObj>::get_prev, COMDAT
; _this$ = ecx

; 841  : 	TYPE *get_prev(TYPE *ptr){return ptr->prev;}

	mov	eax, DWORD PTR _ptr$[esp-4]
	mov	eax, DWORD PTR [eax+8]
	ret	4
?get_prev@?$XChain@VCSysObj@@@@QAEPAVCSysObj@@PAV2@@Z ENDP ; XChain<CSysObj>::get_prev
_TEXT	ENDS
PUBLIC	?get_head@?$XChain@VCSysObj@@@@QAEPAVCSysObj@@XZ ; XChain<CSysObj>::get_head
; Function compile flags: /Ogty
;	COMDAT ?get_head@?$XChain@VCSysObj@@@@QAEPAVCSysObj@@XZ
_TEXT	SEGMENT
?get_head@?$XChain@VCSysObj@@@@QAEPAVCSysObj@@XZ PROC NEAR ; XChain<CSysObj>::get_head, COMDAT
; _this$ = ecx

; 847  : 	inline TYPE *get_head(void){return head;}

	mov	eax, DWORD PTR [ecx]
	ret	0
?get_head@?$XChain@VCSysObj@@@@QAEPAVCSysObj@@XZ ENDP	; XChain<CSysObj>::get_head
_TEXT	ENDS
PUBLIC	?get_tail@?$XChain@VCSysObj@@@@QAEPAVCSysObj@@XZ ; XChain<CSysObj>::get_tail
; Function compile flags: /Ogty
;	COMDAT ?get_tail@?$XChain@VCSysObj@@@@QAEPAVCSysObj@@XZ
_TEXT	SEGMENT
?get_tail@?$XChain@VCSysObj@@@@QAEPAVCSysObj@@XZ PROC NEAR ; XChain<CSysObj>::get_tail, COMDAT
; _this$ = ecx

; 848  : 	inline TYPE *get_tail(void){return tail;}

	mov	eax, DWORD PTR [ecx+4]
	ret	0
?get_tail@?$XChain@VCSysObj@@@@QAEPAVCSysObj@@XZ ENDP	; XChain<CSysObj>::get_tail
_TEXT	ENDS
PUBLIC	??3@YAXPAX@Z					; operator delete
; Function compile flags: /Ogty
; File C:\duke4\xcore\xcore.h
;	COMDAT ??3@YAXPAX@Z
_TEXT	SEGMENT
_ptr$ = 8
??3@YAXPAX@Z PROC NEAR					; operator delete, COMDAT

; 130  : __inline void operator delete(void *ptr){xfree(ptr);}

	mov	ecx, DWORD PTR _ptr$[esp-4]
	jmp	@xfree@4
??3@YAXPAX@Z ENDP					; operator delete
_TEXT	ENDS
PUBLIC	??1?$XChain@VCSysObj@@@@QAE@XZ			; XChain<CSysObj>::~XChain<CSysObj>
PUBLIC	??_7CSysObj@@6B@				; CSysObj::`vftable'
EXTRN	__purecall:NEAR
EXTRN	?_global@@3PAVXGlobal@@A:DWORD			; _global
EXTRN	?unreg_global_object@XGlobal@@QAEXPAVCSysObj@@@Z:NEAR ; XGlobal::unreg_global_object
;	COMDAT ??_7CSysObj@@6B@
CONST	SEGMENT
??_7CSysObj@@6B@ DD FLAT:__purecall			; CSysObj::`vftable'
; Function compile flags: /Ogty
; File C:\duke4\xcore\xclass.h
CONST	ENDS
;	COMDAT ??1?$XChain@VCSysObj@@@@QAE@XZ
_TEXT	SEGMENT
??1?$XChain@VCSysObj@@@@QAE@XZ PROC NEAR		; XChain<CSysObj>::~XChain<CSysObj>, COMDAT
; _this$ = ecx

; 853  : {

	push	esi
	mov	esi, ecx

; 854  : 	if (xchain_state.owned)

	mov	eax, DWORD PTR [esi+8]
	test	eax, eax
	jns	SHORT $L57238

; 855  : 	{
; 856  : 		while(head)

	cmp	DWORD PTR [esi], 0
	je	SHORT $L57238
	push	ebx
	push	edi
$L56922:

; 857  : 		{
; 858  : 			TYPE *tmp=(TYPE *)head->next;

	mov	eax, DWORD PTR [esi]

; 859  : 			delete head;

	mov	edi, eax
	mov	ebx, DWORD PTR [eax+4]
	test	edi, edi
	je	SHORT $L57219
	mov	DWORD PTR [edi], OFFSET FLAT:??_7CSysObj@@6B@ ; CSysObj::`vftable'
	mov	ecx, DWORD PTR ?_global@@3PAVXGlobal@@A	; _global
	push	edi
	call	?unreg_global_object@XGlobal@@QAEXPAVCSysObj@@@Z ; XGlobal::unreg_global_object
	mov	ecx, edi
	call	@xfree@4
$L57219:
	test	ebx, ebx

; 860  : 			head=tmp;

	mov	DWORD PTR [esi], ebx
	jne	SHORT $L56922
	pop	edi
	pop	ebx
$L57238:

; 861  : 		}
; 862  : 	}
; 863  : 	head=null;

	mov	DWORD PTR [esi], 0

; 864  : 	tail=null;

	mov	DWORD PTR [esi+4], 0
	pop	esi

; 865  : }

	ret	0
??1?$XChain@VCSysObj@@@@QAE@XZ ENDP			; XChain<CSysObj>::~XChain<CSysObj>
_TEXT	ENDS
PUBLIC	?lose_list@?$XChain@VCSysObj@@@@QAEXXZ		; XChain<CSysObj>::lose_list
; Function compile flags: /Ogty
;	COMDAT ?lose_list@?$XChain@VCSysObj@@@@QAEXXZ
_TEXT	SEGMENT
?lose_list@?$XChain@VCSysObj@@@@QAEXXZ PROC NEAR	; XChain<CSysObj>::lose_list, COMDAT
; _this$ = ecx

; 870  : 	head=null;tail=null;xchain_state.count=0;

	mov	eax, DWORD PTR [ecx+8]
	mov	DWORD PTR [ecx], 0
	and	eax, -2147483648			; 80000000H
	mov	DWORD PTR [ecx+4], 0
	mov	DWORD PTR [ecx+8], eax

; 871  : }

	ret	0
?lose_list@?$XChain@VCSysObj@@@@QAEXXZ ENDP		; XChain<CSysObj>::lose_list
_TEXT	ENDS
PUBLIC	?free_list@?$XChain@VCSysObj@@@@QAEXXZ		; XChain<CSysObj>::free_list
; Function compile flags: /Ogty
;	COMDAT ?free_list@?$XChain@VCSysObj@@@@QAEXXZ
_TEXT	SEGMENT
?free_list@?$XChain@VCSysObj@@@@QAEXXZ PROC NEAR	; XChain<CSysObj>::free_list, COMDAT
; _this$ = ecx

; 875  : {

	push	esi
	mov	esi, ecx

; 876  : 	if (xchain_state.owned)

	mov	eax, DWORD PTR [esi+8]
	test	eax, eax
	jns	SHORT $L57264

; 877  : 	{
; 878  : 		while(head)

	cmp	DWORD PTR [esi], 0
	je	SHORT $L57264
	push	ebx
	push	edi
$L56938:

; 879  : 		{
; 880  : 			TYPE *tmp=(TYPE *)head->next;

	mov	eax, DWORD PTR [esi]

; 881  : 			delete head;

	mov	edi, eax
	mov	ebx, DWORD PTR [eax+4]
	test	edi, edi
	je	SHORT $L57245
	mov	DWORD PTR [edi], OFFSET FLAT:??_7CSysObj@@6B@ ; CSysObj::`vftable'
	mov	ecx, DWORD PTR ?_global@@3PAVXGlobal@@A	; _global
	push	edi
	call	?unreg_global_object@XGlobal@@QAEXPAVCSysObj@@@Z ; XGlobal::unreg_global_object
	mov	ecx, edi
	call	@xfree@4
$L57245:
	test	ebx, ebx

; 882  : 			head=tmp;

	mov	DWORD PTR [esi], ebx
	jne	SHORT $L56938
	pop	edi
	pop	ebx
$L57264:

; 883  : 		}
; 884  : 	}
; 885  : 	head=null;tail=null;

	mov	DWORD PTR [esi], 0
	mov	DWORD PTR [esi+4], 0
	pop	esi

; 886  : }

	ret	0
?free_list@?$XChain@VCSysObj@@@@QAEXXZ ENDP		; XChain<CSysObj>::free_list
_TEXT	ENDS
PUBLIC	?add_head@?$XChain@VCSysObj@@@@QAEPAVCSysObj@@PAV2@@Z ; XChain<CSysObj>::add_head
; Function compile flags: /Ogty
;	COMDAT ?add_head@?$XChain@VCSysObj@@@@QAEPAVCSysObj@@PAV2@@Z
_TEXT	SEGMENT
_ptr$ = 8
?add_head@?$XChain@VCSysObj@@@@QAEPAVCSysObj@@PAV2@@Z PROC NEAR ; XChain<CSysObj>::add_head, COMDAT
; _this$ = ecx

; 891  : 	ptr->next=head;

	mov	eax, DWORD PTR _ptr$[esp-4]
	mov	edx, DWORD PTR [ecx]
	mov	DWORD PTR [eax+4], edx

; 892  : 	ptr->prev=null;

	mov	DWORD PTR [eax+8], 0

; 893  : 	if (head)

	mov	edx, DWORD PTR [ecx]
	test	edx, edx
	je	SHORT $L56948

; 894  : 		head->prev=ptr;

	mov	DWORD PTR [edx+8], eax

; 897  : 	
; 898  : 	head=ptr;

	mov	DWORD PTR [ecx], eax

; 899  : 
; 900  : 	return head;
; 901  : }

	ret	4
$L56948:

; 895  : 	else
; 896  : 		tail=ptr;

	mov	DWORD PTR [ecx+4], eax

; 897  : 	
; 898  : 	head=ptr;

	mov	DWORD PTR [ecx], eax

; 899  : 
; 900  : 	return head;
; 901  : }

	ret	4
?add_head@?$XChain@VCSysObj@@@@QAEPAVCSysObj@@PAV2@@Z ENDP ; XChain<CSysObj>::add_head
_TEXT	ENDS
PUBLIC	?add_tail@?$XChain@VCSysObj@@@@QAEPAVCSysObj@@PAV2@@Z ; XChain<CSysObj>::add_tail
; Function compile flags: /Ogty
;	COMDAT ?add_tail@?$XChain@VCSysObj@@@@QAEPAVCSysObj@@PAV2@@Z
_TEXT	SEGMENT
_ptr$ = 8
?add_tail@?$XChain@VCSysObj@@@@QAEPAVCSysObj@@PAV2@@Z PROC NEAR ; XChain<CSysObj>::add_tail, COMDAT
; _this$ = ecx

; 906  : 	ptr->prev=tail;

	mov	eax, DWORD PTR _ptr$[esp-4]
	mov	edx, DWORD PTR [ecx+4]
	mov	DWORD PTR [eax+8], edx

; 907  : 	ptr->next=null;

	mov	DWORD PTR [eax+4], 0

; 908  : 	if (tail)

	mov	edx, DWORD PTR [ecx+4]
	test	edx, edx
	je	SHORT $L56954

; 909  : 		tail->next=ptr;

	mov	DWORD PTR [edx+4], eax

; 912  : 	
; 913  : 	tail=ptr;

	mov	DWORD PTR [ecx+4], eax

; 914  : 
; 915  : 	return tail;
; 916  : }

	ret	4
$L56954:

; 910  : 	else
; 911  : 		head=ptr;

	mov	DWORD PTR [ecx], eax

; 912  : 	
; 913  : 	tail=ptr;

	mov	DWORD PTR [ecx+4], eax

; 914  : 
; 915  : 	return tail;
; 916  : }

	ret	4
?add_tail@?$XChain@VCSysObj@@@@QAEPAVCSysObj@@PAV2@@Z ENDP ; XChain<CSysObj>::add_tail
_TEXT	ENDS
PUBLIC	?remove_head@?$XChain@VCSysObj@@@@QAEPAVCSysObj@@XZ ; XChain<CSysObj>::remove_head
; Function compile flags: /Ogty
;	COMDAT ?remove_head@?$XChain@VCSysObj@@@@QAEPAVCSysObj@@XZ
_TEXT	SEGMENT
?remove_head@?$XChain@VCSysObj@@@@QAEPAVCSysObj@@XZ PROC NEAR ; XChain<CSysObj>::remove_head, COMDAT
; _this$ = ecx

; 937  : 	if (!head)

	mov	eax, DWORD PTR [ecx]
	test	eax, eax
	jne	SHORT $L56960

; 947  : 
; 948  : 	return ret;
; 949  : }

	ret	0
$L56960:

; 938  : 		return null;
; 939  : 
; 940  : 	TYPE *ret=head;
; 941  : 
; 942  : 	head=head->next;

	mov	edx, DWORD PTR [eax+4]

; 943  : 	if (!head)

	test	edx, edx
	mov	DWORD PTR [ecx], edx
	jne	SHORT $L56962

; 944  : 		tail=null;

	mov	DWORD PTR [ecx+4], edx

; 947  : 
; 948  : 	return ret;
; 949  : }

	ret	0
$L56962:

; 945  : 	else
; 946  : 		head->prev=null;

	mov	DWORD PTR [edx+8], 0

; 947  : 
; 948  : 	return ret;
; 949  : }

	ret	0
?remove_head@?$XChain@VCSysObj@@@@QAEPAVCSysObj@@XZ ENDP ; XChain<CSysObj>::remove_head
_TEXT	ENDS
PUBLIC	?remove_tail@?$XChain@VCSysObj@@@@QAEPAVCSysObj@@XZ ; XChain<CSysObj>::remove_tail
; Function compile flags: /Ogty
;	COMDAT ?remove_tail@?$XChain@VCSysObj@@@@QAEPAVCSysObj@@XZ
_TEXT	SEGMENT
?remove_tail@?$XChain@VCSysObj@@@@QAEPAVCSysObj@@XZ PROC NEAR ; XChain<CSysObj>::remove_tail, COMDAT
; _this$ = ecx

; 954  : 	if (!tail)

	mov	eax, DWORD PTR [ecx+4]
	test	eax, eax
	jne	SHORT $L56968

; 964  : 
; 965  : 	return ret;
; 966  : }

	ret	0
$L56968:

; 955  : 		return null;
; 956  : 
; 957  : 	TYPE *ret=tail;
; 958  : 
; 959  : 	tail=tail->prev;

	mov	edx, DWORD PTR [eax+8]

; 960  : 	if (!tail)

	test	edx, edx
	mov	DWORD PTR [ecx+4], edx
	jne	SHORT $L56970

; 961  : 		head=null;

	mov	DWORD PTR [ecx], edx

; 964  : 
; 965  : 	return ret;
; 966  : }

	ret	0
$L56970:

; 962  : 	else
; 963  : 		tail->next=null;

	mov	DWORD PTR [edx+4], 0

; 964  : 
; 965  : 	return ret;
; 966  : }

	ret	0
?remove_tail@?$XChain@VCSysObj@@@@QAEPAVCSysObj@@XZ ENDP ; XChain<CSysObj>::remove_tail
_TEXT	ENDS
PUBLIC	?remove@?$XChain@VCSysObj@@@@QAEPAVCSysObj@@PAV2@@Z ; XChain<CSysObj>::remove
; Function compile flags: /Ogty
;	COMDAT ?remove@?$XChain@VCSysObj@@@@QAEPAVCSysObj@@PAV2@@Z
_TEXT	SEGMENT
_ptr$ = 8
?remove@?$XChain@VCSysObj@@@@QAEPAVCSysObj@@PAV2@@Z PROC NEAR ; XChain<CSysObj>::remove, COMDAT
; _this$ = ecx

; 921  : 	if (ptr->prev)

	mov	eax, DWORD PTR _ptr$[esp-4]
	mov	edx, DWORD PTR [eax+8]
	test	edx, edx
	je	SHORT $L56976
	push	esi

; 922  : 		ptr->prev->next=ptr->next;

	mov	esi, DWORD PTR [eax+4]
	mov	DWORD PTR [edx+4], esi
	pop	esi

; 923  : 	else

	jmp	SHORT $L56977
$L56976:

; 924  : 		head=ptr->next;

	mov	edx, DWORD PTR [eax+4]
	mov	DWORD PTR [ecx], edx
$L56977:

; 925  : 
; 926  : 	if (ptr->next)

	mov	edx, DWORD PTR [eax+4]
	test	edx, edx
	je	SHORT $L56978

; 927  : 		ptr->next->prev=ptr->prev;

	mov	ecx, DWORD PTR [eax+8]
	mov	DWORD PTR [edx+8], ecx

; 930  : 
; 931  : 	return ptr;
; 932  : }

	ret	4
$L56978:

; 928  : 	else
; 929  : 		tail=ptr->prev;

	mov	edx, DWORD PTR [eax+8]
	mov	DWORD PTR [ecx+4], edx

; 930  : 
; 931  : 	return ptr;
; 932  : }

	ret	4
?remove@?$XChain@VCSysObj@@@@QAEPAVCSysObj@@PAV2@@Z ENDP ; XChain<CSysObj>::remove
_TEXT	ENDS
PUBLIC	??_7XBufferReadInt@@6B@				; XBufferReadInt::`vftable'
PUBLIC	??_GXBufferReadInt@@UAEPAXI@Z			; XBufferReadInt::`scalar deleting destructor'
PUBLIC	??_EXBufferReadInt@@UAEPAXI@Z			; XBufferReadInt::`vector deleting destructor'
EXTRN	?read_direct@XBufferReadInt@@MAEKPAXKAAK@Z:NEAR	; XBufferReadInt::read_direct
;	COMDAT ??_7XBufferReadInt@@6B@
; File C:\duke4\xcore\xcore.h
CONST	SEGMENT
??_7XBufferReadInt@@6B@ DD FLAT:?read_direct@XBufferReadInt@@MAEKPAXKAAK@Z ; XBufferReadInt::`vftable'
	DD	FLAT:__purecall
	DD	FLAT:__purecall
	DD	FLAT:??_EXBufferReadInt@@UAEPAXI@Z
; Function compile flags: /Ogty
CONST	ENDS
;	COMDAT ??_GXBufferReadInt@@UAEPAXI@Z
_TEXT	SEGMENT
___flags$ = 8
??_GXBufferReadInt@@UAEPAXI@Z PROC NEAR			; XBufferReadInt::`scalar deleting destructor', COMDAT
; _this$ = ecx
	mov	al, BYTE PTR ___flags$[esp-4]
	push	esi
	mov	esi, ecx
	test	al, 1
	mov	DWORD PTR [esi], OFFSET FLAT:??_7XBufferReadInt@@6B@ ; XBufferReadInt::`vftable'
	je	SHORT $L57285
	call	@xfree@4
$L57285:
	mov	eax, esi
	pop	esi
	ret	4
??_GXBufferReadInt@@UAEPAXI@Z ENDP			; XBufferReadInt::`scalar deleting destructor'
_TEXT	ENDS
PUBLIC	??1XBufferReadInt@@UAE@XZ			; XBufferReadInt::~XBufferReadInt
EXTRN	??_M@YGXPAXIHP6EX0@Z@Z:NEAR			; `eh vector destructor iterator'
; Function compile flags: /Ogty
;	COMDAT ??_EXBufferReadInt@@UAEPAXI@Z
_TEXT	SEGMENT
___flags$ = 8
??_EXBufferReadInt@@UAEPAXI@Z PROC NEAR			; XBufferReadInt::`vector deleting destructor', COMDAT
; _this$ = ecx
	push	ebx
	mov	bl, BYTE PTR ___flags$[esp]
	push	esi
	mov	esi, ecx
	test	bl, 2
	je	SHORT $L56059
	mov	eax, DWORD PTR [esi-4]
	push	edi
	lea	edi, DWORD PTR [esi-4]
	push	OFFSET FLAT:??1XBufferReadInt@@UAE@XZ	; XBufferReadInt::~XBufferReadInt
	push	eax
	push	8
	push	esi
	call	??_M@YGXPAXIHP6EX0@Z@Z			; `eh vector destructor iterator'
	test	bl, 1
	je	SHORT $L57290
	mov	ecx, edi
	call	@xfree@4
$L57290:
	mov	eax, edi
	pop	edi
	pop	esi
	pop	ebx
	ret	4
$L56059:
	test	bl, 1
	mov	DWORD PTR [esi], OFFSET FLAT:??_7XBufferReadInt@@6B@ ; XBufferReadInt::`vftable'
	je	SHORT $L57296
	mov	ecx, esi
	call	@xfree@4
$L57296:
	mov	eax, esi
	pop	esi
	pop	ebx
	ret	4
??_EXBufferReadInt@@UAEPAXI@Z ENDP			; XBufferReadInt::`vector deleting destructor'
; Function compile flags: /Ogty
; File C:\duke4\xcore\xstream.h
_TEXT	ENDS
;	COMDAT ??1XBufferReadInt@@UAE@XZ
_TEXT	SEGMENT
??1XBufferReadInt@@UAE@XZ PROC NEAR			; XBufferReadInt::~XBufferReadInt, COMDAT
; _this$ = ecx

; 37   : 	virtual ~XBufferReadInt(void){}

	mov	DWORD PTR [ecx], OFFSET FLAT:??_7XBufferReadInt@@6B@ ; XBufferReadInt::`vftable'
	ret	0
??1XBufferReadInt@@UAE@XZ ENDP				; XBufferReadInt::~XBufferReadInt
_TEXT	ENDS
PUBLIC	??_7XBufferWriteInt@@6B@			; XBufferWriteInt::`vftable'
PUBLIC	??_GXBufferWriteInt@@UAEPAXI@Z			; XBufferWriteInt::`scalar deleting destructor'
PUBLIC	??_EXBufferWriteInt@@UAEPAXI@Z			; XBufferWriteInt::`vector deleting destructor'
EXTRN	?write_direct@XBufferWriteInt@@MAEKPBXKAAK@Z:NEAR ; XBufferWriteInt::write_direct
;	COMDAT ??_7XBufferWriteInt@@6B@
; File C:\duke4\xcore\xcore.h
CONST	SEGMENT
??_7XBufferWriteInt@@6B@ DD FLAT:?write_direct@XBufferWriteInt@@MAEKPBXKAAK@Z ; XBufferWriteInt::`vftable'
	DD	FLAT:__purecall
	DD	FLAT:__purecall
	DD	FLAT:__purecall
	DD	FLAT:??_EXBufferWriteInt@@UAEPAXI@Z
; Function compile flags: /Ogty
CONST	ENDS
;	COMDAT ??_GXBufferWriteInt@@UAEPAXI@Z
_TEXT	SEGMENT
___flags$ = 8
??_GXBufferWriteInt@@UAEPAXI@Z PROC NEAR		; XBufferWriteInt::`scalar deleting destructor', COMDAT
; _this$ = ecx
	mov	al, BYTE PTR ___flags$[esp-4]
	push	esi
	mov	esi, ecx
	test	al, 1
	mov	DWORD PTR [esi], OFFSET FLAT:??_7XBufferWriteInt@@6B@ ; XBufferWriteInt::`vftable'
	je	SHORT $L57307
	call	@xfree@4
$L57307:
	mov	eax, esi
	pop	esi
	ret	4
??_GXBufferWriteInt@@UAEPAXI@Z ENDP			; XBufferWriteInt::`scalar deleting destructor'
_TEXT	ENDS
PUBLIC	??1XBufferWriteInt@@UAE@XZ			; XBufferWriteInt::~XBufferWriteInt
; Function compile flags: /Ogty
;	COMDAT ??_EXBufferWriteInt@@UAEPAXI@Z
_TEXT	SEGMENT
___flags$ = 8
??_EXBufferWriteInt@@UAEPAXI@Z PROC NEAR		; XBufferWriteInt::`vector deleting destructor', COMDAT
; _this$ = ecx
	push	ebx
	mov	bl, BYTE PTR ___flags$[esp]
	push	esi
	mov	esi, ecx
	test	bl, 2
	je	SHORT $L56111
	mov	eax, DWORD PTR [esi-4]
	push	edi
	lea	edi, DWORD PTR [esi-4]
	push	OFFSET FLAT:??1XBufferWriteInt@@UAE@XZ	; XBufferWriteInt::~XBufferWriteInt
	push	eax
	push	8
	push	esi
	call	??_M@YGXPAXIHP6EX0@Z@Z			; `eh vector destructor iterator'
	test	bl, 1
	je	SHORT $L57312
	mov	ecx, edi
	call	@xfree@4
$L57312:
	mov	eax, edi
	pop	edi
	pop	esi
	pop	ebx
	ret	4
$L56111:
	test	bl, 1
	mov	DWORD PTR [esi], OFFSET FLAT:??_7XBufferWriteInt@@6B@ ; XBufferWriteInt::`vftable'
	je	SHORT $L57318
	mov	ecx, esi
	call	@xfree@4
$L57318:
	mov	eax, esi
	pop	esi
	pop	ebx
	ret	4
??_EXBufferWriteInt@@UAEPAXI@Z ENDP			; XBufferWriteInt::`vector deleting destructor'
; Function compile flags: /Ogty
; File C:\duke4\xcore\xstream.h
_TEXT	ENDS
;	COMDAT ??1XBufferWriteInt@@UAE@XZ
_TEXT	SEGMENT
??1XBufferWriteInt@@UAE@XZ PROC NEAR			; XBufferWriteInt::~XBufferWriteInt, COMDAT
; _this$ = ecx

; 56   : 	virtual ~XBufferWriteInt(void){}

	mov	DWORD PTR [ecx], OFFSET FLAT:??_7XBufferWriteInt@@6B@ ; XBufferWriteInt::`vftable'
	ret	0
??1XBufferWriteInt@@UAE@XZ ENDP				; XBufferWriteInt::~XBufferWriteInt
_TEXT	ENDS
PUBLIC	??1XStreamRdDirect@@UAE@XZ			; XStreamRdDirect::~XStreamRdDirect
PUBLIC	??_GXStreamRdDirect@@UAEPAXI@Z			; XStreamRdDirect::`scalar deleting destructor'
; Function compile flags: /Ogty
;	COMDAT ??_GXStreamRdDirect@@UAEPAXI@Z
_TEXT	SEGMENT
___flags$ = 8
??_GXStreamRdDirect@@UAEPAXI@Z PROC NEAR		; XStreamRdDirect::`scalar deleting destructor', COMDAT
; _this$ = ecx
	push	esi
	mov	esi, ecx
	call	??1XStreamRdDirect@@UAE@XZ		; XStreamRdDirect::~XStreamRdDirect
	test	BYTE PTR ___flags$[esp], 1
	je	SHORT $L57326
	mov	ecx, esi
	call	@xfree@4
$L57326:
	mov	eax, esi
	pop	esi
	ret	4
??_GXStreamRdDirect@@UAEPAXI@Z ENDP			; XStreamRdDirect::`scalar deleting destructor'
; Function compile flags: /Ogty
_TEXT	ENDS
;	COMDAT ??1XStreamRdDirect@@UAE@XZ
_TEXT	SEGMENT
??1XStreamRdDirect@@UAE@XZ PROC NEAR			; XStreamRdDirect::~XStreamRdDirect, COMDAT
; _this$ = ecx

; 71   : 	~XStreamRdDirect(void){}

	mov	DWORD PTR [ecx], OFFSET FLAT:??_7XBufferReadInt@@6B@ ; XBufferReadInt::`vftable'
	ret	0
??1XStreamRdDirect@@UAE@XZ ENDP				; XStreamRdDirect::~XStreamRdDirect
_TEXT	ENDS
PUBLIC	??_EXStreamRdDirect@@UAEPAXI@Z			; XStreamRdDirect::`vector deleting destructor'
; Function compile flags: /Ogty
;	COMDAT ??_EXStreamRdDirect@@UAEPAXI@Z
_TEXT	SEGMENT
___flags$ = 8
??_EXStreamRdDirect@@UAEPAXI@Z PROC NEAR		; XStreamRdDirect::`vector deleting destructor', COMDAT
; _this$ = ecx
	push	ebx
	mov	bl, BYTE PTR ___flags$[esp]
	push	esi
	mov	esi, ecx
	test	bl, 2
	je	SHORT $L56163
	mov	eax, DWORD PTR [esi-4]
	push	edi
	lea	edi, DWORD PTR [esi-4]
	push	OFFSET FLAT:??1XStreamRdDirect@@UAE@XZ	; XStreamRdDirect::~XStreamRdDirect
	push	eax
	push	8
	push	esi
	call	??_M@YGXPAXIHP6EX0@Z@Z			; `eh vector destructor iterator'
	test	bl, 1
	je	SHORT $L57337
	mov	ecx, edi
	call	@xfree@4
$L57337:
	mov	eax, edi
	pop	edi
	pop	esi
	pop	ebx
	ret	4
$L56163:
	mov	ecx, esi
	call	??1XStreamRdDirect@@UAE@XZ		; XStreamRdDirect::~XStreamRdDirect
	test	bl, 1
	je	SHORT $L57339
	mov	ecx, esi
	call	@xfree@4
$L57339:
	mov	eax, esi
	pop	esi
	pop	ebx
	ret	4
??_EXStreamRdDirect@@UAEPAXI@Z ENDP			; XStreamRdDirect::`vector deleting destructor'
_TEXT	ENDS
PUBLIC	??1XStreamWrDirect@@UAE@XZ			; XStreamWrDirect::~XStreamWrDirect
PUBLIC	??_GXStreamWrDirect@@UAEPAXI@Z			; XStreamWrDirect::`scalar deleting destructor'
; Function compile flags: /Ogty
;	COMDAT ??_GXStreamWrDirect@@UAEPAXI@Z
_TEXT	SEGMENT
___flags$ = 8
??_GXStreamWrDirect@@UAEPAXI@Z PROC NEAR		; XStreamWrDirect::`scalar deleting destructor', COMDAT
; _this$ = ecx
	push	esi
	mov	esi, ecx
	call	??1XStreamWrDirect@@UAE@XZ		; XStreamWrDirect::~XStreamWrDirect
	test	BYTE PTR ___flags$[esp], 1
	je	SHORT $L57346
	mov	ecx, esi
	call	@xfree@4
$L57346:
	mov	eax, esi
	pop	esi
	ret	4
??_GXStreamWrDirect@@UAEPAXI@Z ENDP			; XStreamWrDirect::`scalar deleting destructor'
; Function compile flags: /Ogty
_TEXT	ENDS
;	COMDAT ??1XStreamWrDirect@@UAE@XZ
_TEXT	SEGMENT
??1XStreamWrDirect@@UAE@XZ PROC NEAR			; XStreamWrDirect::~XStreamWrDirect, COMDAT
; _this$ = ecx

; 88   : 	~XStreamWrDirect(void){}

	mov	DWORD PTR [ecx], OFFSET FLAT:??_7XBufferWriteInt@@6B@ ; XBufferWriteInt::`vftable'
	ret	0
??1XStreamWrDirect@@UAE@XZ ENDP				; XStreamWrDirect::~XStreamWrDirect
_TEXT	ENDS
PUBLIC	??_EXStreamWrDirect@@UAEPAXI@Z			; XStreamWrDirect::`vector deleting destructor'
; Function compile flags: /Ogty
;	COMDAT ??_EXStreamWrDirect@@UAEPAXI@Z
_TEXT	SEGMENT
___flags$ = 8
??_EXStreamWrDirect@@UAEPAXI@Z PROC NEAR		; XStreamWrDirect::`vector deleting destructor', COMDAT
; _this$ = ecx
	push	ebx
	mov	bl, BYTE PTR ___flags$[esp]
	push	esi
	mov	esi, ecx
	test	bl, 2
	je	SHORT $L56219
	mov	eax, DWORD PTR [esi-4]
	push	edi
	lea	edi, DWORD PTR [esi-4]
	push	OFFSET FLAT:??1XStreamWrDirect@@UAE@XZ	; XStreamWrDirect::~XStreamWrDirect
	push	eax
	push	8
	push	esi
	call	??_M@YGXPAXIHP6EX0@Z@Z			; `eh vector destructor iterator'
	test	bl, 1
	je	SHORT $L57357
	mov	ecx, edi
	call	@xfree@4
$L57357:
	mov	eax, edi
	pop	edi
	pop	esi
	pop	ebx
	ret	4
$L56219:
	mov	ecx, esi
	call	??1XStreamWrDirect@@UAE@XZ		; XStreamWrDirect::~XStreamWrDirect
	test	bl, 1
	je	SHORT $L57359
	mov	ecx, esi
	call	@xfree@4
$L57359:
	mov	eax, esi
	pop	esi
	pop	ebx
	ret	4
??_EXStreamWrDirect@@UAEPAXI@Z ENDP			; XStreamWrDirect::`vector deleting destructor'
_TEXT	ENDS
PUBLIC	??1XMemRdBuffer@@UAE@XZ				; XMemRdBuffer::~XMemRdBuffer
PUBLIC	??_GXMemRdBuffer@@UAEPAXI@Z			; XMemRdBuffer::`scalar deleting destructor'
; Function compile flags: /Ogty
;	COMDAT ??_GXMemRdBuffer@@UAEPAXI@Z
_TEXT	SEGMENT
___flags$ = 8
??_GXMemRdBuffer@@UAEPAXI@Z PROC NEAR			; XMemRdBuffer::`scalar deleting destructor', COMDAT
; _this$ = ecx
	push	esi
	mov	esi, ecx
	call	??1XMemRdBuffer@@UAE@XZ			; XMemRdBuffer::~XMemRdBuffer
	test	BYTE PTR ___flags$[esp], 1
	je	SHORT $L57366
	mov	ecx, esi
	call	@xfree@4
$L57366:
	mov	eax, esi
	pop	esi
	ret	4
??_GXMemRdBuffer@@UAEPAXI@Z ENDP			; XMemRdBuffer::`scalar deleting destructor'
_TEXT	ENDS
PUBLIC	??_7XMemRdBuffer@@6B@				; XMemRdBuffer::`vftable'
PUBLIC	??_EXMemRdBuffer@@UAEPAXI@Z			; XMemRdBuffer::`vector deleting destructor'
EXTRN	?read@XMemRdBuffer@@UAEKPAXKAAK1@Z:NEAR		; XMemRdBuffer::read
EXTRN	?seek@XMemRdBuffer@@UAEKJ@Z:NEAR		; XMemRdBuffer::seek
;	COMDAT ??_7XMemRdBuffer@@6B@
CONST	SEGMENT
??_7XMemRdBuffer@@6B@ DD FLAT:?read_direct@XBufferReadInt@@MAEKPAXKAAK@Z ; XMemRdBuffer::`vftable'
	DD	FLAT:?read@XMemRdBuffer@@UAEKPAXKAAK1@Z
	DD	FLAT:?seek@XMemRdBuffer@@UAEKJ@Z
	DD	FLAT:??_EXMemRdBuffer@@UAEPAXI@Z
; Function compile flags: /Ogty
CONST	ENDS
;	COMDAT ??1XMemRdBuffer@@UAE@XZ
_TEXT	SEGMENT
??1XMemRdBuffer@@UAE@XZ PROC NEAR			; XMemRdBuffer::~XMemRdBuffer, COMDAT
; _this$ = ecx

; 109  : 	~XMemRdBuffer(void){}

	push	esi
	mov	esi, ecx
	mov	DWORD PTR [esi], OFFSET FLAT:??_7XMemRdBuffer@@6B@ ; XMemRdBuffer::`vftable'
	mov	ecx, DWORD PTR [esi+8]
	call	@xfree@4
	mov	DWORD PTR [esi+8], 0
	mov	DWORD PTR [esi], OFFSET FLAT:??_7XBufferReadInt@@6B@ ; XBufferReadInt::`vftable'
	pop	esi
	ret	0
??1XMemRdBuffer@@UAE@XZ ENDP				; XMemRdBuffer::~XMemRdBuffer
; Function compile flags: /Ogty
_TEXT	ENDS
;	COMDAT ??_EXMemRdBuffer@@UAEPAXI@Z
_TEXT	SEGMENT
___flags$ = 8
??_EXMemRdBuffer@@UAEPAXI@Z PROC NEAR			; XMemRdBuffer::`vector deleting destructor', COMDAT
; _this$ = ecx
	push	ebx
	mov	bl, BYTE PTR ___flags$[esp]
	push	esi
	mov	esi, ecx
	test	bl, 2
	je	SHORT $L56272
	mov	eax, DWORD PTR [esi-4]
	push	edi
	lea	edi, DWORD PTR [esi-4]
	push	OFFSET FLAT:??1XMemRdBuffer@@UAE@XZ	; XMemRdBuffer::~XMemRdBuffer
	push	eax
	push	24					; 00000018H
	push	esi
	call	??_M@YGXPAXIHP6EX0@Z@Z			; `eh vector destructor iterator'
	test	bl, 1
	je	SHORT $L57382
	mov	ecx, edi
	call	@xfree@4
$L57382:
	mov	eax, edi
	pop	edi
	pop	esi
	pop	ebx
	ret	4
$L56272:
	mov	ecx, esi
	call	??1XMemRdBuffer@@UAE@XZ			; XMemRdBuffer::~XMemRdBuffer
	test	bl, 1
	je	SHORT $L57384
	mov	ecx, esi
	call	@xfree@4
$L57384:
	mov	eax, esi
	pop	esi
	pop	ebx
	ret	4
??_EXMemRdBuffer@@UAEPAXI@Z ENDP			; XMemRdBuffer::`vector deleting destructor'
_TEXT	ENDS
END
